
bomb:     file format elf32-i386
bomb
architecture: i386, flags 0x00000112:
EXEC_P, HAS_SYMS, D_PAGED
start address 0x080488e0

Program Header:
    PHDR off    0x00000034 vaddr 0x08048034 paddr 0x08048034 align 2**2
         filesz 0x000000c0 memsz 0x000000c0 flags r-x
  INTERP off    0x000000f4 vaddr 0x080480f4 paddr 0x080480f4 align 2**0
         filesz 0x00000013 memsz 0x00000013 flags r--
    LOAD off    0x00000000 vaddr 0x08048000 paddr 0x08048000 align 2**12
         filesz 0x00001dcb memsz 0x00001dcb flags r-x
    LOAD off    0x00001de0 vaddr 0x0804ade0 paddr 0x0804ade0 align 2**12
         filesz 0x00000858 memsz 0x00000f30 flags rw-
 DYNAMIC off    0x00002598 vaddr 0x0804b598 paddr 0x0804b598 align 2**2
         filesz 0x000000a0 memsz 0x000000a0 flags rw-
    NOTE off    0x00000108 vaddr 0x08048108 paddr 0x08048108 align 2**2
         filesz 0x00000020 memsz 0x00000020 flags r--

Dynamic Section:
  NEEDED               libc.so.6
  INIT                 0x080486e0
  FINI                 0x080495e4
  HASH                 0x08048128
  STRTAB               0x0804841c
  SYMTAB               0x080481fc
  STRSZ                0x0000013b
  SYMENT               0x00000010
  DEBUG                0x00000000
  PLTGOT               0x0804b518
  PLTRELSZ             0x000000e0
  PLTREL               0x00000011
  JMPREL               0x08048600
  REL                  0x080485e0
  RELSZ                0x00000020
  RELENT               0x00000008
  VERNEED              0x080485b0
  VERNEEDNUM           0x00000001
  VERSYM               0x0804856c

Version References:
  required from libc.so.6:
    0x0d696911 0x00 03 GLIBC_2.1
    0x0d696910 0x00 02 GLIBC_2.0

Sections:
Idx Name          Size      VMA       LMA       File off  Algn
  0 .interp       00000013  080480f4  080480f4  000000f4  2**0
                  CONTENTS, ALLOC, LOAD, READONLY, DATA
  1 .note.ABI-tag 00000020  08048108  08048108  00000108  2**2
                  CONTENTS, ALLOC, LOAD, READONLY, DATA
  2 .hash         000000d4  08048128  08048128  00000128  2**2
                  CONTENTS, ALLOC, LOAD, READONLY, DATA
  3 .dynsym       00000220  080481fc  080481fc  000001fc  2**2
                  CONTENTS, ALLOC, LOAD, READONLY, DATA
  4 .dynstr       0000014f  0804841c  0804841c  0000041c  2**0
                  CONTENTS, ALLOC, LOAD, READONLY, DATA
  5 .gnu.version  00000044  0804856c  0804856c  0000056c  2**1
                  CONTENTS, ALLOC, LOAD, READONLY, DATA
  6 .gnu.version_r 00000030  080485b0  080485b0  000005b0  2**2
                  CONTENTS, ALLOC, LOAD, READONLY, DATA
  7 .rel.got      00000008  080485e0  080485e0  000005e0  2**2
                  CONTENTS, ALLOC, LOAD, READONLY, DATA
  8 .rel.bss      00000018  080485e8  080485e8  000005e8  2**2
                  CONTENTS, ALLOC, LOAD, READONLY, DATA
  9 .rel.plt      000000e0  08048600  08048600  00000600  2**2
                  CONTENTS, ALLOC, LOAD, READONLY, DATA
 10 .init         0000002f  080486e0  080486e0  000006e0  2**2
                  CONTENTS, ALLOC, LOAD, READONLY, CODE
 11 .plt          000001d0  08048710  08048710  00000710  2**2
                  CONTENTS, ALLOC, LOAD, READONLY, CODE
 12 .text         00000d04  080488e0  080488e0  000008e0  2**4
                  CONTENTS, ALLOC, LOAD, READONLY, CODE
 13 .fini         0000001a  080495e4  080495e4  000015e4  2**2
                  CONTENTS, ALLOC, LOAD, READONLY, CODE
 14 .rodata       000007cb  08049600  08049600  00001600  2**5
                  CONTENTS, ALLOC, LOAD, READONLY, DATA
 15 .data         000006a4  0804ade0  0804ade0  00001de0  2**5
                  CONTENTS, ALLOC, LOAD, DATA
 16 .eh_frame     00000084  0804b484  0804b484  00002484  2**2
                  CONTENTS, ALLOC, LOAD, DATA
 17 .ctors        00000008  0804b508  0804b508  00002508  2**2
                  CONTENTS, ALLOC, LOAD, DATA
 18 .dtors        00000008  0804b510  0804b510  00002510  2**2
                  CONTENTS, ALLOC, LOAD, DATA
 19 .got          00000080  0804b518  0804b518  00002518  2**2
                  CONTENTS, ALLOC, LOAD, DATA
 20 .dynamic      000000a0  0804b598  0804b598  00002598  2**2
                  CONTENTS, ALLOC, LOAD, DATA
 21 .bss          000006d0  0804b640  0804b640  00002640  2**5
                  ALLOC
 22 .stab         00000750  00000000  00000000  00002640  2**2
                  CONTENTS, READONLY, DEBUGGING
 23 .stabstr      0000134f  00000000  00000000  00002d90  2**0
                  CONTENTS, READONLY, DEBUGGING
 24 .comment      00000175  00000000  00000000  000040df  2**0
                  CONTENTS, READONLY
 25 .debug_aranges 00000020  00000000  00000000  00004254  2**0
                  CONTENTS, READONLY, DEBUGGING
 26 .debug_pubnames 00000026  00000000  00000000  00004274  2**0
                  CONTENTS, READONLY, DEBUGGING
 27 .debug_info   00000b63  00000000  00000000  0000429a  2**0
                  CONTENTS, READONLY, DEBUGGING
 28 .debug_abbrev 0000013f  00000000  00000000  00004dfd  2**0
                  CONTENTS, READONLY, DEBUGGING
 29 .debug_line   000002a8  00000000  00000000  00004f3c  2**0
                  CONTENTS, READONLY, DEBUGGING
 30 .note         000000a0  0804bd10  0804bd10  000051e4  2**0
                  CONTENTS, READONLY
SYMBOL TABLE:
080480f4 l    d  .interp	00000000              .interp
08048108 l    d  .note.ABI-tag	00000000              .note.ABI-tag
08048128 l    d  .hash	00000000              .hash
080481fc l    d  .dynsym	00000000              .dynsym
0804841c l    d  .dynstr	00000000              .dynstr
0804856c l    d  .gnu.version	00000000              .gnu.version
080485b0 l    d  .gnu.version_r	00000000              .gnu.version_r
080485e0 l    d  .rel.got	00000000              .rel.got
080485e8 l    d  .rel.bss	00000000              .rel.bss
08048600 l    d  .rel.plt	00000000              .rel.plt
080486e0 l    d  .init	00000000              .init
08048710 l    d  .plt	00000000              .plt
080488e0 l    d  .text	00000000              .text
080495e4 l    d  .fini	00000000              .fini
08049600 l    d  .rodata	00000000              .rodata
0804ade0 l    d  .data	00000000              .data
0804b484 l    d  .eh_frame	00000000              .eh_frame
0804b508 l    d  .ctors	00000000              .ctors
0804b510 l    d  .dtors	00000000              .dtors
0804b518 l    d  .got	00000000              .got
0804b598 l    d  .dynamic	00000000              .dynamic
0804b640 l    d  .bss	00000000              .bss
00000000 l    d  .stab	00000000              .stab
00000000 l    d  .stabstr	00000000              .stabstr
00000000 l    d  .comment	00000000              .comment
00000000 l    d  .debug_aranges	00000000              .debug_aranges
00000000 l    d  .debug_pubnames	00000000              .debug_pubnames
00000000 l    d  .debug_info	00000000              .debug_info
00000000 l    d  .debug_abbrev	00000000              .debug_abbrev
00000000 l    d  .debug_line	00000000              .debug_line
0804bd10 l    d  .note	00000000              .note
00000000 l    d  *ABS*	00000000              .shstrtab
00000000 l    d  *ABS*	00000000              .symtab
00000000 l    d  *ABS*	00000000              .strtab
00000000 l    df *ABS*	00000000              initfini.c
08048904 l       .text	00000000              gcc2_compiled.
00000000 l    df *ABS*	00000000              init.c
00000000 l    df *ABS*	00000000              crtstuff.c
08048910 l       .text	00000000              gcc2_compiled.
0804ade4 l     O .data	00000000              p.3
0804b510 l     O .dtors	00000000              __DTOR_LIST__
0804ade8 l     O .data	00000000              completed.4
08048910 l     F .text	00000000              __do_global_dtors_aux
0804b484 l     O .eh_frame	00000000              __EH_FRAME_BEGIN__
08048964 l     F .text	00000000              fini_dummy
0804b64c l     O .bss	00000018              object.11
08048970 l     F .text	00000000              frame_dummy
08048998 l     F .text	00000000              init_dummy
0804adec l     O .data	00000000              force_to_data
0804b508 l     O .ctors	00000000              __CTOR_LIST__
00000000 l    df *ABS*	00000000              crtstuff.c
080495b0 l       .text	00000000              gcc2_compiled.
080495b0 l     F .text	00000000              __do_global_ctors_aux
0804b50c l     O .ctors	00000000              __CTOR_END__
080495d8 l     F .text	00000000              init_dummy
0804b484 l     O .data	00000000              force_to_data
0804b514 l     O .dtors	00000000              __DTOR_END__
0804b504 l     O .eh_frame	00000000              __FRAME_END__
00000000 l    df *ABS*	00000000              initfini.c
080495e4 l       .text	00000000              gcc2_compiled.
00000000 l    df *ABS*	00000000              bomb.c
080489b0 l       .text	00000000              gcc2_compiled.
0804b484 l       .eh_frame	00000000              __FRAME_BEGIN__
00000000 l    df *ABS*	00000000              phases.c
08048b20 l       .text	00000000              gcc2_compiled.
0804b220 l     O .data	00000000              array.123
00000000 l    df *ABS*	00000000              support.c
08048f50 l       .text	00000000              gcc2_compiled.
08048f50 l     F .text	00000062              sig_handler
0804b680 g     O .bss	00000640              input_strings
0804b2fc g     O .data	0000000c              n32
080491fc g     F .text	000000c1              read_line
0804b2a8 g     O .data	0000000c              n44
0804b230 g     O .data	0000000c              node6
08048e94 g     F .text	00000052              fun7
0804bcc0 g     O .bss	00000050              scratch
0804b598 g     O .dynamic	00000000              _DYNAMIC
08048fb4 g     F .text	00000021              invalid_phase
0804b254 g     O .data	0000000c              node3
0804ae00 g     O .data	00000004              bomb_id
080494fc g     F .text	0000002d              explode_bomb
080495e4 g     O *ABS*	00000000              _etext
08048720  w    F *UND*	00000074              __register_frame_info@@GLIBC_2.0
0804952c g     F .text	0000007a              phase_defused
0804b29c g     O .data	0000000c              n42
08048730       F *UND*	00000037              close@@GLIBC_2.0
00000000         *UND*	00000004              _fp_hw
08049030 g     F .text	00000059              strings_not_equal
08048740       F *UND*	00000024              fprintf@@GLIBC_2.0
08048750       F *UND*	00000081              tmpfile@@GLIBC_2.1
08048760       F *UND*	000000e0              getenv@@GLIBC_2.0
08048770       F *UND*	000000b5              signal@@GLIBC_2.0
08048780       F *UND*	00000098              fflush@@GLIBC_2.0
0804b23c g     O .data	0000000c              node5
0804b2d8 g     O .data	0000000c              n34
0804b2b4 g     O .data	0000000c              n47
080492c0 g     F .text	0000023a              send_msg
08048790       F *UND*	0000007f              bcopy@@GLIBC_2.0
080487a0       F *UND*	00000073              rewind@@GLIBC_2.0
08049018 g     F .text	00000018              string_length
080487b0       F *UND*	0000029e              system@@GLIBC_2.0
080486e0 g     F .init	00000000              _init
08048b48 g     F .text	0000004f              phase_2
0804b278 g     O .data	0000000c              n48
0804b340 g     O .data	00000140              host_table
080487c0  w    F *UND*	000000a2              __deregister_frame_info@@GLIBC_2.0
0804b640 g     O .bss	00000004              stdout@@GLIBC_2.0
0804b480 g     O .data	00000004              num_input_strings
080488e0 g       .text	00000000              _start
080487d0       F *UND*	000000ca              fgets@@GLIBC_2.0
08048b98 g     F .text	00000108              phase_3
08048ca0 g     F .text	0000003e              func4
0804b320 g     O .data	0000000c              n1
080487e0       F *UND*	00000176              sleep@@GLIBC_2.0
0804b2f0 g     O .data	0000000c              n33
080487f0       F *UND*	00000452              __strtol_internal@@GLIBC_2.0
0804b2c0 g     O .data	0000000c              n41
0804b308 g     O .data	0000000c              n22
0804b638 g     O *ABS*	00000000              __bss_start
080489b0 g     F .text	0000016d              main
0804b248 g     O .data	0000000c              node4
0804b2e4 g     O .data	0000000c              n31
08048800       F *UND*	00000105              __libc_start_main@@GLIBC_2.0
08048d98 g     F .text	000000f9              phase_6
0804b26c g     O .data	0000000c              node1
08049160 g     F .text	00000019              initialize_bomb
0804ade0  w      .data	00000000              data_start
08048810       F *UND*	00000029              printf@@GLIBC_2.0
08048ce0 g     F .text	0000004b              phase_4
0804917c g     F .text	00000032              blank_line
0804b284 g     O .data	0000000c              n46
080495e4 g     F .fini	00000000              _fini
08048820       F *UND*	000000f5              fclose@@GLIBC_2.1
0804b664 g     O .bss	00000004              infile
0804908c g     F .text	000000d4              open_clientfd
08048830       F *UND*	00000580              gethostbyname@@GLIBC_2.0
08048840       F *UND*	00000033              bzero@@GLIBC_2.0
08048850       F *UND*	000000e8              exit@@GLIBC_2.0
0804ae20 g     O .data	00000400              lab_id
08048fd8 g     F .text	0000003d              read_six_numbers
08048860       F *UND*	00000024              sscanf@@GLIBC_2.0
0804b638 g     O *ABS*	00000000              _edata
0804b518 g     O .got	00000000              _GLOBAL_OFFSET_TABLE_
0804bd10 g     O *ABS*	00000000              _end
08048d2c g     F .text	00000069              phase_5
0804b290 g     O .data	0000000c              n43
08048ee8 g     F .text	00000060              secret_phase
0804b644 g     O .bss	00000004              __ctype_b@@GLIBC_2.0
08048870       F *UND*	0000003a              connect@@GLIBC_2.0
0804b648 g     O .bss	00000004              stdin@@GLIBC_2.0
08048880       F *UND*	00000079              fopen@@GLIBC_2.1
08048890       F *UND*	00000037              dup@@GLIBC_2.0
08049604 g     O .rodata	00000004              _IO_stdin_used
080488a0       F *UND*	00000024              sprintf@@GLIBC_2.0
0804b2cc g     O .data	0000000c              n45
0804ade0 g       .data	00000000              __data_start
080488b0       F *UND*	0000003a              socket@@GLIBC_2.0
08048b20 g     F .text	00000027              phase_1
080491b0 g     F .text	0000004a              skip
0804b314 g     O .data	0000000c              n21
0804b260 g     O .data	0000000c              node2
080488c0       F *UND*	0000007e              cuserid@@GLIBC_2.0
00000000  w      *UND*	00000000              __gmon_start__
080488d0       F *UND*	00000022              strcpy@@GLIBC_2.0


Contents of section .interp:
 80480f4 2f6c6962 2f6c642d 6c696e75 782e736f  /lib/ld-linux.so
 8048104 2e3200                               .2.             
Contents of section .note.ABI-tag:
 8048108 04000000 10000000 01000000 474e5500  ............GNU.
 8048118 00000000 02000000 00000000 00000000  ................
Contents of section .hash:
 8048128 11000000 22000000 0e000000 00000000  ...."...........
 8048138 1e000000 12000000 0f000000 00000000  ................
 8048148 14000000 16000000 18000000 01000000  ................
 8048158 1d000000 0c000000 21000000 1c000000  ........!.......
 8048168 0d000000 20000000 17000000 00000000  .... ...........
 8048178 00000000 00000000 00000000 00000000  ................
 8048188 00000000 05000000 00000000 04000000  ................
 8048198 03000000 07000000 00000000 00000000  ................
 80481a8 09000000 08000000 00000000 00000000  ................
 80481b8 00000000 02000000 00000000 13000000  ................
 80481c8 00000000 10000000 00000000 06000000  ................
 80481d8 0b000000 11000000 1a000000 15000000  ................
 80481e8 1b000000 19000000 0a000000 1f000000  ................
 80481f8 00000000                             ....            
Contents of section .dynsym:
 80481fc 00000000 00000000 00000000 00000000  ................
 804820c 1f010000 20870408 74000000 22000000  .... ...t..."...
 804821c 35010000 30870408 37000000 12000000  5...0...7.......
 804822c 91000000 40870408 24000000 12000000  ....@...$.......
 804823c 60000000 50870408 81000000 12000000  `...P...........
 804824c 41000000 60870408 e0000000 12000000  A...`...........
 804825c b7000000 70870408 b5000000 12000000  ....p...........
 804826c 7c000000 80870408 98000000 12000000  |...............
 804827c be000000 90870408 7f000000 12000000  ................
 804828c ec000000 a0870408 73000000 12000000  ........s.......
 804829c 68000000 b0870408 9e020000 12000000  h...............
 80482ac 99000000 c0870408 a2000000 22000000  ............"...
 80482bc 28000000 40b60408 04000000 11001600  (...@...........
 80482cc 5a000000 d0870408 ca000000 12000000  Z...............
 80482dc 6f000000 e0870408 76010000 12000000  o.......v.......
 80482ec 48000000 f0870408 52040000 12000000  H.......R.......
 80482fc 0d010000 00880408 05010000 12000000  ................
 804830c 21000000 10880408 29000000 12000000  !.......).......
 804831c e5000000 20880408 f5000000 12000000  .... ...........
 804832c cf000000 30880408 80050000 12000000  ....0...........
 804833c 83000000 40880408 33000000 12000000  ....@...3.......
 804834c f3000000 50880408 e8000000 12000000  ....P...........
 804835c c4000000 60880408 24000000 12000000  ....`...$.......
 804836c 37000000 44b60408 04000000 11001600  7...D...........
 804837c 2f000000 70880408 3a000000 12000000  /...p...:.......
 804838c b1000000 48b60408 04000000 11001600  ....H...........
 804839c f8000000 80880408 79000000 12000000  ........y.......
 80483ac cb000000 90880408 37000000 12000000  ........7.......
 80483bc fe000000 04960408 04000000 11000f00  ................
 80483cc dd000000 a0880408 24000000 12000000  ........$.......
 80483dc 75000000 b0880408 3a000000 12000000  u.......:.......
 80483ec 89000000 c0880408 7e000000 12000000  ........~.......
 80483fc 01000000 00000000 00000000 20000000  ............ ...
 804840c 1a000000 d0880408 22000000 12000000  ........".......
Contents of section .dynstr:
 804841c 005f5f67 6d6f6e5f 73746172 745f5f00  .__gmon_start__.
 804842c 6c696263 2e736f2e 36007374 72637079  libc.so.6.strcpy
 804843c 00707269 6e746600 7374646f 75740063  .printf.stdout.c
 804844c 6f6e6e65 6374005f 5f637479 70655f62  onnect.__ctype_b
 804845c 00676574 656e7600 5f5f7374 72746f6c  .getenv.__strtol
 804846c 5f696e74 65726e61 6c006667 65747300  _internal.fgets.
 804847c 746d7066 696c6500 73797374 656d0073  tmpfile.system.s
 804848c 6c656570 00736f63 6b657400 66666c75  leep.socket.fflu
 804849c 73680062 7a65726f 00637573 65726964  sh.bzero.cuserid
 80484ac 00667072 696e7466 005f5f64 65726567  .fprintf.__dereg
 80484bc 69737465 725f6672 616d655f 696e666f  ister_frame_info
 80484cc 00737464 696e0073 69676e61 6c006263  .stdin.signal.bc
 80484dc 6f707900 73736361 6e660064 75700067  opy.sscanf.dup.g
 80484ec 6574686f 73746279 6e616d65 00737072  ethostbyname.spr
 80484fc 696e7466 0066636c 6f736500 72657769  intf.fclose.rewi
 804850c 6e640065 78697400 666f7065 6e005f49  nd.exit.fopen._I
 804851c 4f5f7374 64696e5f 75736564 005f5f6c  O_stdin_used.__l
 804852c 6962635f 73746172 745f6d61 696e005f  ibc_start_main._
 804853c 5f726567 69737465 725f6672 616d655f  _register_frame_
 804854c 696e666f 00636c6f 73650047 4c494243  info.close.GLIBC
 804855c 5f322e31 00474c49 42435f32 2e3000    _2.1.GLIBC_2.0. 
Contents of section .gnu.version:
 804856c 00000200 02000200 03000200 02000200  ................
 804857c 02000200 02000200 02000200 02000200  ................
 804858c 02000200 03000200 02000200 02000200  ................
 804859c 02000200 03000200 01000200 02000200  ................
 80485ac 00000200                             ....            
Contents of section .gnu.version_r:
 80485b0 01000200 10000000 10000000 00000000  ................
 80485c0 1169690d 00000300 3b010000 10000000  .ii.....;.......
 80485d0 1069690d 00000200 45010000 00000000  .ii.....E.......
Contents of section .rel.got:
 80485e0 94b50408 06200000                    ..... ..        
Contents of section .rel.bss:
 80485e8 40b60408 050c0000 44b60408 05170000  @.......D.......
 80485f8 48b60408 05190000                    H.......        
Contents of section .rel.plt:
 8048600 24b50408 07010000 28b50408 07020000  $.......(.......
 8048610 2cb50408 07030000 30b50408 07040000  ,.......0.......
 8048620 34b50408 07050000 38b50408 07060000  4.......8.......
 8048630 3cb50408 07070000 40b50408 07080000  <.......@.......
 8048640 44b50408 07090000 48b50408 070a0000  D.......H.......
 8048650 4cb50408 070b0000 50b50408 070d0000  L.......P.......
 8048660 54b50408 070e0000 58b50408 070f0000  T.......X.......
 8048670 5cb50408 07100000 60b50408 07110000  \.......`.......
 8048680 64b50408 07120000 68b50408 07130000  d.......h.......
 8048690 6cb50408 07140000 70b50408 07150000  l.......p.......
 80486a0 74b50408 07160000 78b50408 07180000  t.......x.......
 80486b0 7cb50408 071a0000 80b50408 071b0000  |...............
 80486c0 84b50408 071d0000 88b50408 071e0000  ................
 80486d0 8cb50408 071f0000 90b50408 07210000  .............!..
Contents of section .init:
 80486e0 5589e553 e8000000 005b81c3 2f2e0000  U..S.....[../...
 80486f0 83bb7c00 00000074 05e80279 fbf789f6  ..|....t...y....
 8048700 e86b0200 00e8a60e 00008b5d fcc9c3    .k.........]... 
Contents of section .plt:
 8048710 ff351cb5 0408ff25 20b50408 00000000  .5.....% .......
 8048720 ff2524b5 04086800 000000e9 e0ffffff  .%$...h.........
 8048730 ff2528b5 04086808 000000e9 d0ffffff  .%(...h.........
 8048740 ff252cb5 04086810 000000e9 c0ffffff  .%,...h.........
 8048750 ff2530b5 04086818 000000e9 b0ffffff  .%0...h.........
 8048760 ff2534b5 04086820 000000e9 a0ffffff  .%4...h ........
 8048770 ff2538b5 04086828 000000e9 90ffffff  .%8...h(........
 8048780 ff253cb5 04086830 000000e9 80ffffff  .%<...h0........
 8048790 ff2540b5 04086838 000000e9 70ffffff  .%@...h8....p...
 80487a0 ff2544b5 04086840 000000e9 60ffffff  .%D...h@....`...
 80487b0 ff2548b5 04086848 000000e9 50ffffff  .%H...hH....P...
 80487c0 ff254cb5 04086850 000000e9 40ffffff  .%L...hP....@...
 80487d0 ff2550b5 04086858 000000e9 30ffffff  .%P...hX....0...
 80487e0 ff2554b5 04086860 000000e9 20ffffff  .%T...h`.... ...
 80487f0 ff2558b5 04086868 000000e9 10ffffff  .%X...hh........
 8048800 ff255cb5 04086870 000000e9 00ffffff  .%\...hp........
 8048810 ff2560b5 04086878 000000e9 f0feffff  .%`...hx........
 8048820 ff2564b5 04086880 000000e9 e0feffff  .%d...h.........
 8048830 ff2568b5 04086888 000000e9 d0feffff  .%h...h.........
 8048840 ff256cb5 04086890 000000e9 c0feffff  .%l...h.........
 8048850 ff2570b5 04086898 000000e9 b0feffff  .%p...h.........
 8048860 ff2574b5 040868a0 000000e9 a0feffff  .%t...h.........
 8048870 ff2578b5 040868a8 000000e9 90feffff  .%x...h.........
 8048880 ff257cb5 040868b0 000000e9 80feffff  .%|...h.........
 8048890 ff2580b5 040868b8 000000e9 70feffff  .%....h.....p...
 80488a0 ff2584b5 040868c0 000000e9 60feffff  .%....h.....`...
 80488b0 ff2588b5 040868c8 000000e9 50feffff  .%....h.....P...
 80488c0 ff258cb5 040868d0 000000e9 40feffff  .%....h.....@...
 80488d0 ff2590b5 040868d8 000000e9 30feffff  .%....h.....0...
Contents of section .text:
 80488e0 31ed5e89 e183e4f8 50545268 e4950408  1.^.....PTRh....
 80488f0 68e08604 08515668 b0890408 e8fffeff  h....QVh........
 8048900 fff49090 90909090 90909090 90909090  ................
 8048910 5589e583 ec08833d e8ad0408 00753eeb  U......=.....u>.
 8048920 12a1e4ad 04088d50 048915e4 ad04088b  .......P........
 8048930 00ffd0a1 e4ad0408 83380075 e4b8c087  .........8.u....
 8048940 040885c0 740d83c4 f46884b4 0408e86d  ....t....h.....m
 8048950 feffffc7 05e8ad04 08010000 0089ec5d  ...............]
 8048960 c38d7600 5589e583 ec0889ec 5dc389f6  ..v.U.......]...
 8048970 5589e583 ec08b820 87040885 c0741283  U...... .....t..
 8048980 c4f8684c b6040868 84b40408 e88ffdff  ..hL...h........
 8048990 ff89ec5d c38d7600 5589e583 ec0889ec  ...]..v.U.......
 80489a0 5dc39090 90909090 90909090 90909090  ]...............
 80489b0 5589e583 ec14538b 45088b5d 0c83f801  U.....S.E..]....
 80489c0 750ea148 b60408a3 64b60408 eb6289f6  u..H....d....b..
 80489d0 83f80275 3b83c4f8 68209604 088b4304  ...u;...h ....C.
 80489e0 50e89afe ffffa364 b6040883 c41085c0  P......d........
 80489f0 753e83c4 fc8b4304 508b0350 68229604  u>....C.P..Ph"..
 8048a00 08e80afe ffff83c4 f46a08e8 40feffff  .........j..@...
 8048a10 83c4f88b 0350683f 960408e8 f0fdffff  .....Ph?........
 8048a20 83c4f46a 08e826fe ffff8db6 00000000  ...j..&.........
 8048a30 e82b0700 0083c4f4 68609604 08e8cefd  .+......h`......
 8048a40 ffff83c4 f468a096 0408e8c1 fdffff83  .....h..........
 8048a50 c420e8a5 07000083 c4f450e8 c0000000  . ........P.....
 8048a60 e8c70a00 0083c4f4 68e09604 08e89efd  ........h.......
 8048a70 ffff83c4 20e88207 000083c4 f450e8c5  .... ........P..
 8048a80 000000e8 a40a0000 83c4f468 20970408  ...........h ...
 8048a90 e87bfdff ff83c420 e85f0700 0083c4f4  .{..... ._......
 8048aa0 50e8f200 0000e881 0a000083 c4f4683f  P.............h?
 8048ab0 970408e8 58fdffff 83c420e8 3c070000  ....X..... .<...
 8048ac0 83c4f450 e8170200 00e85e0a 000083c4  ...P......^.....
 8048ad0 f4686097 0408e835 fdffff83 c420e819  .h`....5..... ..
 8048ae0 07000083 c4f450e8 40020000 e83b0a00  ......P.@....;..
 8048af0 0083c4f4 68a09704 08e812fd ffff83c4  ....h...........
 8048b00 20e8f606 000083c4 f450e889 020000e8   ........P......
 8048b10 180a0000 31c08b5d e889ec5d c3909090  ....1..]...]....
 8048b20 5589e583 ec088b45 0883c4f8 68c09704  U......E....h...
 8048b30 0850e8f9 04000083 c41085c0 7405e8b9  .P..........t...
 8048b40 09000089 ec5dc390 5589e583 ec205653  .....]..U.... VS
 8048b50 8b550883 c4f88d45 e85052e8 78040000  .U.....E.PR.x...
 8048b60 83c41083 7de80174 05e88e09 0000bb01  ....}..t........
 8048b70 0000008d 75e88d43 010faf44 9efc3904  ....u..C...D..9.
 8048b80 9e7405e8 74090000 4383fb05 7ee88d65  .t..t...C...~..e
 8048b90 d85b5e89 ec5dc390 5589e583 ec14538b  .[^..]..U.....S.
 8048ba0 550883c4 f48d45fc 508d45fb 508d45f4  U.....E.P.E.P.E.
 8048bb0 5068de97 040852e8 a4fcffff 83c42083  Ph....R....... .
 8048bc0 f8027f05 e8330900 00837df4 070f87b5  .....3....}.....
 8048bd0 0000008b 45f4ff24 85e89704 088d7600  ....E..$......v.
 8048be0 b371817d fc090300 000f84a0 000000e8  .q.}............
 8048bf0 08090000 e9960000 008db426 00000000  ...........&....
 8048c00 b362817d fcd60000 000f8480 000000e8  .b.}............
 8048c10 e8080000 eb79b362 817dfcf3 02000074  .....y.b.}.....t
 8048c20 6ee8d608 0000eb67 b36b817d fcfb0000  n......g.k.}....
 8048c30 00745ce8 c4080000 eb558db6 00000000  .t\......U......
 8048c40 b36f817d fca00000 007444e8 ac080000  .o.}.....tD.....
 8048c50 eb3db374 817dfcca 01000074 32e89a08  .=.t.}.....t2...
 8048c60 0000eb2b b376817d fc0c0300 007420e8  ...+.v.}.....t .
 8048c70 88080000 eb19b362 817dfc0c 02000074  .......b.}.....t
 8048c80 0ee87608 0000eb07 b378e86d 0800003a  ..v......x.m...:
 8048c90 5dfb7405 e8630800 008b5de8 89ec5dc3  ].t..c....]...].
 8048ca0 5589e583 ec105653 8b5d0883 fb017e20  U.....VS.]....~ 
 8048cb0 83c4f48d 43ff50e8 e4ffffff 89c683c4  ....C.P.........
 8048cc0 f48d43fe 50e8d6ff ffff01f0 eb0789f6  ..C.P...........
 8048cd0 b8010000 008d65e8 5b5e89ec 5dc389f6  ......e.[^..]...
 8048ce0 5589e583 ec188b55 0883c4fc 8d45fc50  U......U.....E.P
 8048cf0 68089804 0852e865 fbffff83 c41083f8  h....R.e........
 8048d00 01750683 7dfc007f 05e8ee07 000083c4  .u..}...........
 8048d10 f48b45fc 50e886ff ffff83c4 1083f837  ..E.P..........7
 8048d20 7405e8d5 07000089 ec5dc390 5589e583  t........]..U...
 8048d30 ec105653 8b5d0883 c4f453e8 d8020000  ..VS.]....S.....
 8048d40 83c41083 f8067405 e8af0700 0031d28d  ......t......1..
 8048d50 4df8be20 b204088a 041a240f 0fbec08a  M.. ......$.....
 8048d60 04308804 0a4283fa 057eecc6 45fe0083  .0...B...~..E...
 8048d70 c4f8680b 9804088d 45f850e8 b0020000  ..h.....E.P.....
 8048d80 83c41085 c07405e8 70070000 8d65e85b  .....t..p....e.[
 8048d90 5e89ec5d c38d7600 5589e583 ec4c5756  ^..]..v.U....LWV
 8048da0 538b5508 c745cc6c b2040883 c4f88d45  S.U..E.l.......E
 8048db0 e85052e8 20020000 31ff83c4 108d7600  .PR. ...1.....v.
 8048dc0 8d45e88b 04b84883 f8057605 e82b0700  .E....H...v..+..
 8048dd0 008d5f01 83fb057f 238d04bd 00000000  .._.....#.......
 8048de0 8945c88d 75e88b55 c88b0432 3b049e75  .E..u..U...2;..u
 8048df0 05e80607 00004383 fb057eea 4783ff05  ......C...~.G...
 8048e00 7ebe31ff 8d4de88d 45d08945 c48d7600  ~.1..M..E..E..v.
 8048e10 8b75ccbb 01000000 8d04bd00 00000089  .u..............
 8048e20 c23b1c08 7d128b04 0a8db426 00000000  .;..}......&....
 8048e30 8b760843 39c37cf8 8b55c489 34ba4783  .v.C9.|..U..4.G.
 8048e40 ff057ecc 8b75d089 75ccbf01 0000008d  ..~..u..u.......
 8048e50 55d08b04 ba894608 89c64783 ff057ef2  U.....F...G...~.
 8048e60 c7460800 0000008b 75cc31ff 8d742600  .F......u.1..t&.
 8048e70 8b56088b 063b027d 05e87e06 00008b76  .V...;.}..~....v
 8048e80 084783ff 047ee98d 65a85b5e 5f89ec5d  .G...~..e.[^_..]
 8048e90 c38d7600 5589e583 ec088b55 088b450c  ..v.U......U..E.
 8048ea0 85d2750c b8ffffff ffeb3790 8d742600  ..u.......7..t&.
 8048eb0 3b027d11 83c4f850 8b420450 e8d3ffff  ;.}....P.B.P....
 8048ec0 ff01c0eb 1d3b0274 1783c4f8 508b4208  .....;.t....P.B.
 8048ed0 50e8beff ffff01c0 40eb0790 8d742600  P.......@....t&.
 8048ee0 31c089ec 5dc389f6 5589e583 ec1453e8  1...]...U.....S.
 8048ef0 08030000 6a006a0a 6a0050e8 f0f8ffff  ....j.j.j.P.....
 8048f00 83c41089 c38d43ff 3de80300 007605e8  ......C.=....v..
 8048f10 e8050000 83c4f853 6820b304 08e872ff  .......Sh ....r.
 8048f20 ffff83c4 1083f807 7405e8cd 05000083  ........t.......
 8048f30 c4f46820 980408e8 d4f8ffff e8eb0500  ..h ............
 8048f40 008b5de8 89ec5dc3 90909090 90909090  ..]...].........
 8048f50 5589e583 ec0883c4 f468c09a 0408e8ad  U........h......
 8048f60 f8ffff83 c4f46a03 e873f8ff ff83c420  ......j..s..... 
 8048f70 83c4f468 f99a0408 e893f8ff ff83c4f4  ...h............
 8048f80 a140b604 0850e8f5 f7ffff83 c42083c4  .@...P....... ..
 8048f90 f46a01e8 48f8ffff 83c4f468 019b0408  .j..H......h....
 8048fa0 e86bf8ff ff83c420 83c4f46a 10e89ef8  .k..... ...j....
 8048fb0 ffff89f6 5589e583 ec088b45 0883c4f8  ....U......E....
 8048fc0 50680a9b 0408e845 f8ffff83 c4f46a08  Ph.....E......j.
 8048fd0 e87bf8ff ff8d7600 5589e583 ec088b4d  .{....v.U......M
 8048fe0 088b550c 8d421450 8d421050 8d420c50  ..U..B.P.B.P.B.P
 8048ff0 8d420850 8d420450 52681b9b 040851e8  .B.P.B.PRh....Q.
 8049000 5cf8ffff 83c42083 f8057f05 e8eb0400  \..... .........
 8049010 0089ec5d c38d7600 5589e58b 550831c0  ...]..v.U...U.1.
 8049020 803a0074 07424080 3a0075f9 89ec5dc3  .:.t.B@.:.u...].
 8049030 5589e583 ec0c5756 538b7508 8b7d0c83  U.....WVS.u..}..
 8049040 c4f456e8 d0ffffff 89c383c4 f457e8c5  ..V..........W..
 8049050 ffffff39 c37409b8 01000000 eb2189f6  ...9.t.......!..
 8049060 89f289f9 803a0074 148db426 00000000  .....:.t...&....
 8049070 8a023a01 75e14241 803a0075 f331c08d  ..:.u.BA.:.u.1..
 8049080 65e85b5e 5f89ec5d c38d7600 5589e583  e.[^_..]..v.U...
 8049090 ec205653 83c4fc6a 006a016a 02e80ef8  . VS...j.j.j....
 80490a0 ffff89c6 83c41085 f67d1783 c4f4682d  .........}....h-
 80490b0 9b0408e8 58f7ffff 83c4f46a 08e88ef7  ....X......j....
 80490c0 ffff83c4 f48b4508 50e862f7 ffff89c3  ......E.P.b.....
 80490d0 83c41085 db751983 c4f4683c 9b0408e8  .....u....h<....
 80490e0 2cf7ffff 83c4f46a 08e862f7 ffff89f6  ,......j..b.....
 80490f0 83c4f86a 108d45f0 50e842f7 ffff66c7  ...j..E.P.B...f.
 8049100 45f00200 83c4fc8b 430c508d 45f4508b  E.......C.P.E.P.
 8049110 43108b00 50e876f6 ffff83c4 208b450c  C...P.v..... .E.
 8049120 66c1c808 668945f2 83c4fc6a 108d45f0  f...f.E....j..E.
 8049130 5056e839 f7ffff83 c41085c0 7d1783c4  PV.9........}...
 8049140 f4684b9b 0408e8c5 f6ffff83 c4f46a08  .hK...........j.
 8049150 e8fbf6ff ff89f08d 65d85b5e 89ec5dc3  ........e.[^..].
 8049160 5589e583 ec0883c4 f868508f 04086a02  U........hP...j.
 8049170 e8fbf5ff ff89ec5d c38d7600 5589e58b  .......]..v.U...
 8049180 5508803a 00741e8b 0d44b604 088d7600  U..:.t...D....v.
 8049190 0fbe0242 f6444101 20750531 c0eb0b90  ...B.DA. u.1....
 80491a0 803a0075 ebb80100 000089ec 5dc389f6  .:.u........]...
 80491b0 5589e583 ec145383 c4fca164 b6040850  U.....S....d...P
 80491c0 6a50a180 b404088d 0480c1e0 040580b6  jP..............
 80491d0 040850e8 f8f5ffff 89c383c4 1085db74  ..P............t
 80491e0 1083c4f4 53e892ff ffff83c4 1085c075  ....S..........u
 80491f0 c689d88b 5de889ec 5dc389f6 5589e583  ....]...]...U...
 8049200 ec1457e8 a8ffffff 85c07553 a164b604  ..W.......uS.d..
 8049210 083b0548 b6040874 3183c4f4 687f9b04  .;.H...t1...h...
 8049220 08e83af5 ffff83c4 1085c074 0a83c4f4  ..:........t....
 8049230 6a00e819 f6ffffa1 48b60408 a364b604  j.......H....d..
 8049240 08e86aff ffff85c0 751583c4 f468609b  ..j.....u....h`.
 8049250 0408e8b9 f5ffffe8 a0020000 83c410a1  ................
 8049260 80b40408 8d0480c1 e0048db8 80b60408  ................
 8049270 b000fcb9 ffffffff f2ae89c8 f7d08d78  ...............x
 8049280 ff83ff4f 751283c4 f4688a9b 0408e87d  ...Ou....h.....}
 8049290 f5ffffe8 64020000 a180b404 088d0480  ....d...........
 80492a0 c1e004c6 84077fb6 04080005 80b60408  ................
 80492b0 ff0580b4 04088b7d e889ec5d c38d7600  .......}...]..v.
 80492c0 5589e583 ec5c5756 5383c4f4 6a00e8bd  U....\WVS...j...
 80492d0 f5ffff89 c783c410 83ffff75 1783c4f4  ...........u....
 80492e0 68a69b04 08e826f5 ffff83c4 f46a08e8  h.....&......j..
 80492f0 5cf5ffff 83c4f46a 00e832f4 ffff83c4  \......j..2.....
 8049300 1083f8ff 751a83c4 f468bb9b 0408e8fd  ....u....h......
 8049310 f4ffff83 c4f46a08 e833f5ff ff8d7600  ......j..3....v.
 8049320 e82bf4ff ff89c685 f6751783 c4f468cf  .+.......u....h.
 8049330 9b0408e8 d8f4ffff 83c4f46a 08e80ef5  ...........j....
 8049340 ffff83c4 f868e59b 040856e8 f0f3ffff  .....h....V.....
 8049350 83c4f868 019c0408 56e8e2f3 ffff83c4  ...h....V.......
 8049360 2083c4f4 6a00e855 f5ffff83 c41085c0   ...j..U........
 8049370 751e8d45 b0c7006e 6f626f83 c00466c7  u..E...nobo...f.
 8049380 006479c6 400200eb 178db426 00000000  .dy.@......&....
 8049390 83c4f850 8d45b050 e833f5ff ff83c410  ...P.E.P.3......
 80493a0 83c4fca1 80b40408 50b8129c 0408837d  ........P......}
 80493b0 08007405 b80a9c04 08508d45 b050a100  ..t......P.E.P..
 80493c0 ae040850 6820ae04 08681b9c 040856e8  ...Ph ...h....V.
 80493d0 6cf3ffff 31d283c4 203b1580 b404087d  l...1... ;.....}
 80493e0 3a83c4fc 8d0492c1 e0040580 b6040850  :..............P
 80493f0 8d5a0153 8d45b050 a100ae04 08506820  .Z.S.E.P.....Ph 
 8049400 ae040868 379c0408 56e832f3 ffff83c4  ...h7...V.2.....
 8049410 2089da3b 1580b404 087cc683 c4f456e8   ..;.....|....V.
 8049420 7cf3ffff 83c4f468 819a0408 68539c04  |......h....hS..
 8049430 0868589c 0408686f 9c040868 c0bc0408  .hX...ho...h....
 8049440 e85bf4ff ff83c430 83c4f468 c0bc0408  .[.....0...h....
 8049450 e85bf3ff ff83c410 85c07417 83c4f468  .[........t....h
 8049460 789c0408 e8a7f3ff ff83c4f4 6a08e8dd  x...........j...
 8049470 f3ffff83 c4f456e8 a4f3ffff 83c41085  ......V.........
 8049480 c0741d83 c4f46893 9c0408e8 80f3ffff  .t....h.........
 8049490 83c4f46a 08e8b6f3 ffff8db6 00000000  ...j............
 80494a0 83c4f457 e8e7f3ff ff83c410 85c07417  ...W..........t.
 80494b0 83c4f468 ad9c0408 e853f3ff ff83c4f4  ...h.....S......
 80494c0 6a08e889 f3ffff83 c4f457e8 60f2ffff  j.........W.`...
 80494d0 83c41085 c0741983 c4f468c9 9c0408e8  .....t....h.....
 80494e0 2cf3ffff 83c4f46a 08e862f3 ffff89f6  ,......j..b.....
 80494f0 8d65985b 5e5f89ec 5dc389f6 5589e583  .e.[^_..]...U...
 8049500 ec0883c4 f468e19c 0408e801 f3ffff83  .....h..........
 8049510 c4f468eb 9c0408e8 f4f2ffff 83c42083  ..h........... .
 8049520 c4f46a08 e827f3ff ff8d7600 5589e583  ..j..'....v.U...
 8049530 ec645383 3d80b404 08067563 8d5db053  .dS.=.....uc.].S
 8049540 8d45ac50 68039d04 086870b7 0408e80d  .E.Ph....hp.....
 8049550 f3ffff83 c41083f8 02753783 c4f86809  .........u7...h.
 8049560 9d040853 e8c7faff ff83c410 85c07522  ...S..........u"
 8049570 83c4f468 209d0408 e893f2ff ff83c4f4  ...h ...........
 8049580 68609d04 08e886f2 ffff83c4 20e856f9  h`.......... .V.
 8049590 ffff83c4 f468a09d 0408e871 f2ffff8b  .....h.....q....
 80495a0 5d9889ec 5dc39090 90909090 90909090  ]...]...........
 80495b0 5589e583 ec1453bb 08b50408 833d08b5  U.....S......=..
 80495c0 0408ff74 0c8b03ff d083c3fc 833bff75  ...t.........;.u
 80495d0 f45b89ec 5dc389f6 5589e583 ec0889ec  .[..]...U.......
 80495e0 5dc39090                             ]...            
Contents of section .fini:
 80495e4 5589e553 e8000000 005b81c3 2b1f0000  U..S.....[..+...
 80495f4 e817f3ff ff8b5dfc c9c3               ......]...      
Contents of section .rodata:
 8049600 03000000 01000200 00000000 00000000  ................
 8049610 00000000 00000000 00000000 00000000  ................
 8049620 72002573 3a204572 726f723a 20436f75  r.%s: Error: Cou
 8049630 6c646e27 74206f70 656e2025 730a0055  ldn't open %s..U
 8049640 73616765 3a202573 205b3c69 6e707574  sage: %s [<input
 8049650 5f66696c 653e5d0a 00000000 00000000  _file>].........
 8049660 57656c63 6f6d6520 74686973 20697320  Welcome this is 
 8049670 6d79206c 6974746c 6520626f 6d622021  my little bomb !
 8049680 21212120 596f7520 68617665 20362073  !!! You have 6 s
 8049690 74616765 73207769 74680a00 00000000  tages with......
 80496a0 6f6e6c79 206f6e65 206c6966 6520676f  only one life go
 80496b0 6f64206c 75636b20 21212048 61766520  od luck !! Have 
 80496c0 61206e69 63652064 6179210a 00000000  a nice day!.....
 80496d0 00000000 00000000 00000000 00000000  ................
 80496e0 50686173 65203120 64656675 7365642e  Phase 1 defused.
 80496f0 20486f77 2061626f 75742074 6865206e   How about the n
 8049700 65787420 6f6e653f 0a000000 00000000  ext one?........
 8049710 00000000 00000000 00000000 00000000  ................
 8049720 54686174 2773206e 756d6265 7220322e  That's number 2.
 8049730 20204b65 65702067 6f696e67 210a0048    Keep going!..H
 8049740 616c6677 61792074 68657265 210a0000  alfway there!...
 8049750 00000000 00000000 00000000 00000000  ................
 8049760 536f2079 6f752067 6f742074 68617420  So you got that 
 8049770 6f6e652e 20205472 79207468 6973206f  one.  Try this o
 8049780 6e652e0a 00000000 00000000 00000000  ne..............
 8049790 00000000 00000000 00000000 00000000  ................
 80497a0 476f6f64 20776f72 6b212020 4f6e2074  Good work!  On t
 80497b0 6f207468 65206e65 78742e2e 2e0a0000  o the next......
 80497c0 5075626c 69632073 7065616b 696e6720  Public speaking 
 80497d0 69732076 65727920 65617379 2e002564  is very easy..%d
 80497e0 20256320 25640000 e08b0408 008c0408   %c %d..........
 80497f0 168c0408 288c0408 408c0408 528c0408  ....(...@...R...
 8049800 648c0408 768c0408 25640067 69616e74  d...v...%d.giant
 8049810 73000000 00000000 00000000 00000000  s...............
 8049820 576f7721 20596f75 27766520 64656675  Wow! You've defu
 8049830 73656420 74686520 73656372 65742073  sed the secret s
 8049840 74616765 210a0000 00000000 00000000  tage!...........
 8049850 00000000 00000000 00000000 00000000  ................
 8049860 77686974 65666973 682e636d 636c2e63  whitefish.cmcl.c
 8049870 732e636d 752e6564 75007761 726d6f75  s.cmu.edu.warmou
 8049880 74682e63 6d636c2e 63732e63 6d752e65  th.cmcl.cs.cmu.e
 8049890 64750077 616c6c65 79652e63 6d636c2e  du.walleye.cmcl.
 80498a0 63732e63 6d752e65 64750073 74757267  cs.cmu.edu.sturg
 80498b0 656f6e2e 636d636c 2e63732e 636d752e  eon.cmcl.cs.cmu.
 80498c0 65647500 73747269 7065722e 636d636c  edu.striper.cmcl
 80498d0 2e63732e 636d752e 65647500 736f636b  .cs.cmu.edu.sock
 80498e0 6579652e 636d636c 2e63732e 636d752e  eye.cmcl.cs.cmu.
 80498f0 65647500 73686565 70736865 61642e63  edu.sheepshead.c
 8049900 6d636c2e 63732e63 6d752e65 64750073  mcl.cs.cmu.edu.s
 8049910 6861642e 636d636c 2e63732e 636d752e  had.cmcl.cs.cmu.
 8049920 65647500 73617567 65722e63 6d636c2e  edu.sauger.cmcl.
 8049930 63732e63 6d752e65 64750073 616c6d6f  cs.cmu.edu.salmo
 8049940 6e2e636d 636c2e63 732e636d 752e6564  n.cmcl.cs.cmu.ed
 8049950 75007075 6d706b69 6e736565 642e636d  u.pumpkinseed.cm
 8049960 636c2e63 732e636d 752e6564 75007069  cl.cs.cmu.edu.pi
 8049970 6b652e63 6d636c2e 63732e63 6d752e65  ke.cmcl.cs.cmu.e
 8049980 64750070 69636b65 72656c2e 636d636c  du.pickerel.cmcl
 8049990 2e63732e 636d752e 65647500 70657263  .cs.cmu.edu.perc
 80499a0 682e636d 636c2e63 732e636d 752e6564  h.cmcl.cs.cmu.ed
 80499b0 75007061 64646c65 66697368 2e636d63  u.paddlefish.cmc
 80499c0 6c2e6373 2e636d75 2e656475 006d7573  l.cs.cmu.edu.mus
 80499d0 6b69652e 636d636c 2e63732e 636d752e  kie.cmcl.cs.cmu.
 80499e0 65647500 6d696e6e 6f772e63 6d636c2e  edu.minnow.cmcl.
 80499f0 63732e63 6d752e65 64750069 6e636f6e  cs.cmu.edu.incon
 8049a00 6e752e63 6d636c2e 63732e63 6d752e65  nu.cmcl.cs.cmu.e
 8049a10 64750067 7261796c 696e672e 636d636c  du.grayling.cmcl
 8049a20 2e63732e 636d752e 65647500 676f6269  .cs.cmu.edu.gobi
 8049a30 2e636d63 6c2e6373 2e636d75 2e656475  .cmcl.cs.cmu.edu
 8049a40 00666c69 65722e63 6d636c2e 63732e63  .flier.cmcl.cs.c
 8049a50 6d752e65 64750063 68756d2e 636d636c  mu.edu.chum.cmcl
 8049a60 2e63732e 636d752e 65647500 63686172  .cs.cmu.edu.char
 8049a70 2e636d63 6c2e6373 2e636d75 2e656475  .cmcl.cs.cmu.edu
 8049a80 00626c75 6567696c 6c2e636d 636c2e63  .bluegill.cmcl.c
 8049a90 732e636d 752e6564 75006261 73732e63  s.cmu.edu.bass.c
 8049aa0 6d636c2e 63732e63 6d752e65 64750000  mcl.cs.cmu.edu..
 8049ab0 00000000 00000000 00000000 00000000  ................
 8049ac0 536f2079 6f752074 68696e6b 20796f75  So you think you
 8049ad0 2063616e 2073746f 70207468 6520626f   can stop the bo
 8049ae0 6d622077 69746820 6374726c 2d632c20  mb with ctrl-c, 
 8049af0 646f2079 6f753f0a 0057656c 6c2e2e2e  do you?..Well...
 8049b00 004f4b2e 203a2d29 0a00496e 76616c69  .OK. :-)..Invali
 8049b10 64207068 61736525 730a0025 64202564  d phase%s..%d %d
 8049b20 20256420 25642025 64202564 00426164   %d %d %d %d.Bad
 8049b30 20686f73 74202831 292e0a00 42616420   host (1)...Bad 
 8049b40 686f7374 20283229 2e0a0042 61642068  host (2)...Bad h
 8049b50 6f737420 2833292e 0a000000 00000000  ost (3).........
 8049b60 4572726f 723a2050 72656d61 74757265  Error: Premature
 8049b70 20454f46 206f6e20 73746469 6e0a0047   EOF on stdin..G
 8049b80 52414445 5f424f4d 42004572 726f723a  RADE_BOMB.Error:
 8049b90 20496e70 7574206c 696e6520 746f6f20   Input line too 
 8049ba0 6c6f6e67 0a004552 524f523a 20647570  long..ERROR: dup
 8049bb0 28302920 6572726f 720a0045 52524f52  (0) error..ERROR
 8049bc0 3a20636c 6f736520 6572726f 720a0045  : close error..E
 8049bd0 52524f52 3a20746d 7066696c 65206572  RROR: tmpfile er
 8049be0 726f720a 00537562 6a656374 3a20426f  ror..Subject: Bo
 8049bf0 6d62206e 6f746966 69636174 696f6e0a  mb notification.
 8049c00 000a006e 6f626f64 79006465 66757365  ...nobody.defuse
 8049c10 64006578 706c6f64 65640062 6f6d622d  d.exploded.bomb-
 8049c20 68656164 65723a25 733a2564 3a25733a  header:%s:%d:%s:
 8049c30 25733a25 640a0062 6f6d622d 73747269  %s:%d..bomb-stri
 8049c40 6e673a25 733a2564 3a25733a 25643a25  ng:%s:%d:%s:%d:%
 8049c50 730a0062 6f6d6200 2f757372 2f736269  s..bomb./usr/sbi
 8049c60 6e2f7365 6e646d61 696c202d 626d0025  n/sendmail -bm.%
 8049c70 73202573 40257300 4552524f 523a206e  s %s@%s.ERROR: n
 8049c80 6f746966 69636174 696f6e20 6572726f  otification erro
 8049c90 720a0045 52524f52 3a206663 6c6f7365  r..ERROR: fclose
 8049ca0 28746d70 29206572 726f720a 00455252  (tmp) error..ERR
 8049cb0 4f523a20 64757028 746d7073 7464696e  OR: dup(tmpstdin
 8049cc0 29206572 726f720a 00455252 4f523a20  ) error..ERROR: 
 8049cd0 636c6f73 6528746d 70737464 696e290a  close(tmpstdin).
 8049ce0 000a424f 4f4d2121 210a0054 68652062  ..BOOM!!!..The b
 8049cf0 6f6d6220 68617320 626c6f77 6e207570  omb has blown up
 8049d00 2e0a0025 64202573 00617573 74696e70  ...%d %s.austinp
 8049d10 6f776572 73000000 00000000 00000000  owers...........
 8049d20 43757273 65732c20 796f7527 76652066  Curses, you've f
 8049d30 6f756e64 20746865 20736563 72657420  ound the secret 
 8049d40 70686173 65210a00 00000000 00000000  phase!..........
 8049d50 00000000 00000000 00000000 00000000  ................
 8049d60 42757420 66696e64 696e6720 69742061  But finding it a
 8049d70 6e642073 6f6c7669 6e672069 74206172  nd solving it ar
 8049d80 65207175 69746520 64696666 6572656e  e quite differen
 8049d90 742e2e2e 0a000000 00000000 00000000  t...............
 8049da0 436f6e67 72617475 6c617469 6f6e7321  Congratulations!
 8049db0 20596f75 27766520 64656675 73656420   You've defused 
 8049dc0 74686520 626f6d62 210a00             the bomb!..     
Contents of section .data:
 804ade0 00000000 14b50408 00000000 00000000  ................
 804adf0 00000000 00000000 00000000 00000000  ................
 804ae00 00000000 00000000 00000000 00000000  ................
 804ae10 00000000 00000000 00000000 00000000  ................
 804ae20 67656e65 72696300 00000000 00000000  generic.........
 804ae30 00000000 00000000 00000000 00000000  ................
 804ae40 00000000 00000000 00000000 00000000  ................
 804ae50 00000000 00000000 00000000 00000000  ................
 804ae60 00000000 00000000 00000000 00000000  ................
 804ae70 00000000 00000000 00000000 00000000  ................
 804ae80 00000000 00000000 00000000 00000000  ................
 804ae90 00000000 00000000 00000000 00000000  ................
 804aea0 00000000 00000000 00000000 00000000  ................
 804aeb0 00000000 00000000 00000000 00000000  ................
 804aec0 00000000 00000000 00000000 00000000  ................
 804aed0 00000000 00000000 00000000 00000000  ................
 804aee0 00000000 00000000 00000000 00000000  ................
 804aef0 00000000 00000000 00000000 00000000  ................
 804af00 00000000 00000000 00000000 00000000  ................
 804af10 00000000 00000000 00000000 00000000  ................
 804af20 00000000 00000000 00000000 00000000  ................
 804af30 00000000 00000000 00000000 00000000  ................
 804af40 00000000 00000000 00000000 00000000  ................
 804af50 00000000 00000000 00000000 00000000  ................
 804af60 00000000 00000000 00000000 00000000  ................
 804af70 00000000 00000000 00000000 00000000  ................
 804af80 00000000 00000000 00000000 00000000  ................
 804af90 00000000 00000000 00000000 00000000  ................
 804afa0 00000000 00000000 00000000 00000000  ................
 804afb0 00000000 00000000 00000000 00000000  ................
 804afc0 00000000 00000000 00000000 00000000  ................
 804afd0 00000000 00000000 00000000 00000000  ................
 804afe0 00000000 00000000 00000000 00000000  ................
 804aff0 00000000 00000000 00000000 00000000  ................
 804b000 00000000 00000000 00000000 00000000  ................
 804b010 00000000 00000000 00000000 00000000  ................
 804b020 00000000 00000000 00000000 00000000  ................
 804b030 00000000 00000000 00000000 00000000  ................
 804b040 00000000 00000000 00000000 00000000  ................
 804b050 00000000 00000000 00000000 00000000  ................
 804b060 00000000 00000000 00000000 00000000  ................
 804b070 00000000 00000000 00000000 00000000  ................
 804b080 00000000 00000000 00000000 00000000  ................
 804b090 00000000 00000000 00000000 00000000  ................
 804b0a0 00000000 00000000 00000000 00000000  ................
 804b0b0 00000000 00000000 00000000 00000000  ................
 804b0c0 00000000 00000000 00000000 00000000  ................
 804b0d0 00000000 00000000 00000000 00000000  ................
 804b0e0 00000000 00000000 00000000 00000000  ................
 804b0f0 00000000 00000000 00000000 00000000  ................
 804b100 00000000 00000000 00000000 00000000  ................
 804b110 00000000 00000000 00000000 00000000  ................
 804b120 00000000 00000000 00000000 00000000  ................
 804b130 00000000 00000000 00000000 00000000  ................
 804b140 00000000 00000000 00000000 00000000  ................
 804b150 00000000 00000000 00000000 00000000  ................
 804b160 00000000 00000000 00000000 00000000  ................
 804b170 00000000 00000000 00000000 00000000  ................
 804b180 00000000 00000000 00000000 00000000  ................
 804b190 00000000 00000000 00000000 00000000  ................
 804b1a0 00000000 00000000 00000000 00000000  ................
 804b1b0 00000000 00000000 00000000 00000000  ................
 804b1c0 00000000 00000000 00000000 00000000  ................
 804b1d0 00000000 00000000 00000000 00000000  ................
 804b1e0 00000000 00000000 00000000 00000000  ................
 804b1f0 00000000 00000000 00000000 00000000  ................
 804b200 00000000 00000000 00000000 00000000  ................
 804b210 00000000 00000000 00000000 00000000  ................
 804b220 69737276 65617768 6f62706e 75746667  isrveawhobpnutfg
 804b230 b0010000 06000000 00000000 d4000000  ................
 804b240 05000000 30b20408 e5030000 04000000  ....0...........
 804b250 3cb20408 2d010000 03000000 48b20408  <...-.......H...
 804b260 d5020000 02000000 54b20408 fd000000  ........T.......
 804b270 01000000 60b20408 e9030000 00000000  ....`...........
 804b280 00000000 2f000000 00000000 00000000  ..../...........
 804b290 14000000 00000000 00000000 07000000  ................
 804b2a0 00000000 00000000 23000000 00000000  ........#.......
 804b2b0 00000000 63000000 00000000 00000000  ....c...........
 804b2c0 01000000 00000000 00000000 28000000  ............(...
 804b2d0 00000000 00000000 6b000000 b4b20408  ........k.......
 804b2e0 78b20408 06000000 c0b20408 9cb20408  x...............
 804b2f0 2d000000 ccb20408 84b20408 16000000  -...............
 804b300 90b20408 a8b20408 32000000 f0b20408  ........2.......
 804b310 d8b20408 08000000 e4b20408 fcb20408  ................
 804b320 24000000 14b30408 08b30408 00000000  $...............
 804b330 00000000 00000000 00000000 00000000  ................
 804b340 9a9a0408 819a0408 6c9a0408 579a0408  ........l...W...
 804b350 419a0408 2c9a0408 139a0408 fb990408  A...,...........
 804b360 e4990408 cd990408 b2990408 9c990408  ................
 804b370 83990408 6e990408 52990408 3b990408  ....n...R...;...
 804b380 24990408 0f990408 f4980408 dc980408  $...............
 804b390 c4980408 ab980408 93980408 7a980408  ............z...
 804b3a0 60980408 00000000 00000000 00000000  `...............
 804b3b0 00000000 00000000 00000000 00000000  ................
 804b3c0 00000000 00000000 00000000 00000000  ................
 804b3d0 00000000 00000000 00000000 00000000  ................
 804b3e0 00000000 00000000 00000000 00000000  ................
 804b3f0 00000000 00000000 00000000 00000000  ................
 804b400 00000000 00000000 00000000 00000000  ................
 804b410 00000000 00000000 00000000 00000000  ................
 804b420 00000000 00000000 00000000 00000000  ................
 804b430 00000000 00000000 00000000 00000000  ................
 804b440 00000000 00000000 00000000 00000000  ................
 804b450 00000000 00000000 00000000 00000000  ................
 804b460 00000000 00000000 00000000 00000000  ................
 804b470 00000000 00000000 00000000 00000000  ................
 804b480 00000000                             ....            
Contents of section .eh_frame:
 804b484 10000000 00000000 0100017c 080c0404  ...........|....
 804b494 88010000 68000000 18000000 b0890408  ....h...........
 804b4a4 6d010000 410e0885 02420d05 4483086a  m...A....B..D..j
 804b4b4 2e10024f 2e004d2e 10552e00 492e1045  ...O..M..U..I..E
 804b4c4 2e004d2e 10482e00 492e1045 2e004d2e  ..M..H..I..E..M.
 804b4d4 10482e00 492e1045 2e004d2e 10482e00  .H..I..E..M..H..
 804b4e4 492e1045 2e004d2e 10482e00 492e1045  I..E..M..H..I..E
 804b4f4 2e004d2e 10482e00 492e1045 2e000000  ..M..H..I..E....
 804b504 00000000                             ....            
Contents of section .ctors:
 804b508 ffffffff 00000000                    ........        
Contents of section .dtors:
 804b510 ffffffff 00000000                    ........        
Contents of section .got:
 804b518 98b50408 00000000 00000000 26870408  ............&...
 804b528 36870408 46870408 56870408 66870408  6...F...V...f...
 804b538 76870408 86870408 96870408 a6870408  v...............
 804b548 b6870408 c6870408 d6870408 e6870408  ................
 804b558 f6870408 06880408 16880408 26880408  ............&...
 804b568 36880408 46880408 56880408 66880408  6...F...V...f...
 804b578 76880408 86880408 96880408 a6880408  v...............
 804b588 b6880408 c6880408 d6880408 00000000  ................
Contents of section .dynamic:
 804b598 01000000 10000000 0c000000 e0860408  ................
 804b5a8 0d000000 e4950408 04000000 28810408  ............(...
 804b5b8 05000000 1c840408 06000000 fc810408  ................
 804b5c8 0a000000 3b010000 0b000000 10000000  ....;...........
 804b5d8 15000000 00000000 03000000 18b50408  ................
 804b5e8 02000000 e0000000 14000000 11000000  ................
 804b5f8 17000000 00860408 11000000 e0850408  ................
 804b608 12000000 20000000 13000000 08000000  .... ...........
 804b618 feffff6f b0850408 ffffff6f 01000000  ...o.......o....
 804b628 f0ffff6f 6c850408 00000000 00000000  ...ol...........
Contents of section .stab:
 0000 01000000 00009b00 4f130000 08000000  ........O.......
 0010 64000000 04890408 01000000 64000000  d...........d...
 0020 04890408 2b000000 3c000000 00000000  ....+...<.......
 0030 3a000000 80000000 00000000 69000000  :...........i...
 0040 80000000 00000000 83000000 80000000  ................
 0050 00000000 b7000000 80000000 00000000  ................
 0060 ef000000 80000000 00000000 2c010000  ............,...
 0070 80000000 00000000 78010000 80000000  ........x.......
 0080 00000000 c4010000 80000000 00000000  ................
 0090 ea010000 80000000 00000000 14020000  ................
 00a0 80000000 00000000 3a020000 80000000  ........:.......
 00b0 00000000 5f020000 80000000 00000000  ...._...........
 00c0 79020000 80000000 00000000 94020000  y...............
 00d0 80000000 00000000 b5020000 80000000  ................
 00e0 00000000 ee020000 80000000 00000000  ................
 00f0 11030000 80000000 00000000 35030000  ............5...
 0100 80000000 00000000 5f030000 80000000  ........_.......
 0110 00000000 73030000 82000000 00000000  ....s...........
 0120 8d030000 82000000 00000000 00000000  ................
 0130 a2000000 00000000 c5030000 82000000  ................
 0140 00000000 da030000 82000000 00000000  ................
 0150 ec030000 82000000 00000000 02040000  ................
 0160 82000000 00000000 19040000 82000000  ................
 0170 00000000 00000000 a2000000 00000000  ................
 0180 00000000 a2000000 00000000 00000000  ................
 0190 a2000000 00000000 2d040000 82000000  ........-.......
 01a0 00000000 00000000 a2000000 00000000  ................
 01b0 6e040000 82000000 00000000 82040000  n...............
 01c0 82000000 1d960000 2d040000 c2000000  ........-.......
 01d0 00000000 95040000 80000000 00000000  ................
 01e0 e4040000 80000000 00000000 19050000  ................
 01f0 80000000 00000000 59050000 80000000  ........Y.......
 0200 00000000 96050000 80000000 00000000  ................
 0210 d0050000 80000000 00000000 06060000  ................
 0220 80000000 00000000 3d060000 80000000  ........=.......
 0230 00000000 74060000 80000000 00000000  ....t...........
 0240 a6060000 82000000 00000000 bb060000  ................
 0250 82000000 283b0000 cf060000 80000000  ....(;..........
 0260 00000000 2d070000 80000000 00000000  ....-...........
 0270 73070000 80000000 00000000 93070000  s...............
 0280 80002400 00000000 00000000 a2000000  ..$.............
 0290 00000000 00000000 a2000000 00000000  ................
 02a0 00000000 a2000000 00000000 00000000  ................
 02b0 a2000000 00000000 00000000 a2000000  ................
 02c0 00000000 00000000 a2000000 00000000  ................
 02d0 00000000 a2000000 00000000 b5070000  ................
 02e0 82000000 42180000 dc070000 82000000  ....B...........
 02f0 da3f0100 2d040000 82000000 d8040000  .?..-...........
 0300 04080000 8000aa00 00000000 00000000  ................
 0310 a2000000 00000000 19080000 80002000  .............. .
 0320 00000000 31080000 80002100 00000000  ....1.....!.....
 0330 49080000 80002200 00000000 5f080000  I....."....._...
 0340 80002300 00000000 76080000 80002500  ..#.....v.....%.
 0350 00000000 8f080000 80002600 00000000  ..........&.....
 0360 a6080000 80003100 00000000 be080000  ......1.........
 0370 80003200 00000000 d7080000 80003300  ..2...........3.
 0380 00000000 ef080000 80003400 00000000  ..........4.....
 0390 09090000 80003500 00000000 22090000  ......5....."...
 03a0 80003600 00000000 3c090000 80003800  ..6.....<.....8.
 03b0 00000000 55090000 80003900 00000000  ....U.....9.....
 03c0 6f090000 80003b00 00000000 92090000  o.....;.........
 03d0 80003d00 00000000 aa090000 80003e00  ..=...........>.
 03e0 00000000 c2090000 80003f00 00000000  ..........?.....
 03f0 da090000 80004000 00000000 f2090000  ......@.........
 0400 80004100 00000000 0b0a0000 80004200  ..A...........B.
 0410 00000000 250a0000 80004300 00000000  ....%.....C.....
 0420 3c0a0000 80004400 00000000 550a0000  <.....D.....U...
 0430 80004500 00000000 6c0a0000 80004600  ..E.....l.....F.
 0440 00000000 850a0000 80004700 00000000  ..........G.....
 0450 9d0a0000 80004800 00000000 b80a0000  ......H.........
 0460 80004900 00000000 cf0a0000 80004e00  ..I...........N.
 0470 00000000 120b0000 80005100 00000000  ..........Q.....
 0480 2b0b0000 80005200 00000000 450b0000  +.....R.....E...
 0490 80005300 00000000 5d0b0000 80005400  ..S.....].....T.
 04a0 00000000 760b0000 80005600 00000000  ....v.....V.....
 04b0 8f0b0000 80005900 00000000 a80b0000  ......Y.........
 04c0 80006f00 00000000 f50b0000 80007200  ..o...........r.
 04d0 00000000 0c0c0000 80007500 00000000  ..........u.....
 04e0 270c0000 80007b00 00000000 410c0000  '.....{.....A...
 04f0 80007c00 00000000 5e0c0000 80007f00  ..|.....^.......
 0500 00000000 7b0c0000 80008000 00000000  ....{...........
 0510 9a0c0000 80008300 00000000 b70c0000  ................
 0520 80008400 00000000 d60c0000 80008700  ................
 0530 00000000 f00c0000 80008a00 00000000  ................
 0540 0b0d0000 80008d00 00000000 270d0000  ............'...
 0550 80008e00 00000000 440d0000 80009100  ........D.......
 0560 00000000 5e0d0000 82000000 554f0100  ....^.......UO..
 0570 920d0000 82000000 880f0000 ba0d0000  ................
 0580 80000000 00000000 00000000 a2000000  ................
 0590 00000000 ee0d0000 80000000 00000000  ................
 05a0 370e0000 80002200 00000000 760e0000  7.....".....v...
 05b0 80000000 00000000 b20e0000 80000000  ................
 05c0 00000000 e80e0000 80000000 00000000  ................
 05d0 1a0f0000 80000000 00000000 530f0000  ............S...
 05e0 80003300 00000000 910f0000 80000000  ..3.............
 05f0 00000000 c90f0000 80003b00 00000000  ..........;.....
 0600 e40f0000 80004200 00000000 1f100000  ......B.........
 0610 80004500 00000000 3c100000 80000000  ..E.....<.......
 0620 00000000 7a100000 80000000 00000000  ....z...........
 0630 a9100000 80005200 00000000 d7100000  ......R.........
 0640 80005900 00000000 17110000 80005d00  ..Y...........].
 0650 00000000 35110000 80000000 00000000  ....5...........
 0660 84110000 80000000 00000000 bf110000  ................
 0670 80000000 00000000 f9110000 80000000  ................
 0680 00000000 15120000 80006b00 00000000  ..........k.....
 0690 37120000 80000000 00000000 77120000  7...........w...
 06a0 80007300 00000000 8f120000 80007800  ..s...........x.
 06b0 00000000 00000000 a2000000 00000000  ................
 06c0 00000000 a2000000 00000000 2d040000  ............-...
 06d0 82000000 110a0000 a8120000 8000ff00  ................
 06e0 00000000 be120000 80001801 00000000  ................
 06f0 00000000 a2000000 00000000 d3120000  ................
 0700 80002300 00000000 ec120000 80002400  ..#...........$.
 0710 00000000 05130000 80002500 00000000  ..........%.....
 0720 1f130000 80002600 00000000 00000000  ......&.........
 0730 a2000000 00000000 39130000 20002200  ........9... .".
 0740 00000000 00000000 64000000 04890408  ........d.......
Contents of section .stabstr:
 0000 00696e69 742e6300 2f757372 2f737263  .init.c./usr/src
 0010 2f62732f 4255494c 442f676c 6962632d  /bs/BUILD/glibc-
 0020 322e312e 332f6373 752f0067 6363325f  2.1.3/csu/.gcc2_
 0030 636f6d70 696c6564 2e00696e 743a7428  compiled..int:t(
 0040 302c3129 3d722830 2c31293b 30303230  0,1)=r(0,1);0020
 0050 30303030 30303030 303b3030 31373737  000000000;001777
 0060 37373737 3737373b 00636861 723a7428  7777777;.char:t(
 0070 302c3229 3d722830 2c32293b 303b3132  0,2)=r(0,2);0;12
 0080 373b006c 6f6e6720 696e743a 7428302c  7;.long int:t(0,
 0090 33293d72 28302c31 293b3030 32303030  3)=r(0,1);002000
 00a0 30303030 3030303b 30303137 37373737  0000000;00177777
 00b0 37373737 373b0075 6e736967 6e656420  77777;.unsigned 
 00c0 696e743a 7428302c 34293d72 28302c31  int:t(0,4)=r(0,1
 00d0 293b3030 30303030 30303030 3030303b  );0000000000000;
 00e0 30303337 37373737 37373737 373b006c  0037777777777;.l
 00f0 6f6e6720 756e7369 676e6564 20696e74  ong unsigned int
 0100 3a742830 2c35293d 7228302c 31293b30  :t(0,5)=r(0,1);0
 0110 30303030 30303030 30303030 3b303033  000000000000;003
 0120 37373737 37373737 37373b00 6c6f6e67  7777777777;.long
 0130 206c6f6e 6720696e 743a7428 302c3629   long int:t(0,6)
 0140 3d722830 2c31293b 30313030 30303030  =r(0,1);01000000
 0150 30303030 30303030 30303030 3030303b  000000000000000;
 0160 30373737 37373737 37373737 37373737  0777777777777777
 0170 37373737 37373b00 6c6f6e67 206c6f6e  777777;.long lon
 0180 6720756e 7369676e 65642069 6e743a74  g unsigned int:t
 0190 28302c37 293d7228 302c3129 3b303030  (0,7)=r(0,1);000
 01a0 30303030 30303030 30303b30 31373737  0000000000;01777
 01b0 37373737 37373737 37373737 37373737  7777777777777777
 01c0 37373b00 73686f72 7420696e 743a7428  77;.short int:t(
 01d0 302c3829 3d722830 2c38293b 2d333237  0,8)=r(0,8);-327
 01e0 36383b33 32373637 3b007368 6f727420  68;32767;.short 
 01f0 756e7369 676e6564 20696e74 3a742830  unsigned int:t(0
 0200 2c39293d 7228302c 39293b30 3b363535  ,9)=r(0,9);0;655
 0210 33353b00 7369676e 65642063 6861723a  35;.signed char:
 0220 7428302c 3130293d 7228302c 3130293b  t(0,10)=r(0,10);
 0230 2d313238 3b313237 3b00756e 7369676e  -128;127;.unsign
 0240 65642063 6861723a 7428302c 3131293d  ed char:t(0,11)=
 0250 7228302c 3131293b 303b3235 353b0066  r(0,11);0;255;.f
 0260 6c6f6174 3a742830 2c313229 3d722830  loat:t(0,12)=r(0
 0270 2c31293b 343b303b 00646f75 626c653a  ,1);4;0;.double:
 0280 7428302c 3133293d 7228302c 31293b38  t(0,13)=r(0,1);8
 0290 3b303b00 6c6f6e67 20646f75 626c653a  ;0;.long double:
 02a0 7428302c 3134293d 7228302c 31293b31  t(0,14)=r(0,1);1
 02b0 323b303b 00636f6d 706c6578 20696e74  2;0;.complex int
 02c0 3a742830 2c313529 3d733872 65616c3a  :t(0,15)=s8real:
 02d0 28302c31 292c302c 33323b69 6d61673a  (0,1),0,32;imag:
 02e0 28302c31 292c3332 2c33323b 3b00636f  (0,1),32,32;;.co
 02f0 6d706c65 7820666c 6f61743a 7428302c  mplex float:t(0,
 0300 3136293d 7228302c 3136293b 343b303b  16)=r(0,16);4;0;
 0310 00636f6d 706c6578 20646f75 626c653a  .complex double:
 0320 7428302c 3137293d 7228302c 3137293b  t(0,17)=r(0,17);
 0330 383b303b 00636f6d 706c6578 206c6f6e  8;0;.complex lon
 0340 6720646f 75626c65 3a742830 2c313829  g double:t(0,18)
 0350 3d722830 2c313829 3b31323b 303b0076  =r(0,18);12;0;.v
 0360 6f69643a 7428302c 3139293d 28302c31  oid:t(0,19)=(0,1
 0370 3929002e 2e2f696e 636c7564 652f6c69  9).../include/li
 0380 62632d73 796d626f 6c732e68 002f7573  bc-symbols.h./us
 0390 722f7372 632f6273 2f425549 4c442f67  r/src/bs/BUILD/g
 03a0 6c696263 2d322e31 2e332f62 75696c64  libc-2.1.3/build
 03b0 2d693338 362d6c69 6e75782f 636f6e66  -i386-linux/conf
 03c0 69672e68 002e2e2f 696e636c 7564652f  ig.h.../include/
 03d0 6c696269 6e746c2e 68002e2e 2f696e74  libintl.h.../int
 03e0 6c2f6c69 62696e74 6c2e6800 2e2e2f69  l/libintl.h.../i
 03f0 6e636c75 64652f66 65617475 7265732e  nclude/features.
 0400 68002e2e 2f696e63 6c756465 2f737973  h.../include/sys
 0410 2f636465 66732e68 002e2e2f 6d697363  /cdefs.h.../misc
 0420 2f737973 2f636465 66732e68 002f7573  /sys/cdefs.h./us
 0430 722f6c69 622f6763 632d6c69 622f6933  r/lib/gcc-lib/i3
 0440 38362d72 65646861 742d6c69 6e75782f  86-redhat-linux/
 0450 65676373 2d322e39 312e3636 2f696e63  egcs-2.91.66/inc
 0460 6c756465 2f737464 6465662e 68002e2e  lude/stddef.h...
 0470 2f696e63 6c756465 2f6c6f63 616c652e  /include/locale.
 0480 68002e2e 2f6c6f63 616c652f 6c6f6361  h.../locale/loca
 0490 6c652e68 006c636f 6e763a54 2831302c  le.h.lconv:T(10,
 04a0 31293d73 34386465 63696d61 6c5f706f  1)=s48decimal_po
 04b0 696e743a 2831302c 32293d2a 28302c32  int:(10,2)=*(0,2
 04c0 292c302c 33323b74 686f7573 616e6473  ),0,32;thousands
 04d0 5f736570 3a283130 2c32292c 33322c33  _sep:(10,2),32,3
 04e0 323b5c00 67726f75 70696e67 3a283130  2;\.grouping:(10
 04f0 2c32292c 36342c33 323b696e 745f6375  ,2),64,32;int_cu
 0500 72725f73 796d626f 6c3a2831 302c3229  rr_symbol:(10,2)
 0510 2c39362c 33323b5c 00637572 72656e63  ,96,32;\.currenc
 0520 795f7379 6d626f6c 3a283130 2c32292c  y_symbol:(10,2),
 0530 3132382c 33323b6d 6f6e5f64 6563696d  128,32;mon_decim
 0540 616c5f70 6f696e74 3a283130 2c32292c  al_point:(10,2),
 0550 3136302c 33323b5c 006d6f6e 5f74686f  160,32;\.mon_tho
 0560 7573616e 64735f73 65703a28 31302c32  usands_sep:(10,2
 0570 292c3139 322c3332 3b6d6f6e 5f67726f  ),192,32;mon_gro
 0580 7570696e 673a2831 302c3229 2c323234  uping:(10,2),224
 0590 2c33323b 5c00706f 73697469 76655f73  ,32;\.positive_s
 05a0 69676e3a 2831302c 32292c32 35362c33  ign:(10,2),256,3
 05b0 323b6e65 67617469 76655f73 69676e3a  2;negative_sign:
 05c0 2831302c 32292c32 38382c33 323b5c00  (10,2),288,32;\.
 05d0 696e745f 66726163 5f646967 6974733a  int_frac_digits:
 05e0 28302c32 292c3332 302c383b 66726163  (0,2),320,8;frac
 05f0 5f646967 6974733a 28302c32 292c3332  _digits:(0,2),32
 0600 382c383b 5c00705f 63735f70 72656365  8,8;\.p_cs_prece
 0610 6465733a 28302c32 292c3333 362c383b  des:(0,2),336,8;
 0620 705f7365 705f6279 5f737061 63653a28  p_sep_by_space:(
 0630 302c3229 2c333434 2c383b5c 006e5f63  0,2),344,8;\.n_c
 0640 735f7072 65636564 65733a28 302c3229  s_precedes:(0,2)
 0650 2c333532 2c383b6e 5f736570 5f62795f  ,352,8;n_sep_by_
 0660 73706163 653a2830 2c32292c 3336302c  space:(0,2),360,
 0670 383b5c00 705f7369 676e5f70 6f736e3a  8;\.p_sign_posn:
 0680 28302c32 292c3336 382c383b 6e5f7369  (0,2),368,8;n_si
 0690 676e5f70 6f736e3a 28302c32 292c3337  gn_posn:(0,2),37
 06a0 362c383b 3b002e2e 2f696e63 6c756465  6,8;;.../include
 06b0 2f786c6f 63616c65 2e68002e 2e2f6c6f  /xlocale.h.../lo
 06c0 63616c65 2f786c6f 63616c65 2e68005f  cale/xlocale.h._
 06d0 5f6c6f63 616c655f 73747275 63743a54  _locale_struct:T
 06e0 2831332c 31293d73 33365f5f 6c6f6361  (13,1)=s36__loca
 06f0 6c65733a 2831332c 32293d61 7228302c  les:(13,2)=ar(0,
 0700 31293b30 3b353b28 31332c33 293d2a28  1);0;5;(13,3)=*(
 0710 31332c34 293d7873 6c6f6361 6c655f64  13,4)=xslocale_d
 0720 6174613a 2c302c31 39323b5c 005f5f63  ata:,0,192;\.__c
 0730 74797065 5f623a28 31332c35 293d2a28  type_b:(13,5)=*(
 0740 302c3929 2c313932 2c33323b 5f5f6374  0,9),192,32;__ct
 0750 7970655f 746f6c6f 7765723a 2831332c  ype_tolower:(13,
 0760 36293d2a 28302c31 292c3232 342c3332  6)=*(0,1),224,32
 0770 3b5c005f 5f637479 70655f74 6f757070  ;\.__ctype_toupp
 0780 65723a28 31332c36 292c3235 362c3332  er:(13,6),256,32
 0790 3b3b005f 5f6c6f63 616c655f 743a7428  ;;.__locale_t:t(
 07a0 31332c37 293d2831 332c3829 3d2a2831  13,7)=(13,8)=*(1
 07b0 332c3129 002e2e2f 73797364 6570732f  3,1).../sysdeps/
 07c0 756e6978 2f737973 762f6c69 6e75782f  unix/sysv/linux/
 07d0 5f475f63 6f6e6669 672e6800 2e2e2f73  _G_config.h.../s
 07e0 79736465 70732f75 6e69782f 73797376  ysdeps/unix/sysv
 07f0 2f6c696e 75782f62 6974732f 74797065  /linux/bits/type
 0800 732e6800 73697a65 5f743a74 2831362c  s.h.size_t:t(16,
 0810 31293d28 302c3429 005f5f75 5f636861  1)=(0,4).__u_cha
 0820 723a7428 31352c31 293d2830 2c313129  r:t(15,1)=(0,11)
 0830 005f5f75 5f73686f 72743a74 2831352c  .__u_short:t(15,
 0840 32293d28 302c3929 005f5f75 5f696e74  2)=(0,9).__u_int
 0850 3a742831 352c3329 3d28302c 3429005f  :t(15,3)=(0,4)._
 0860 5f755f6c 6f6e673a 74283135 2c34293d  _u_long:t(15,4)=
 0870 28302c35 29005f5f 755f7175 61645f74  (0,5).__u_quad_t
 0880 3a742831 352c3529 3d28302c 3729005f  :t(15,5)=(0,7)._
 0890 5f717561 645f743a 74283135 2c36293d  _quad_t:t(15,6)=
 08a0 28302c36 29005f5f 696e7438 5f743a74  (0,6).__int8_t:t
 08b0 2831352c 37293d28 302c3130 29005f5f  (15,7)=(0,10).__
 08c0 75696e74 385f743a 74283135 2c38293d  uint8_t:t(15,8)=
 08d0 28302c31 3129005f 5f696e74 31365f74  (0,11).__int16_t
 08e0 3a742831 352c3929 3d28302c 3829005f  :t(15,9)=(0,8)._
 08f0 5f75696e 7431365f 743a7428 31352c31  _uint16_t:t(15,1
 0900 30293d28 302c3929 005f5f69 6e743332  0)=(0,9).__int32
 0910 5f743a74 2831352c 3131293d 28302c31  _t:t(15,11)=(0,1
 0920 29005f5f 75696e74 33325f74 3a742831  ).__uint32_t:t(1
 0930 352c3132 293d2830 2c342900 5f5f696e  5,12)=(0,4).__in
 0940 7436345f 743a7428 31352c31 33293d28  t64_t:t(15,13)=(
 0950 302c3629 005f5f75 696e7436 345f743a  0,6).__uint64_t:
 0960 74283135 2c313429 3d28302c 3729005f  t(15,14)=(0,7)._
 0970 5f716164 64725f74 3a742831 352c3135  _qaddr_t:t(15,15
 0980 293d2831 352c3136 293d2a28 31352c36  )=(15,16)=*(15,6
 0990 29005f5f 6465765f 743a7428 31352c31  ).__dev_t:t(15,1
 09a0 37293d28 31352c35 29005f5f 7569645f  7)=(15,5).__uid_
 09b0 743a7428 31352c31 38293d28 31352c33  t:t(15,18)=(15,3
 09c0 29005f5f 6769645f 743a7428 31352c31  ).__gid_t:t(15,1
 09d0 39293d28 31352c33 29005f5f 696e6f5f  9)=(15,3).__ino_
 09e0 743a7428 31352c32 30293d28 31352c34  t:t(15,20)=(15,4
 09f0 29005f5f 6d6f6465 5f743a74 2831352c  ).__mode_t:t(15,
 0a00 3231293d 2831352c 3329005f 5f6e6c69  21)=(15,3).__nli
 0a10 6e6b5f74 3a742831 352c3232 293d2831  nk_t:t(15,22)=(1
 0a20 352c3329 005f5f6f 66665f74 3a742831  5,3).__off_t:t(1
 0a30 352c3233 293d2830 2c332900 5f5f6c6f  5,23)=(0,3).__lo
 0a40 66665f74 3a742831 352c3234 293d2831  ff_t:t(15,24)=(1
 0a50 352c3629 005f5f70 69645f74 3a742831  5,6).__pid_t:t(1
 0a60 352c3235 293d2830 2c312900 5f5f7373  5,25)=(0,1).__ss
 0a70 697a655f 743a7428 31352c32 36293d28  ize_t:t(15,26)=(
 0a80 302c3129 005f5f72 6c696d5f 743a7428  0,1).__rlim_t:t(
 0a90 31352c32 37293d28 302c3329 005f5f72  15,27)=(0,3).__r
 0aa0 6c696d36 345f743a 74283135 2c323829  lim64_t:t(15,28)
 0ab0 3d283135 2c362900 5f5f6964 5f743a74  =(15,6).__id_t:t
 0ac0 2831352c 3239293d 2831352c 3329005f  (15,29)=(15,3)._
 0ad0 5f667369 645f743a 74283135 2c333029  _fsid_t:t(15,30)
 0ae0 3d283135 2c333129 3d73385f 5f76616c  =(15,31)=s8__val
 0af0 3a283135 2c333229 3d617228 302c3129  :(15,32)=ar(0,1)
 0b00 3b303b31 3b28302c 31292c30 2c36343b  ;0;1;(0,1),0,64;
 0b10 3b005f5f 64616464 725f743a 74283135  ;.__daddr_t:t(15
 0b20 2c333329 3d28302c 3129005f 5f636164  ,33)=(0,1).__cad
 0b30 64725f74 3a742831 352c3334 293d2831  dr_t:t(15,34)=(1
 0b40 302c3229 005f5f74 696d655f 743a7428  0,2).__time_t:t(
 0b50 31352c33 35293d28 302c3329 005f5f73  15,35)=(0,3).__s
 0b60 77626c6b 5f743a74 2831352c 3336293d  wblk_t:t(15,36)=
 0b70 28302c33 29005f5f 636c6f63 6b5f743a  (0,3).__clock_t:
 0b80 74283135 2c333729 3d28302c 3329005f  t(15,37)=(0,3)._
 0b90 5f66645f 6d61736b 3a742831 352c3338  _fd_mask:t(15,38
 0ba0 293d2830 2c352900 5f5f6664 5f736574  )=(0,5).__fd_set
 0bb0 3a742831 352c3339 293d2831 352c3430  :t(15,39)=(15,40
 0bc0 293d7331 32386664 735f6269 74733a28  )=s128fds_bits:(
 0bd0 31352c34 31293d61 7228302c 31293b30  15,41)=ar(0,1);0
 0be0 3b33313b 2831352c 3338292c 302c3130  ;31;(15,38),0,10
 0bf0 32343b3b 005f5f6b 65795f74 3a742831  24;;.__key_t:t(1
 0c00 352c3432 293d2830 2c312900 5f5f6970  5,42)=(0,1).__ip
 0c10 635f7069 645f743a 74283135 2c343329  c_pid_t:t(15,43)
 0c20 3d28302c 3929005f 5f626c6b 636e745f  =(0,9).__blkcnt_
 0c30 743a7428 31352c34 34293d28 302c3329  t:t(15,44)=(0,3)
 0c40 005f5f62 6c6b636e 7436345f 743a7428  .__blkcnt64_t:t(
 0c50 31352c34 35293d28 31352c36 29005f5f  15,45)=(15,6).__
 0c60 6673626c 6b636e74 5f743a74 2831352c  fsblkcnt_t:t(15,
 0c70 3436293d 2831352c 3429005f 5f667362  46)=(15,4).__fsb
 0c80 6c6b636e 7436345f 743a7428 31352c34  lkcnt64_t:t(15,4
 0c90 37293d28 31352c35 29005f5f 66736669  7)=(15,5).__fsfi
 0ca0 6c636e74 5f743a74 2831352c 3438293d  lcnt_t:t(15,48)=
 0cb0 2831352c 3429005f 5f667366 696c636e  (15,4).__fsfilcn
 0cc0 7436345f 743a7428 31352c34 39293d28  t64_t:t(15,49)=(
 0cd0 31352c35 29005f5f 696e6f36 345f743a  15,5).__ino64_t:
 0ce0 74283135 2c353029 3d283135 2c342900  t(15,50)=(15,4).
 0cf0 5f5f6f66 6636345f 743a7428 31352c35  __off64_t:t(15,5
 0d00 31293d28 31352c32 3429005f 5f745f73  1)=(15,24).__t_s
 0d10 63616c61 725f743a 74283135 2c353229  calar_t:t(15,52)
 0d20 3d28302c 3329005f 5f745f75 7363616c  =(0,3).__t_uscal
 0d30 61725f74 3a742831 352c3533 293d2830  ar_t:t(15,53)=(0
 0d40 2c352900 5f5f696e 74707472 5f743a74  ,5).__intptr_t:t
 0d50 2831352c 3534293d 28302c31 29002e2e  (15,54)=(0,1)...
 0d60 2f6c696e 75787468 72656164 732f7379  /linuxthreads/sy
 0d70 73646570 732f7074 68726561 642f6269  sdeps/pthread/bi
 0d80 74732f70 74687265 61647479 7065732e  ts/pthreadtypes.
 0d90 68002e2e 2f737973 64657073 2f756e69  h.../sysdeps/uni
 0da0 782f7379 73762f6c 696e7578 2f626974  x/sysv/linux/bit
 0db0 732f7363 6865642e 68005f5f 73636865  s/sched.h.__sche
 0dc0 645f7061 72616d3a 54283138 2c31293d  d_param:T(18,1)=
 0dd0 73347363 6865645f 7072696f 72697479  s4sched_priority
 0de0 3a28302c 31292c30 2c33323b 3b005f70  :(0,1),0,32;;._p
 0df0 74687265 61645f66 6173746c 6f636b3a  thread_fastlock:
 0e00 54283137 2c31293d 73385f5f 73746174  T(17,1)=s8__stat
 0e10 75733a28 302c3329 2c302c33 323b5f5f  us:(0,3),0,32;__
 0e20 7370696e 6c6f636b 3a28302c 31292c33  spinlock:(0,1),3
 0e30 322c3332 3b3b005f 70746872 6561645f  2,32;;._pthread_
 0e40 64657363 723a7428 31372c32 293d2831  descr:t(17,2)=(1
 0e50 372c3329 3d2a2831 372c3429 3d78735f  7,3)=*(17,4)=xs_
 0e60 70746872 6561645f 64657363 725f7374  pthread_descr_st
 0e70 72756374 3a007074 68726561 645f6174  ruct:.pthread_at
 0e80 74725f74 3a742831 372c3529 3d283137  tr_t:t(17,5)=(17
 0e90 2c36293d 7333365f 5f646574 61636873  ,6)=s36__detachs
 0ea0 74617465 3a28302c 31292c30 2c33323b  tate:(0,1),0,32;
 0eb0 5c005f5f 73636865 64706f6c 6963793a  \.__schedpolicy:
 0ec0 28302c31 292c3332 2c33323b 5f5f7363  (0,1),32,32;__sc
 0ed0 68656470 6172616d 3a283138 2c31292c  hedparam:(18,1),
 0ee0 36342c33 323b5c00 5f5f696e 68657269  64,32;\.__inheri
 0ef0 74736368 65643a28 302c3129 2c39362c  tsched:(0,1),96,
 0f00 33323b5f 5f73636f 70653a28 302c3129  32;__scope:(0,1)
 0f10 2c313238 2c33323b 5c005f5f 67756172  ,128,32;\.__guar
 0f20 6473697a 653a2831 362c3129 2c313630  dsize:(16,1),160
 0f30 2c33323b 5f5f7374 61636b61 6464725f  ,32;__stackaddr_
 0f40 7365743a 28302c31 292c3139 322c3332  set:(0,1),192,32
 0f50 3b5c005f 5f737461 636b6164 64723a28  ;\.__stackaddr:(
 0f60 31372c37 293d2a28 302c3139 292c3232  17,7)=*(0,19),22
 0f70 342c3332 3b5f5f73 7461636b 73697a65  4,32;__stacksize
 0f80 3a283136 2c31292c 3235362c 33323b3b  :(16,1),256,32;;
 0f90 00707468 72656164 5f636f6e 645f743a  .pthread_cond_t:
 0fa0 74283137 2c38293d 2831372c 39293d73  t(17,8)=(17,9)=s
 0fb0 31325f5f 635f6c6f 636b3a28 31372c31  12__c_lock:(17,1
 0fc0 292c302c 36343b5c 005f5f63 5f776169  ),0,64;\.__c_wai
 0fd0 74696e67 3a283137 2c32292c 36342c33  ting:(17,2),64,3
 0fe0 323b3b00 70746872 6561645f 636f6e64  2;;.pthread_cond
 0ff0 61747472 5f743a74 2831372c 3130293d  attr_t:t(17,10)=
 1000 2831372c 3131293d 73345f5f 64756d6d  (17,11)=s4__dumm
 1010 793a2830 2c31292c 302c3332 3b3b0070  y:(0,1),0,32;;.p
 1020 74687265 61645f6b 65795f74 3a742831  thread_key_t:t(1
 1030 372c3132 293d2830 2c342900 70746872  7,12)=(0,4).pthr
 1040 6561645f 6d757465 785f743a 74283137  ead_mutex_t:t(17
 1050 2c313329 3d283137 2c313429 3d733234  ,13)=(17,14)=s24
 1060 5f5f6d5f 72657365 72766564 3a28302c  __m_reserved:(0,
 1070 31292c30 2c33323b 5c005f5f 6d5f636f  1),0,32;\.__m_co
 1080 756e743a 28302c31 292c3332 2c33323b  unt:(0,1),32,32;
 1090 5f5f6d5f 6f776e65 723a2831 372c3229  __m_owner:(17,2)
 10a0 2c36342c 33323b5c 005f5f6d 5f6b696e  ,64,32;\.__m_kin
 10b0 643a2830 2c31292c 39362c33 323b5f5f  d:(0,1),96,32;__
 10c0 6d5f6c6f 636b3a28 31372c31 292c3132  m_lock:(17,1),12
 10d0 382c3634 3b3b0070 74687265 61645f6d  8,64;;.pthread_m
 10e0 75746578 61747472 5f743a74 2831372c  utexattr_t:t(17,
 10f0 3135293d 2831372c 3136293d 73345f5f  15)=(17,16)=s4__
 1100 6d757465 786b696e 643a2830 2c31292c  mutexkind:(0,1),
 1110 302c3332 3b3b0070 74687265 61645f6f  0,32;;.pthread_o
 1120 6e63655f 743a7428 31372c31 37293d28  nce_t:t(17,17)=(
 1130 302c3129 005f7074 68726561 645f7277  0,1)._pthread_rw
 1140 6c6f636b 5f743a54 2831372c 3138293d  lock_t:T(17,18)=
 1150 7333325f 5f72775f 6c6f636b 3a283137  s32__rw_lock:(17
 1160 2c31292c 302c3634 3b5f5f72 775f7265  ,1),0,64;__rw_re
 1170 61646572 733a2830 2c31292c 36342c33  aders:(0,1),64,3
 1180 323b5c00 5f5f7277 5f777269 7465723a  2;\.__rw_writer:
 1190 2831372c 32292c39 362c3332 3b5f5f72  (17,2),96,32;__r
 11a0 775f7265 61645f77 61697469 6e673a28  w_read_waiting:(
 11b0 31372c32 292c3132 382c3332 3b5c005f  17,2),128,32;\._
 11c0 5f72775f 77726974 655f7761 6974696e  _rw_write_waitin
 11d0 673a2831 372c3229 2c313630 2c33323b  g:(17,2),160,32;
 11e0 5f5f7277 5f6b696e 643a2830 2c31292c  __rw_kind:(0,1),
 11f0 3139322c 33323b5c 005f5f72 775f7073  192,32;\.__rw_ps
 1200 68617265 643a2830 2c31292c 3232342c  hared:(0,1),224,
 1210 33323b3b 00707468 72656164 5f72776c  32;;.pthread_rwl
 1220 6f636b5f 743a7428 31372c31 39293d28  ock_t:t(17,19)=(
 1230 31372c31 38290070 74687265 61645f72  17,18).pthread_r
 1240 776c6f63 6b617474 725f743a 74283137  wlockattr_t:t(17
 1250 2c323029 3d283137 2c323129 3d73385f  ,20)=(17,21)=s8_
 1260 5f6c6f63 6b6b696e 643a2830 2c31292c  _lockkind:(0,1),
 1270 302c3332 3b5c005f 5f707368 61726564  0,32;\.__pshared
 1280 3a28302c 31292c33 322c3332 3b3b0070  :(0,1),32,32;;.p
 1290 74687265 61645f74 3a742831 372c3232  thread_t:t(17,22
 12a0 293d2830 2c352900 77636861 725f743a  )=(0,5).wchar_t:
 12b0 74283139 2c31293d 28302c33 29007769  t(19,1)=(0,3).wi
 12c0 6e745f74 3a742831 392c3229 3d28302c  nt_t:t(19,2)=(0,
 12d0 3429005f 475f696e 7431365f 743a7428  4)._G_int16_t:t(
 12e0 31342c31 293d2830 2c382900 5f475f69  14,1)=(0,8)._G_i
 12f0 6e743332 5f743a74 2831342c 32293d28  nt32_t:t(14,2)=(
 1300 302c3129 005f475f 75696e74 31365f74  0,1)._G_uint16_t
 1310 3a742831 342c3329 3d28302c 3929005f  :t(14,3)=(0,9)._
 1320 475f7569 6e743332 5f743a74 2831342c  G_uint32_t:t(14,
 1330 34293d28 302c3429 005f494f 5f737464  4)=(0,4)._IO_std
 1340 696e5f75 7365643a 4728302c 312900    in_used:G(0,1). 
Contents of section .comment:
 0000 00474343 3a202847 4e552920 65676373  .GCC: (GNU) egcs
 0010 2d322e39 312e3636 20313939 39303331  -2.91.66 1999031
 0020 342f4c69 6e757820 28656763 732d312e  4/Linux (egcs-1.
 0030 312e3220 72656c65 61736529 00004743  1.2 release)..GC
 0040 433a2028 474e5529 20656763 732d322e  C: (GNU) egcs-2.
 0050 39312e36 36203139 39393033 31342f4c  91.66 19990314/L
 0060 696e7578 20286567 63732d31 2e312e32  inux (egcs-1.1.2
 0070 2072656c 65617365 29000047 43433a20   release)..GCC: 
 0080 28474e55 2920322e 39352e33 20323030  (GNU) 2.95.3 200
 0090 31303331 35202872 656c6561 73652900  10315 (release).
 00a0 00474343 3a202847 4e552920 322e3935  .GCC: (GNU) 2.95
 00b0 2e332032 30303130 33313520 2872656c  .3 20010315 (rel
 00c0 65617365 29000047 43433a20 28474e55  ease)..GCC: (GNU
 00d0 2920322e 39352e33 20323030 31303331  ) 2.95.3 2001031
 00e0 35202872 656c6561 73652900 00474343  5 (release)..GCC
 00f0 3a202847 4e552920 322e3935 2e332032  : (GNU) 2.95.3 2
 0100 30303130 33313520 2872656c 65617365  0010315 (release
 0110 29000047 43433a20 28474e55 2920322e  )..GCC: (GNU) 2.
 0120 39352e33 20323030 31303331 35202872  95.3 20010315 (r
 0130 656c6561 73652900 00474343 3a202847  elease)..GCC: (G
 0140 4e552920 65676373 2d322e39 312e3636  NU) egcs-2.91.66
 0150 20313939 39303331 342f4c69 6e757820   19990314/Linux 
 0160 28656763 732d312e 312e3220 72656c65  (egcs-1.1.2 rele
 0170 61736529 00                          ase).           
Contents of section .debug_aranges:
 0000 1c000000 02000000 00000400 04000000  ................
 0010 b0890408 6d010000 00000000 00000000  ....m...........
Contents of section .debug_pubnames:
 0000 22000000 02000000 0000630b 0000cc04  ".........c.....
 0010 00006d61 696e004d 0b000069 6e66696c  ..main.M...infil
 0020 65000000 0000                        e.....          
Contents of section .debug_info:
 0000 5f0b0000 02000000 00000401 626f6d62  _...........bomb
 0010 2e63002f 75737230 2f64726f 682f3231  .c./usr0/droh/21
 0020 332f7072 69766174 652f4c32 2f737263  3/private/L2/src
 0030 00474e55 20432032 2e39352e 33203230  .GNU C 2.95.3 20
 0040 30313033 31352028 72656c65 61736529  010315 (release)
 0050 0001b089 04081d8b 04080000 0000028f  ................
 0060 00000001 76707269 6e746600 0122018f  ....vprintf.."..
 0070 00000003 035f5f66 6d740001 21960000  .....__fmt..!...
 0080 00035f5f 61726700 0121a900 00000004  ..__arg..!......
 0090 696e7400 04050504 9c000000 06a10000  int.............
 00a0 00046368 61720001 06070408 01676574  ..char.......get
 00b0 63686172 00012901 8f000000 0302e600  char..).........
 00c0 00000167 6574635f 756e6c6f 636b6564  ...getc_unlocked
 00d0 00013201 8f000000 03035f5f 66700001  ..2.......__fp..
 00e0 31e50200 000009e5 0200005f 494f5f46  1.........._IO_F
 00f0 494c4500 9402300a 5f666c61 67730003  ILE...0._flags..
 0100 be8f0000 00022300 0a5f494f 5f726561  ......#.._IO_rea
 0110 645f7074 720003c3 eb020000 0223040a  d_ptr........#..
 0120 5f494f5f 72656164 5f656e64 0003c4eb  _IO_read_end....
 0130 02000002 23080a5f 494f5f72 6561645f  ....#.._IO_read_
 0140 62617365 0003c5eb 02000002 230c0a5f  base........#.._
 0150 494f5f77 72697465 5f626173 650003c6  IO_write_base...
 0160 eb020000 0223100a 5f494f5f 77726974  .....#.._IO_writ
 0170 655f7074 720003c7 eb020000 0223140a  e_ptr........#..
 0180 5f494f5f 77726974 655f656e 640003c8  _IO_write_end...
 0190 eb020000 0223180a 5f494f5f 6275665f  .....#.._IO_buf_
 01a0 62617365 0003c9eb 02000002 231c0a5f  base........#.._
 01b0 494f5f62 75665f65 6e640003 caeb0200  IO_buf_end......
 01c0 00022320 0a5f494f 5f736176 655f6261  ..# ._IO_save_ba
 01d0 73650003 cceb0200 00022324 0a5f494f  se........#$._IO
 01e0 5f626163 6b75705f 62617365 0003cdeb  _backup_base....
 01f0 02000002 23280a5f 494f5f73 6176655f  ....#(._IO_save_
 0200 656e6400 03ceeb02 00000223 2c0a5f6d  end........#,._m
 0210 61726b65 72730003 d0340300 00022330  arkers...4....#0
 0220 0a5f6368 61696e00 03d23a03 00000223  ._chain...:....#
 0230 340a5f66 696c656e 6f0003d4 8f000000  4._fileno.......
 0240 0223380a 5f626c6b 73697a65 0003d58f  .#8._blksize....
 0250 00000002 233c0a5f 6f6c645f 6f666673  ....#<._old_offs
 0260 65740003 d6400300 00022340 0a5f6375  et...@....#@._cu
 0270 725f636f 6c756d6e 0003da4b 03000002  r_column...K....
 0280 23440a5f 76746162 6c655f6f 66667365  #D._vtable_offse
 0290 740003db 61030000 0223460a 5f73686f  t...a....#F._sho
 02a0 72746275 660003dc 70030000 0223470a  rtbuf...p....#G.
 02b0 5f6c6f63 6b0003e0 7c030000 0223480a  _lock...|....#H.
 02c0 5f6f6666 73657400 03e97e03 00000223  _offset...~....#
 02d0 4c0a5f75 6e757365 64320003 eb8b0300  L._unused2......
 02e0 00022354 000504e6 00000005 04a10000  ..#T............
 02f0 00093403 00005f49 4f5f6d61 726b6572  ..4..._IO_marker
 0300 000c03aa 0a5f6e65 78740003 ab340300  ....._next...4..
 0310 00022300 0a5f7362 75660003 ac3a0300  ..#.._sbuf...:..
 0320 00022304 0a5f706f 730003b0 8f000000  ..#.._pos.......
 0330 02230800 0504f102 00000504 e6000000  .#..............
 0340 045f5f6f 66665f74 00040504 73686f72  .__off_t....shor
 0350 7420756e 7369676e 65642069 6e740002  t unsigned int..
 0360 07047369 676e6564 20636861 72000106  ..signed char...
 0370 0b7c0300 00a10000 000c0000 0704045f  .|............._
 0380 5f6f6666 36345f74 0008050b 97030000  _off64_t........
 0390 8f000000 0c0f0008 01676574 63686172  .........getchar
 03a0 5f756e6c 6f636b65 64000139 018f0000  _unlocked..9....
 03b0 000302d4 03000001 70757463 68617200  ........putchar.
 03c0 0142018f 00000003 035f5f63 0001418f  .B.......__c..A.
 03d0 00000000 020d0400 00016670 7574635f  ..........fputc_
 03e0 756e6c6f 636b6564 00014b01 8f000000  unlocked..K.....
 03f0 03035f5f 6300014a 8f000000 035f5f73  ..__c..J.....__s
 0400 74726561 6d00014a e5020000 00024504  tream..J......E.
 0410 00000170 7574635f 756e6c6f 636b6564  ...putc_unlocked
 0420 00015501 8f000000 03035f5f 63000154  ..U.......__c..T
 0430 8f000000 035f5f73 74726561 6d000154  .....__stream..T
 0440 e5020000 00027004 00000170 75746368  ......p....putch
 0450 61725f75 6e6c6f63 6b656400 015c018f  ar_unlocked..\..
 0460 00000003 035f5f63 00015b8f 00000000  .....__c..[.....
 0470 029d0400 00016665 6f665f75 6e6c6f63  ......feof_unloc
 0480 6b656400 0170018f 00000003 035f5f73  ked..p.......__s
 0490 74726561 6d00016f e5020000 0002cc04  tream..o........
 04a0 00000166 6572726f 725f756e 6c6f636b  ...ferror_unlock
 04b0 65640001 77018f00 00000303 5f5f7374  ed..w.......__st
 04c0 7265616d 000176e5 02000000 0d140500  ream..v.........
 04d0 00016d61 696e0004 24018f00 0000b089  ..main..$.......
 04e0 04081d8b 04080155 0e617267 63000423  .......U.argc..#
 04f0 8f000000 01500e61 72677600 04231405  .....P.argv..#..
 0500 00000153 0f696e70 75740004 25eb0200  ...S.input..%...
 0510 00015000 0504eb02 00001073 697a655f  ..P........size_
 0520 740005aa 28050000 04756e73 69676e65  t...(....unsigne
 0530 6420696e 74000407 105f5f67 6e75635f  d int....__gnuc_
 0540 76615f6c 69737400 06494e05 00000704  va_list..IN.....
 0550 105f5f75 5f636861 72000720 60050000  .__u_char.. `...
 0560 04756e73 69676e65 64206368 61720001  .unsigned char..
 0570 08105f5f 755f7368 6f727400 07214b03  ..__u_short..!K.
 0580 0000105f 5f755f69 6e740007 22280500  ...__u_int.."(..
 0590 00105f5f 755f6c6f 6e670007 23a10500  ..__u_long..#...
 05a0 00046c6f 6e672075 6e736967 6e656420  ..long unsigned 
 05b0 696e7400 0407105f 5f755f71 7561645f  int....__u_quad_
 05c0 74000725 c8050000 046c6f6e 67206c6f  t..%.....long lo
 05d0 6e672075 6e736967 6e656420 696e7400  ng unsigned int.
 05e0 0807105f 5f717561 645f7400 0726f205  ...__quad_t..&..
 05f0 0000046c 6f6e6720 6c6f6e67 20696e74  ...long long int
 0600 00080510 5f5f696e 74385f74 00073161  ....__int8_t..1a
 0610 03000010 5f5f7569 6e74385f 74000732  ....__uint8_t..2
 0620 60050000 105f5f69 6e743136 5f740007  `....__int16_t..
 0630 33350600 00047368 6f727420 696e7400  35....short int.
 0640 0205105f 5f75696e 7431365f 74000734  ...__uint16_t..4
 0650 4b030000 105f5f69 6e743332 5f740007  K....__int32_t..
 0660 358f0000 00105f5f 75696e74 33325f74  5.....__uint32_t
 0670 00073628 05000010 5f5f696e 7436345f  ..6(....__int64_
 0680 74000738 f2050000 105f5f75 696e7436  t..8.....__uint6
 0690 345f7400 0739c805 0000105f 5f716164  4_t..9.....__qad
 06a0 64725f74 00073bab 06000005 04e20500  dr_t..;.........
 06b0 00105f5f 6465765f 7400073d b6050000  ..__dev_t..=....
 06c0 105f5f75 69645f74 00073e82 05000010  .__uid_t..>.....
 06d0 5f5f6769 645f7400 073f8205 0000105f  __gid_t..?....._
 06e0 5f696e6f 5f740007 40910500 00105f5f  _ino_t..@.....__
 06f0 6d6f6465 5f740007 41820500 00105f5f  mode_t..A.....__
 0700 6e6c696e 6b5f7400 07428205 0000105f  nlink_t..B....._
 0710 5f6f6666 5f740007 431d0700 00046c6f  _off_t..C.....lo
 0720 6e672069 6e740004 05105f5f 6c6f6666  ng int....__loff
 0730 5f740007 44e20500 00105f5f 7069645f  _t..D.....__pid_
 0740 74000745 8f000000 105f5f73 73697a65  t..E.....__ssize
 0750 5f740007 468f0000 00105f5f 726c696d  _t..F.....__rlim
 0760 5f740007 471d0700 00105f5f 726c696d  _t..G.....__rlim
 0770 36345f74 000748e2 05000010 5f5f6964  64_t..H.....__id
 0780 5f740007 49820500 0011a207 00000807  _t..I...........
 0790 4e0a5f5f 76616c00 074da207 00000223  N.__val..M.....#
 07a0 00000bae 0700008f 0000000c 0100105f  ..............._
 07b0 5f667369 645f7400 074e8907 0000105f  _fsid_t..N....._
 07c0 5f646164 64725f74 0007518f 00000010  _daddr_t..Q.....
 07d0 5f5f6361 6464725f 74000752 eb020000  __caddr_t..R....
 07e0 105f5f74 696d655f 74000753 1d070000  .__time_t..S....
 07f0 105f5f73 77626c6b 5f740007 541d0700  .__swblk_t..T...
 0800 00105f5f 636c6f63 6b5f7400 07561d07  ..__clock_t..V..
 0810 0000105f 5f66645f 6d61736b 000759a1  ...__fd_mask..Y.
 0820 05000011 41080000 80076f0a 5f5f6664  ....A.....o.__fd
 0830 735f6269 74730007 6c410800 00022300  s_bits..lA....#.
 0840 000b4d08 00001208 00000c1f 00105f5f  ..M...........__
 0850 66645f73 65740007 6f230800 00105f5f  fd_set..o#....__
 0860 6b65795f 74000772 8f000000 105f5f69  key_t..r.....__i
 0870 70635f70 69645f74 0007754b 03000010  pc_pid_t..uK....
 0880 5f5f626c 6b636e74 5f740007 7b1d0700  __blkcnt_t..{...
 0890 00105f5f 626c6b63 6e743634 5f740007  ..__blkcnt64_t..
 08a0 7ce20500 00105f5f 6673626c 6b636e74  |.....__fsblkcnt
 08b0 5f740007 7f910500 00105f5f 6673626c  _t........__fsbl
 08c0 6b636e74 36345f74 000780b6 05000010  kcnt64_t........
 08d0 5f5f6673 66696c63 6e745f74 00078391  __fsfilcnt_t....
 08e0 05000010 5f5f6673 66696c63 6e743634  ....__fsfilcnt64
 08f0 5f740007 84b60500 00105f5f 696e6f36  _t........__ino6
 0900 345f7400 07879105 0000105f 5f6f6666  4_t........__off
 0910 36345f74 00078a29 07000010 5f5f745f  64_t...)....__t_
 0920 7363616c 61725f74 00078d1d 07000010  scalar_t........
 0930 5f5f745f 75736361 6c61725f 7400078e  __t_uscalar_t...
 0940 a1050000 105f5f69 6e747074 725f7400  .....__intptr_t.
 0950 07918f00 00001046 494c4500 0230e600  .......FILE..0..
 0960 00001077 63686172 5f740005 ff1d0700  ...wchar_t......
 0970 00127769 6e745f74 00051801 28050000  ..wint_t....(...
 0980 105f475f 696e7431 365f7400 08233506  ._G_int16_t..#5.
 0990 0000105f 475f696e 7433325f 74000824  ..._G_int32_t..$
 09a0 8f000000 105f475f 75696e74 31365f74  ....._G_uint16_t
 09b0 0008254b 03000010 5f475f75 696e7433  ..%K...._G_uint3
 09c0 325f7400 08262805 0000135f 494f5f6a  2_t..&(...._IO_j
 09d0 756d705f 74000114 5f494f5f 6c6f636b  ump_t..._IO_lock
 09e0 5f740003 a4105f49 4f5f4649 4c450003  _t...._IO_FILE..
 09f0 f0e60000 00135f49 4f5f4649 4c455f70  ......_IO_FILE_p
 0a00 6c757300 01125f5f 696f5f72 6561645f  lus...__io_read_
 0a10 666e0003 07011a0a 00001534 0a000001  fn.........4....
 0a20 48070000 164e0500 0016eb02 0000161a  H....N..........
 0a30 05000000 125f5f69 6f5f7772 6974655f  .....__io_write_
 0a40 666e0003 10014a0a 00001564 0a000001  fn....J....d....
 0a50 48070000 164e0500 00169600 0000161a  H....N..........
 0a60 05000000 125f5f69 6f5f7365 656b5f66  .....__io_seek_f
 0a70 6e000318 01790a00 0015930a 0000018f  n....y..........
 0a80 00000016 4e050000 160e0700 00168f00  ....N...........
 0a90 00000012 5f5f696f 5f636c6f 73655f66  ....__io_close_f
 0aa0 6e00031b 01a90a00 0015b90a 0000018f  n...............
 0ab0 00000016 4e050000 00106670 6f735f74  ....N.....fpos_t
 0ac0 00023d0e 07000017 73746469 6e000272  ..=.....stdin..r
 0ad0 e5020000 01011773 74646f75 74000273  .......stdout..s
 0ae0 e5020000 0101126f 66665f74 0002dd01  .......off_t....
 0af0 0e070000 09370b00 006e6f64 65537472  .....7...nodeStr
 0b00 75637400 0c090c0a 76616c75 6500090d  uct.....value...
 0b10 8f000000 0223000a 696e6465 7800090e  .....#..index...
 0b20 8f000000 0223040a 6e657874 00090f37  .....#..next...7
 0b30 0b000002 23080005 04f40a00 00106c69  ....#.........li
 0b40 73744e6f 64650009 10f40a00 0018696e  stNode........in
 0b50 66696c65 000421e5 02000001 050364b6  file..!.......d.
 0b60 040800                               ...             
Contents of section .debug_abbrev:
 0000 01110103 081b0825 08130b11 01120110  .......%........
 0010 06000002 2e010113 3f0c0308 3a0b3b0b  ........?...:.;.
 0020 270c4913 200b0000 03050003 083a0b3b  '.I. ........:.;
 0030 0b491300 00042400 03080b0b 3e0b0000  .I....$.....>...
 0040 050f000b 0b491300 00062600 49130000  .....I....&.I...
 0050 070f000b 0b000008 2e003f0c 03083a0b  ..........?...:.
 0060 3b0b270c 4913200b 00000913 01011303  ;.'.I. .........
 0070 080b0b3a 0b3b0b00 000a0d00 03083a0b  ...:.;........:.
 0080 3b0b4913 380a0000 0b010101 13491300  ;.I.8........I..
 0090 000c2100 2f0b0000 0d2e0101 133f0c03  ..!./........?..
 00a0 083a0b3b 0b270c49 13110112 01400a00  .:.;.'.I.....@..
 00b0 000e0500 03083a0b 3b0b4913 020a0000  ......:.;.I.....
 00c0 0f340003 083a0b3b 0b491302 0a000010  .4...:.;.I......
 00d0 16000308 3a0b3b0b 49130000 11130101  ....:.;.I.......
 00e0 130b0b3a 0b3b0b00 00121600 03083a0b  ...:.;........:.
 00f0 3b054913 00001313 0003083c 0c000014  ;.I........<....
 0100 16000308 3a0b3b0b 00001515 01011327  ....:.;........'
 0110 0c491300 00160500 49130000 17340003  .I......I....4..
 0120 083a0b3b 0b49133f 0c3c0c00 00183400  .:.;.I.?.<....4.
 0130 03083a0b 3b0b4913 3f0c020a 000000    ..:.;.I.?...... 
Contents of section .debug_line:
 0000 a4020000 02005a01 00000401 f6f50a00  ......Z.........
 0010 01010101 00000001 002f7573 722f696e  ........./usr/in
 0020 636c7564 652f6269 74732f73 7464696f  clude/bits/stdio
 0030 2e680000 00002f75 73722f69 6e636c75  .h..../usr/inclu
 0040 64652f73 7464696f 2e680000 00002f75  de/stdio.h..../u
 0050 73722f69 6e636c75 64652f6c 6962696f  sr/include/libio
 0060 2e680000 0000626f 6d622e63 00000000  .h....bomb.c....
 0070 2f757372 2f6c6f63 616c2f6c 69626578  /usr/local/libex
 0080 65632f67 63632d32 2e39352e 332f6c69  ec/gcc-2.95.3/li
 0090 622f6763 632d6c69 622f6936 38362d70  b/gcc-lib/i686-p
 00a0 632d6c69 6e75782d 676e752f 322e3935  c-linux-gnu/2.95
 00b0 2e332f69 6e636c75 64652f73 74646465  .3/include/stdde
 00c0 662e6800 0000002f 7573722f 6c6f6361  f.h..../usr/loca
 00d0 6c2f6c69 62657865 632f6763 632d322e  l/libexec/gcc-2.
 00e0 39352e33 2f6c6962 2f676363 2d6c6962  95.3/lib/gcc-lib
 00f0 2f693638 362d7063 2d6c696e 75782d67  /i686-pc-linux-g
 0100 6e752f32 2e39352e 332f696e 636c7564  nu/2.95.3/includ
 0110 652f7374 64617267 2e680000 00002f75  e/stdarg.h..../u
 0120 73722f69 6e636c75 64652f62 6974732f  sr/include/bits/
 0130 74797065 732e6800 0000002f 7573722f  types.h..../usr/
 0140 696e636c 7564652f 5f475f63 6f6e6669  include/_G_confi
 0150 672e6800 00000070 68617365 732e6800  g.h....phases.h.
 0160 00000000 000502b7 89040804 04370005  .............7..
 0170 02bd8904 08150005 02bd8904 081b0005  ................
 0180 02c28904 08150005 02cc8904 08150005  ................
 0190 02d08904 081a0005 02d58904 08150005  ................
 01a0 02f28904 08150005 02068a04 08150005  ................
 01b0 02108a04 081a0005 02208a04 08150005  ......... ......
 01c0 02308a04 08180005 02358a04 08160005  .0.......5......
 01d0 02428a04 08150005 024f8a04 08170005  .B.......O......
 01e0 02578a04 08150005 02608a04 08150005  .W.......`......
 01f0 02658a04 08160005 02728a04 08180005  .e.......r......
 0200 027a8a04 08150005 02838a04 08150005  .z..............
 0210 02888a04 08150005 02958a04 08180005  ................
 0220 029d8a04 08150005 02a68a04 08150005  ................
 0230 02ab8a04 08150005 02b88a04 08170005  ................
 0240 02c08a04 08150005 02c98a04 08150005  ................
 0250 02ce8a04 08150005 02db8a04 08170005  ................
 0260 02e38a04 08150005 02ec8a04 08150005  ................
 0270 02f18a04 08150005 02fe8a04 08180005  ................
 0280 02068b04 08150005 020f8b04 08150005  ................
 0290 02148b04 08190005 021d8b04 08150005  ................
 02a0 021d8b04 08000101                    ........        
Contents of section .note:
 804bd10 08000000 00000000 01000000 30312e30  ............01.0
 804bd20 31000000 08000000 00000000 01000000  1...............
 804bd30 30312e30 31000000 08000000 00000000  01.01...........
 804bd40 01000000 30312e30 31000000 08000000  ....01.01.......
 804bd50 00000000 01000000 30312e30 31000000  ........01.01...
 804bd60 08000000 00000000 01000000 30312e30  ............01.0
 804bd70 31000000 08000000 00000000 01000000  1...............
 804bd80 30312e30 31000000 08000000 00000000  01.01...........
 804bd90 01000000 30312e30 31000000 08000000  ....01.01.......
 804bda0 00000000 01000000 30312e30 31000000  ........01.01...

Disassembly of section .interp:

080480f4 <.interp>:
 80480f4:	2f                   	das    
 80480f5:	6c                   	ins    BYTE PTR es:[edi],dx
 80480f6:	69 62 2f 6c 64 2d 6c 	imul   esp,DWORD PTR [edx+0x2f],0x6c2d646c
 80480fd:	69 6e 75 78 2e 73 6f 	imul   ebp,DWORD PTR [esi+0x75],0x6f732e78
 8048104:	2e 32 00             	xor    al,BYTE PTR cs:[eax]

Disassembly of section .note.ABI-tag:

08048108 <.note.ABI-tag>:
 8048108:	04 00                	add    al,0x0
 804810a:	00 00                	add    BYTE PTR [eax],al
 804810c:	10 00                	adc    BYTE PTR [eax],al
 804810e:	00 00                	add    BYTE PTR [eax],al
 8048110:	01 00                	add    DWORD PTR [eax],eax
 8048112:	00 00                	add    BYTE PTR [eax],al
 8048114:	47                   	inc    edi
 8048115:	4e                   	dec    esi
 8048116:	55                   	push   ebp
 8048117:	00 00                	add    BYTE PTR [eax],al
 8048119:	00 00                	add    BYTE PTR [eax],al
 804811b:	00 02                	add    BYTE PTR [edx],al
	...

Disassembly of section .hash:

08048128 <.hash>:
 8048128:	11 00                	adc    DWORD PTR [eax],eax
 804812a:	00 00                	add    BYTE PTR [eax],al
 804812c:	22 00                	and    al,BYTE PTR [eax]
 804812e:	00 00                	add    BYTE PTR [eax],al
 8048130:	0e                   	push   cs
 8048131:	00 00                	add    BYTE PTR [eax],al
 8048133:	00 00                	add    BYTE PTR [eax],al
 8048135:	00 00                	add    BYTE PTR [eax],al
 8048137:	00 1e                	add    BYTE PTR [esi],bl
 8048139:	00 00                	add    BYTE PTR [eax],al
 804813b:	00 12                	add    BYTE PTR [edx],dl
 804813d:	00 00                	add    BYTE PTR [eax],al
 804813f:	00 0f                	add    BYTE PTR [edi],cl
 8048141:	00 00                	add    BYTE PTR [eax],al
 8048143:	00 00                	add    BYTE PTR [eax],al
 8048145:	00 00                	add    BYTE PTR [eax],al
 8048147:	00 14 00             	add    BYTE PTR [eax+eax*1],dl
 804814a:	00 00                	add    BYTE PTR [eax],al
 804814c:	16                   	push   ss
 804814d:	00 00                	add    BYTE PTR [eax],al
 804814f:	00 18                	add    BYTE PTR [eax],bl
 8048151:	00 00                	add    BYTE PTR [eax],al
 8048153:	00 01                	add    BYTE PTR [ecx],al
 8048155:	00 00                	add    BYTE PTR [eax],al
 8048157:	00 1d 00 00 00 0c    	add    BYTE PTR ds:0xc000000,bl
 804815d:	00 00                	add    BYTE PTR [eax],al
 804815f:	00 21                	add    BYTE PTR [ecx],ah
 8048161:	00 00                	add    BYTE PTR [eax],al
 8048163:	00 1c 00             	add    BYTE PTR [eax+eax*1],bl
 8048166:	00 00                	add    BYTE PTR [eax],al
 8048168:	0d 00 00 00 20       	or     eax,0x20000000
 804816d:	00 00                	add    BYTE PTR [eax],al
 804816f:	00 17                	add    BYTE PTR [edi],dl
	...
 8048189:	00 00                	add    BYTE PTR [eax],al
 804818b:	00 05 00 00 00 00    	add    BYTE PTR ds:0x0,al
 8048191:	00 00                	add    BYTE PTR [eax],al
 8048193:	00 04 00             	add    BYTE PTR [eax+eax*1],al
 8048196:	00 00                	add    BYTE PTR [eax],al
 8048198:	03 00                	add    eax,DWORD PTR [eax]
 804819a:	00 00                	add    BYTE PTR [eax],al
 804819c:	07                   	pop    es
	...
 80481a5:	00 00                	add    BYTE PTR [eax],al
 80481a7:	00 09                	add    BYTE PTR [ecx],cl
 80481a9:	00 00                	add    BYTE PTR [eax],al
 80481ab:	00 08                	add    BYTE PTR [eax],cl
	...
 80481b9:	00 00                	add    BYTE PTR [eax],al
 80481bb:	00 02                	add    BYTE PTR [edx],al
 80481bd:	00 00                	add    BYTE PTR [eax],al
 80481bf:	00 00                	add    BYTE PTR [eax],al
 80481c1:	00 00                	add    BYTE PTR [eax],al
 80481c3:	00 13                	add    BYTE PTR [ebx],dl
 80481c5:	00 00                	add    BYTE PTR [eax],al
 80481c7:	00 00                	add    BYTE PTR [eax],al
 80481c9:	00 00                	add    BYTE PTR [eax],al
 80481cb:	00 10                	add    BYTE PTR [eax],dl
 80481cd:	00 00                	add    BYTE PTR [eax],al
 80481cf:	00 00                	add    BYTE PTR [eax],al
 80481d1:	00 00                	add    BYTE PTR [eax],al
 80481d3:	00 06                	add    BYTE PTR [esi],al
 80481d5:	00 00                	add    BYTE PTR [eax],al
 80481d7:	00 0b                	add    BYTE PTR [ebx],cl
 80481d9:	00 00                	add    BYTE PTR [eax],al
 80481db:	00 11                	add    BYTE PTR [ecx],dl
 80481dd:	00 00                	add    BYTE PTR [eax],al
 80481df:	00 1a                	add    BYTE PTR [edx],bl
 80481e1:	00 00                	add    BYTE PTR [eax],al
 80481e3:	00 15 00 00 00 1b    	add    BYTE PTR ds:0x1b000000,dl
 80481e9:	00 00                	add    BYTE PTR [eax],al
 80481eb:	00 19                	add    BYTE PTR [ecx],bl
 80481ed:	00 00                	add    BYTE PTR [eax],al
 80481ef:	00 0a                	add    BYTE PTR [edx],cl
 80481f1:	00 00                	add    BYTE PTR [eax],al
 80481f3:	00 1f                	add    BYTE PTR [edi],bl
 80481f5:	00 00                	add    BYTE PTR [eax],al
 80481f7:	00 00                	add    BYTE PTR [eax],al
 80481f9:	00 00                	add    BYTE PTR [eax],al
	...

Disassembly of section .dynsym:

080481fc <.dynsym>:
	...
 804820c:	1f                   	pop    ds
 804820d:	01 00                	add    DWORD PTR [eax],eax
 804820f:	00 20                	add    BYTE PTR [eax],ah
 8048211:	87 04 08             	xchg   DWORD PTR [eax+ecx*1],eax
 8048214:	74 00                	je     8048216 <_init-0x4ca>
 8048216:	00 00                	add    BYTE PTR [eax],al
 8048218:	22 00                	and    al,BYTE PTR [eax]
 804821a:	00 00                	add    BYTE PTR [eax],al
 804821c:	35 01 00 00 30       	xor    eax,0x30000001
 8048221:	87 04 08             	xchg   DWORD PTR [eax+ecx*1],eax
 8048224:	37                   	aaa    
 8048225:	00 00                	add    BYTE PTR [eax],al
 8048227:	00 12                	add    BYTE PTR [edx],dl
 8048229:	00 00                	add    BYTE PTR [eax],al
 804822b:	00 91 00 00 00 40    	add    BYTE PTR [ecx+0x40000000],dl
 8048231:	87 04 08             	xchg   DWORD PTR [eax+ecx*1],eax
 8048234:	24 00                	and    al,0x0
 8048236:	00 00                	add    BYTE PTR [eax],al
 8048238:	12 00                	adc    al,BYTE PTR [eax]
 804823a:	00 00                	add    BYTE PTR [eax],al
 804823c:	60                   	pusha  
 804823d:	00 00                	add    BYTE PTR [eax],al
 804823f:	00 50 87             	add    BYTE PTR [eax-0x79],dl
 8048242:	04 08                	add    al,0x8
 8048244:	81 00 00 00 12 00    	add    DWORD PTR [eax],0x120000
 804824a:	00 00                	add    BYTE PTR [eax],al
 804824c:	41                   	inc    ecx
 804824d:	00 00                	add    BYTE PTR [eax],al
 804824f:	00 60 87             	add    BYTE PTR [eax-0x79],ah
 8048252:	04 08                	add    al,0x8
 8048254:	e0 00                	loopne 8048256 <_init-0x48a>
 8048256:	00 00                	add    BYTE PTR [eax],al
 8048258:	12 00                	adc    al,BYTE PTR [eax]
 804825a:	00 00                	add    BYTE PTR [eax],al
 804825c:	b7 00                	mov    bh,0x0
 804825e:	00 00                	add    BYTE PTR [eax],al
 8048260:	70 87                	jo     80481e9 <_init-0x4f7>
 8048262:	04 08                	add    al,0x8
 8048264:	b5 00                	mov    ch,0x0
 8048266:	00 00                	add    BYTE PTR [eax],al
 8048268:	12 00                	adc    al,BYTE PTR [eax]
 804826a:	00 00                	add    BYTE PTR [eax],al
 804826c:	7c 00                	jl     804826e <_init-0x472>
 804826e:	00 00                	add    BYTE PTR [eax],al
 8048270:	80 87 04 08 98 00 00 	add    BYTE PTR [edi+0x980804],0x0
 8048277:	00 12                	add    BYTE PTR [edx],dl
 8048279:	00 00                	add    BYTE PTR [eax],al
 804827b:	00 be 00 00 00 90    	add    BYTE PTR [esi-0x70000000],bh
 8048281:	87 04 08             	xchg   DWORD PTR [eax+ecx*1],eax
 8048284:	7f 00                	jg     8048286 <_init-0x45a>
 8048286:	00 00                	add    BYTE PTR [eax],al
 8048288:	12 00                	adc    al,BYTE PTR [eax]
 804828a:	00 00                	add    BYTE PTR [eax],al
 804828c:	ec                   	in     al,dx
 804828d:	00 00                	add    BYTE PTR [eax],al
 804828f:	00 a0 87 04 08 73    	add    BYTE PTR [eax+0x73080487],ah
 8048295:	00 00                	add    BYTE PTR [eax],al
 8048297:	00 12                	add    BYTE PTR [edx],dl
 8048299:	00 00                	add    BYTE PTR [eax],al
 804829b:	00 68 00             	add    BYTE PTR [eax+0x0],ch
 804829e:	00 00                	add    BYTE PTR [eax],al
 80482a0:	b0 87                	mov    al,0x87
 80482a2:	04 08                	add    al,0x8
 80482a4:	9e                   	sahf   
 80482a5:	02 00                	add    al,BYTE PTR [eax]
 80482a7:	00 12                	add    BYTE PTR [edx],dl
 80482a9:	00 00                	add    BYTE PTR [eax],al
 80482ab:	00 99 00 00 00 c0    	add    BYTE PTR [ecx-0x40000000],bl
 80482b1:	87 04 08             	xchg   DWORD PTR [eax+ecx*1],eax
 80482b4:	a2 00 00 00 22       	mov    ds:0x22000000,al
 80482b9:	00 00                	add    BYTE PTR [eax],al
 80482bb:	00 28                	add    BYTE PTR [eax],ch
 80482bd:	00 00                	add    BYTE PTR [eax],al
 80482bf:	00 40 b6             	add    BYTE PTR [eax-0x4a],al
 80482c2:	04 08                	add    al,0x8
 80482c4:	04 00                	add    al,0x0
 80482c6:	00 00                	add    BYTE PTR [eax],al
 80482c8:	11 00                	adc    DWORD PTR [eax],eax
 80482ca:	16                   	push   ss
 80482cb:	00 5a 00             	add    BYTE PTR [edx+0x0],bl
 80482ce:	00 00                	add    BYTE PTR [eax],al
 80482d0:	d0 87 04 08 ca 00    	rol    BYTE PTR [edi+0xca0804],1
 80482d6:	00 00                	add    BYTE PTR [eax],al
 80482d8:	12 00                	adc    al,BYTE PTR [eax]
 80482da:	00 00                	add    BYTE PTR [eax],al
 80482dc:	6f                   	outs   dx,DWORD PTR ds:[esi]
 80482dd:	00 00                	add    BYTE PTR [eax],al
 80482df:	00 e0                	add    al,ah
 80482e1:	87 04 08             	xchg   DWORD PTR [eax+ecx*1],eax
 80482e4:	76 01                	jbe    80482e7 <_init-0x3f9>
 80482e6:	00 00                	add    BYTE PTR [eax],al
 80482e8:	12 00                	adc    al,BYTE PTR [eax]
 80482ea:	00 00                	add    BYTE PTR [eax],al
 80482ec:	48                   	dec    eax
 80482ed:	00 00                	add    BYTE PTR [eax],al
 80482ef:	00 f0                	add    al,dh
 80482f1:	87 04 08             	xchg   DWORD PTR [eax+ecx*1],eax
 80482f4:	52                   	push   edx
 80482f5:	04 00                	add    al,0x0
 80482f7:	00 12                	add    BYTE PTR [edx],dl
 80482f9:	00 00                	add    BYTE PTR [eax],al
 80482fb:	00 0d 01 00 00 00    	add    BYTE PTR ds:0x1,cl
 8048301:	88 04 08             	mov    BYTE PTR [eax+ecx*1],al
 8048304:	05 01 00 00 12       	add    eax,0x12000001
 8048309:	00 00                	add    BYTE PTR [eax],al
 804830b:	00 21                	add    BYTE PTR [ecx],ah
 804830d:	00 00                	add    BYTE PTR [eax],al
 804830f:	00 10                	add    BYTE PTR [eax],dl
 8048311:	88 04 08             	mov    BYTE PTR [eax+ecx*1],al
 8048314:	29 00                	sub    DWORD PTR [eax],eax
 8048316:	00 00                	add    BYTE PTR [eax],al
 8048318:	12 00                	adc    al,BYTE PTR [eax]
 804831a:	00 00                	add    BYTE PTR [eax],al
 804831c:	e5 00                	in     eax,0x0
 804831e:	00 00                	add    BYTE PTR [eax],al
 8048320:	20 88 04 08 f5 00    	and    BYTE PTR [eax+0xf50804],cl
 8048326:	00 00                	add    BYTE PTR [eax],al
 8048328:	12 00                	adc    al,BYTE PTR [eax]
 804832a:	00 00                	add    BYTE PTR [eax],al
 804832c:	cf                   	iret   
 804832d:	00 00                	add    BYTE PTR [eax],al
 804832f:	00 30                	add    BYTE PTR [eax],dh
 8048331:	88 04 08             	mov    BYTE PTR [eax+ecx*1],al
 8048334:	80 05 00 00 12 00 00 	add    BYTE PTR ds:0x120000,0x0
 804833b:	00 83 00 00 00 40    	add    BYTE PTR [ebx+0x40000000],al
 8048341:	88 04 08             	mov    BYTE PTR [eax+ecx*1],al
 8048344:	33 00                	xor    eax,DWORD PTR [eax]
 8048346:	00 00                	add    BYTE PTR [eax],al
 8048348:	12 00                	adc    al,BYTE PTR [eax]
 804834a:	00 00                	add    BYTE PTR [eax],al
 804834c:	f3 00 00             	repz add BYTE PTR [eax],al
 804834f:	00 50 88             	add    BYTE PTR [eax-0x78],dl
 8048352:	04 08                	add    al,0x8
 8048354:	e8 00 00 00 12       	call   1a048359 <_end+0x11ffc649>
 8048359:	00 00                	add    BYTE PTR [eax],al
 804835b:	00 c4                	add    ah,al
 804835d:	00 00                	add    BYTE PTR [eax],al
 804835f:	00 60 88             	add    BYTE PTR [eax-0x78],ah
 8048362:	04 08                	add    al,0x8
 8048364:	24 00                	and    al,0x0
 8048366:	00 00                	add    BYTE PTR [eax],al
 8048368:	12 00                	adc    al,BYTE PTR [eax]
 804836a:	00 00                	add    BYTE PTR [eax],al
 804836c:	37                   	aaa    
 804836d:	00 00                	add    BYTE PTR [eax],al
 804836f:	00 44 b6 04          	add    BYTE PTR [esi+esi*4+0x4],al
 8048373:	08 04 00             	or     BYTE PTR [eax+eax*1],al
 8048376:	00 00                	add    BYTE PTR [eax],al
 8048378:	11 00                	adc    DWORD PTR [eax],eax
 804837a:	16                   	push   ss
 804837b:	00 2f                	add    BYTE PTR [edi],ch
 804837d:	00 00                	add    BYTE PTR [eax],al
 804837f:	00 70 88             	add    BYTE PTR [eax-0x78],dh
 8048382:	04 08                	add    al,0x8
 8048384:	3a 00                	cmp    al,BYTE PTR [eax]
 8048386:	00 00                	add    BYTE PTR [eax],al
 8048388:	12 00                	adc    al,BYTE PTR [eax]
 804838a:	00 00                	add    BYTE PTR [eax],al
 804838c:	b1 00                	mov    cl,0x0
 804838e:	00 00                	add    BYTE PTR [eax],al
 8048390:	48                   	dec    eax
 8048391:	b6 04                	mov    dh,0x4
 8048393:	08 04 00             	or     BYTE PTR [eax+eax*1],al
 8048396:	00 00                	add    BYTE PTR [eax],al
 8048398:	11 00                	adc    DWORD PTR [eax],eax
 804839a:	16                   	push   ss
 804839b:	00 f8                	add    al,bh
 804839d:	00 00                	add    BYTE PTR [eax],al
 804839f:	00 80 88 04 08 79    	add    BYTE PTR [eax+0x79080488],al
 80483a5:	00 00                	add    BYTE PTR [eax],al
 80483a7:	00 12                	add    BYTE PTR [edx],dl
 80483a9:	00 00                	add    BYTE PTR [eax],al
 80483ab:	00 cb                	add    bl,cl
 80483ad:	00 00                	add    BYTE PTR [eax],al
 80483af:	00 90 88 04 08 37    	add    BYTE PTR [eax+0x37080488],dl
 80483b5:	00 00                	add    BYTE PTR [eax],al
 80483b7:	00 12                	add    BYTE PTR [edx],dl
 80483b9:	00 00                	add    BYTE PTR [eax],al
 80483bb:	00 fe                	add    dh,bh
 80483bd:	00 00                	add    BYTE PTR [eax],al
 80483bf:	00 04 96             	add    BYTE PTR [esi+edx*4],al
 80483c2:	04 08                	add    al,0x8
 80483c4:	04 00                	add    al,0x0
 80483c6:	00 00                	add    BYTE PTR [eax],al
 80483c8:	11 00                	adc    DWORD PTR [eax],eax
 80483ca:	0f 00 dd             	ltr    bp
 80483cd:	00 00                	add    BYTE PTR [eax],al
 80483cf:	00 a0 88 04 08 24    	add    BYTE PTR [eax+0x24080488],ah
 80483d5:	00 00                	add    BYTE PTR [eax],al
 80483d7:	00 12                	add    BYTE PTR [edx],dl
 80483d9:	00 00                	add    BYTE PTR [eax],al
 80483db:	00 75 00             	add    BYTE PTR [ebp+0x0],dh
 80483de:	00 00                	add    BYTE PTR [eax],al
 80483e0:	b0 88                	mov    al,0x88
 80483e2:	04 08                	add    al,0x8
 80483e4:	3a 00                	cmp    al,BYTE PTR [eax]
 80483e6:	00 00                	add    BYTE PTR [eax],al
 80483e8:	12 00                	adc    al,BYTE PTR [eax]
 80483ea:	00 00                	add    BYTE PTR [eax],al
 80483ec:	89 00                	mov    DWORD PTR [eax],eax
 80483ee:	00 00                	add    BYTE PTR [eax],al
 80483f0:	c0 88 04 08 7e 00 00 	ror    BYTE PTR [eax+0x7e0804],0x0
 80483f7:	00 12                	add    BYTE PTR [edx],dl
 80483f9:	00 00                	add    BYTE PTR [eax],al
 80483fb:	00 01                	add    BYTE PTR [ecx],al
	...
 8048405:	00 00                	add    BYTE PTR [eax],al
 8048407:	00 20                	add    BYTE PTR [eax],ah
 8048409:	00 00                	add    BYTE PTR [eax],al
 804840b:	00 1a                	add    BYTE PTR [edx],bl
 804840d:	00 00                	add    BYTE PTR [eax],al
 804840f:	00 d0                	add    al,dl
 8048411:	88 04 08             	mov    BYTE PTR [eax+ecx*1],al
 8048414:	22 00                	and    al,BYTE PTR [eax]
 8048416:	00 00                	add    BYTE PTR [eax],al
 8048418:	12 00                	adc    al,BYTE PTR [eax]
	...

Disassembly of section .dynstr:

0804841c <.dynstr>:
 804841c:	00 5f 5f             	add    BYTE PTR [edi+0x5f],bl
 804841f:	67 6d                	ins    DWORD PTR es:[di],dx
 8048421:	6f                   	outs   dx,DWORD PTR ds:[esi]
 8048422:	6e                   	outs   dx,BYTE PTR ds:[esi]
 8048423:	5f                   	pop    edi
 8048424:	73 74                	jae    804849a <_init-0x246>
 8048426:	61                   	popa   
 8048427:	72 74                	jb     804849d <_init-0x243>
 8048429:	5f                   	pop    edi
 804842a:	5f                   	pop    edi
 804842b:	00 6c 69 62          	add    BYTE PTR [ecx+ebp*2+0x62],ch
 804842f:	63 2e                	arpl   WORD PTR [esi],bp
 8048431:	73 6f                	jae    80484a2 <_init-0x23e>
 8048433:	2e 36 00 73 74       	cs add BYTE PTR cs:ss:[ebx+0x74],dh
 8048438:	72 63                	jb     804849d <_init-0x243>
 804843a:	70 79                	jo     80484b5 <_init-0x22b>
 804843c:	00 70 72             	add    BYTE PTR [eax+0x72],dh
 804843f:	69 6e 74 66 00 73 74 	imul   ebp,DWORD PTR [esi+0x74],0x74730066
 8048446:	64 6f                	outs   dx,DWORD PTR fs:[esi]
 8048448:	75 74                	jne    80484be <_init-0x222>
 804844a:	00 63 6f             	add    BYTE PTR [ebx+0x6f],ah
 804844d:	6e                   	outs   dx,BYTE PTR ds:[esi]
 804844e:	6e                   	outs   dx,BYTE PTR ds:[esi]
 804844f:	65 63 74 00 5f       	arpl   WORD PTR gs:[eax+eax*1+0x5f],si
 8048454:	5f                   	pop    edi
 8048455:	63 74 79 70          	arpl   WORD PTR [ecx+edi*2+0x70],si
 8048459:	65                   	gs
 804845a:	5f                   	pop    edi
 804845b:	62 00                	bound  eax,QWORD PTR [eax]
 804845d:	67                   	addr16
 804845e:	65                   	gs
 804845f:	74 65                	je     80484c6 <_init-0x21a>
 8048461:	6e                   	outs   dx,BYTE PTR ds:[esi]
 8048462:	76 00                	jbe    8048464 <_init-0x27c>
 8048464:	5f                   	pop    edi
 8048465:	5f                   	pop    edi
 8048466:	73 74                	jae    80484dc <_init-0x204>
 8048468:	72 74                	jb     80484de <_init-0x202>
 804846a:	6f                   	outs   dx,DWORD PTR ds:[esi]
 804846b:	6c                   	ins    BYTE PTR es:[edi],dx
 804846c:	5f                   	pop    edi
 804846d:	69 6e 74 65 72 6e 61 	imul   ebp,DWORD PTR [esi+0x74],0x616e7265
 8048474:	6c                   	ins    BYTE PTR es:[edi],dx
 8048475:	00 66 67             	add    BYTE PTR [esi+0x67],ah
 8048478:	65                   	gs
 8048479:	74 73                	je     80484ee <_init-0x1f2>
 804847b:	00 74 6d 70          	add    BYTE PTR [ebp+ebp*2+0x70],dh
 804847f:	66 69 6c 65 00 73 79 	imul   bp,WORD PTR [ebp+eiz*2+0x0],0x7973
 8048486:	73 74                	jae    80484fc <_init-0x1e4>
 8048488:	65                   	gs
 8048489:	6d                   	ins    DWORD PTR es:[edi],dx
 804848a:	00 73 6c             	add    BYTE PTR [ebx+0x6c],dh
 804848d:	65                   	gs
 804848e:	65                   	gs
 804848f:	70 00                	jo     8048491 <_init-0x24f>
 8048491:	73 6f                	jae    8048502 <_init-0x1de>
 8048493:	63 6b 65             	arpl   WORD PTR [ebx+0x65],bp
 8048496:	74 00                	je     8048498 <_init-0x248>
 8048498:	66                   	data16
 8048499:	66                   	data16
 804849a:	6c                   	ins    BYTE PTR es:[edi],dx
 804849b:	75 73                	jne    8048510 <_init-0x1d0>
 804849d:	68 00 62 7a 65       	push   0x657a6200
 80484a2:	72 6f                	jb     8048513 <_init-0x1cd>
 80484a4:	00 63 75             	add    BYTE PTR [ebx+0x75],ah
 80484a7:	73 65                	jae    804850e <_init-0x1d2>
 80484a9:	72 69                	jb     8048514 <_init-0x1cc>
 80484ab:	64 00 66 70          	add    BYTE PTR fs:[esi+0x70],ah
 80484af:	72 69                	jb     804851a <_init-0x1c6>
 80484b1:	6e                   	outs   dx,BYTE PTR ds:[esi]
 80484b2:	74 66                	je     804851a <_init-0x1c6>
 80484b4:	00 5f 5f             	add    BYTE PTR [edi+0x5f],bl
 80484b7:	64                   	fs
 80484b8:	65                   	gs
 80484b9:	72 65                	jb     8048520 <_init-0x1c0>
 80484bb:	67 69 73 74 65 72 5f 	imul   esi,DWORD PTR [bp+di+0x74],0x665f7265
 80484c2:	66 
 80484c3:	72 61                	jb     8048526 <_init-0x1ba>
 80484c5:	6d                   	ins    DWORD PTR es:[edi],dx
 80484c6:	65                   	gs
 80484c7:	5f                   	pop    edi
 80484c8:	69 6e 66 6f 00 73 74 	imul   ebp,DWORD PTR [esi+0x66],0x7473006f
 80484cf:	64 69 6e 00 73 69 67 	imul   ebp,DWORD PTR fs:[esi+0x0],0x6e676973
 80484d6:	6e 
 80484d7:	61                   	popa   
 80484d8:	6c                   	ins    BYTE PTR es:[edi],dx
 80484d9:	00 62 63             	add    BYTE PTR [edx+0x63],ah
 80484dc:	6f                   	outs   dx,DWORD PTR ds:[esi]
 80484dd:	70 79                	jo     8048558 <_init-0x188>
 80484df:	00 73 73             	add    BYTE PTR [ebx+0x73],dh
 80484e2:	63 61 6e             	arpl   WORD PTR [ecx+0x6e],sp
 80484e5:	66                   	data16
 80484e6:	00 64 75 70          	add    BYTE PTR [ebp+esi*2+0x70],ah
 80484ea:	00 67 65             	add    BYTE PTR [edi+0x65],ah
 80484ed:	74 68                	je     8048557 <_init-0x189>
 80484ef:	6f                   	outs   dx,DWORD PTR ds:[esi]
 80484f0:	73 74                	jae    8048566 <_init-0x17a>
 80484f2:	62 79 6e             	bound  edi,QWORD PTR [ecx+0x6e]
 80484f5:	61                   	popa   
 80484f6:	6d                   	ins    DWORD PTR es:[edi],dx
 80484f7:	65 00 73 70          	add    BYTE PTR gs:[ebx+0x70],dh
 80484fb:	72 69                	jb     8048566 <_init-0x17a>
 80484fd:	6e                   	outs   dx,BYTE PTR ds:[esi]
 80484fe:	74 66                	je     8048566 <_init-0x17a>
 8048500:	00 66 63             	add    BYTE PTR [esi+0x63],ah
 8048503:	6c                   	ins    BYTE PTR es:[edi],dx
 8048504:	6f                   	outs   dx,DWORD PTR ds:[esi]
 8048505:	73 65                	jae    804856c <_init-0x174>
 8048507:	00 72 65             	add    BYTE PTR [edx+0x65],dh
 804850a:	77 69                	ja     8048575 <_init-0x16b>
 804850c:	6e                   	outs   dx,BYTE PTR ds:[esi]
 804850d:	64 00 65 78          	add    BYTE PTR fs:[ebp+0x78],ah
 8048511:	69 74 00 66 6f 70 65 	imul   esi,DWORD PTR [eax+eax*1+0x66],0x6e65706f
 8048518:	6e 
 8048519:	00 5f 49             	add    BYTE PTR [edi+0x49],bl
 804851c:	4f                   	dec    edi
 804851d:	5f                   	pop    edi
 804851e:	73 74                	jae    8048594 <_init-0x14c>
 8048520:	64 69 6e 5f 75 73 65 	imul   ebp,DWORD PTR fs:[esi+0x5f],0x64657375
 8048527:	64 
 8048528:	00 5f 5f             	add    BYTE PTR [edi+0x5f],bl
 804852b:	6c                   	ins    BYTE PTR es:[edi],dx
 804852c:	69 62 63 5f 73 74 61 	imul   esp,DWORD PTR [edx+0x63],0x6174735f
 8048533:	72 74                	jb     80485a9 <_init-0x137>
 8048535:	5f                   	pop    edi
 8048536:	6d                   	ins    DWORD PTR es:[edi],dx
 8048537:	61                   	popa   
 8048538:	69 6e 00 5f 5f 72 65 	imul   ebp,DWORD PTR [esi+0x0],0x65725f5f
 804853f:	67 69 73 74 65 72 5f 	imul   esi,DWORD PTR [bp+di+0x74],0x665f7265
 8048546:	66 
 8048547:	72 61                	jb     80485aa <_init-0x136>
 8048549:	6d                   	ins    DWORD PTR es:[edi],dx
 804854a:	65                   	gs
 804854b:	5f                   	pop    edi
 804854c:	69 6e 66 6f 00 63 6c 	imul   ebp,DWORD PTR [esi+0x66],0x6c63006f
 8048553:	6f                   	outs   dx,DWORD PTR ds:[esi]
 8048554:	73 65                	jae    80485bb <_init-0x125>
 8048556:	00 47 4c             	add    BYTE PTR [edi+0x4c],al
 8048559:	49                   	dec    ecx
 804855a:	42                   	inc    edx
 804855b:	43                   	inc    ebx
 804855c:	5f                   	pop    edi
 804855d:	32 2e                	xor    ch,BYTE PTR [esi]
 804855f:	31 00                	xor    DWORD PTR [eax],eax
 8048561:	47                   	inc    edi
 8048562:	4c                   	dec    esp
 8048563:	49                   	dec    ecx
 8048564:	42                   	inc    edx
 8048565:	43                   	inc    ebx
 8048566:	5f                   	pop    edi
 8048567:	32 2e                	xor    ch,BYTE PTR [esi]
 8048569:	30 00                	xor    BYTE PTR [eax],al

Disassembly of section .gnu.version:

0804856c <.gnu.version>:
 804856c:	00 00                	add    BYTE PTR [eax],al
 804856e:	02 00                	add    al,BYTE PTR [eax]
 8048570:	02 00                	add    al,BYTE PTR [eax]
 8048572:	02 00                	add    al,BYTE PTR [eax]
 8048574:	03 00                	add    eax,DWORD PTR [eax]
 8048576:	02 00                	add    al,BYTE PTR [eax]
 8048578:	02 00                	add    al,BYTE PTR [eax]
 804857a:	02 00                	add    al,BYTE PTR [eax]
 804857c:	02 00                	add    al,BYTE PTR [eax]
 804857e:	02 00                	add    al,BYTE PTR [eax]
 8048580:	02 00                	add    al,BYTE PTR [eax]
 8048582:	02 00                	add    al,BYTE PTR [eax]
 8048584:	02 00                	add    al,BYTE PTR [eax]
 8048586:	02 00                	add    al,BYTE PTR [eax]
 8048588:	02 00                	add    al,BYTE PTR [eax]
 804858a:	02 00                	add    al,BYTE PTR [eax]
 804858c:	02 00                	add    al,BYTE PTR [eax]
 804858e:	02 00                	add    al,BYTE PTR [eax]
 8048590:	03 00                	add    eax,DWORD PTR [eax]
 8048592:	02 00                	add    al,BYTE PTR [eax]
 8048594:	02 00                	add    al,BYTE PTR [eax]
 8048596:	02 00                	add    al,BYTE PTR [eax]
 8048598:	02 00                	add    al,BYTE PTR [eax]
 804859a:	02 00                	add    al,BYTE PTR [eax]
 804859c:	02 00                	add    al,BYTE PTR [eax]
 804859e:	02 00                	add    al,BYTE PTR [eax]
 80485a0:	03 00                	add    eax,DWORD PTR [eax]
 80485a2:	02 00                	add    al,BYTE PTR [eax]
 80485a4:	01 00                	add    DWORD PTR [eax],eax
 80485a6:	02 00                	add    al,BYTE PTR [eax]
 80485a8:	02 00                	add    al,BYTE PTR [eax]
 80485aa:	02 00                	add    al,BYTE PTR [eax]
 80485ac:	00 00                	add    BYTE PTR [eax],al
 80485ae:	02 00                	add    al,BYTE PTR [eax]

Disassembly of section .gnu.version_r:

080485b0 <.gnu.version_r>:
 80485b0:	01 00                	add    DWORD PTR [eax],eax
 80485b2:	02 00                	add    al,BYTE PTR [eax]
 80485b4:	10 00                	adc    BYTE PTR [eax],al
 80485b6:	00 00                	add    BYTE PTR [eax],al
 80485b8:	10 00                	adc    BYTE PTR [eax],al
 80485ba:	00 00                	add    BYTE PTR [eax],al
 80485bc:	00 00                	add    BYTE PTR [eax],al
 80485be:	00 00                	add    BYTE PTR [eax],al
 80485c0:	11 69 69             	adc    DWORD PTR [ecx+0x69],ebp
 80485c3:	0d 00 00 03 00       	or     eax,0x30000
 80485c8:	3b 01                	cmp    eax,DWORD PTR [ecx]
 80485ca:	00 00                	add    BYTE PTR [eax],al
 80485cc:	10 00                	adc    BYTE PTR [eax],al
 80485ce:	00 00                	add    BYTE PTR [eax],al
 80485d0:	10 69 69             	adc    BYTE PTR [ecx+0x69],ch
 80485d3:	0d 00 00 02 00       	or     eax,0x20000
 80485d8:	45                   	inc    ebp
 80485d9:	01 00                	add    DWORD PTR [eax],eax
 80485db:	00 00                	add    BYTE PTR [eax],al
 80485dd:	00 00                	add    BYTE PTR [eax],al
	...

Disassembly of section .rel.got:

080485e0 <.rel.got>:
 80485e0:	94                   	xchg   esp,eax
 80485e1:	b5 04                	mov    ch,0x4
 80485e3:	08 06                	or     BYTE PTR [esi],al
 80485e5:	20 00                	and    BYTE PTR [eax],al
	...

Disassembly of section .rel.bss:

080485e8 <.rel.bss>:
 80485e8:	40                   	inc    eax
 80485e9:	b6 04                	mov    dh,0x4
 80485eb:	08 05 0c 00 00 44    	or     BYTE PTR ds:0x4400000c,al
 80485f1:	b6 04                	mov    dh,0x4
 80485f3:	08 05 17 00 00 48    	or     BYTE PTR ds:0x48000017,al
 80485f9:	b6 04                	mov    dh,0x4
 80485fb:	08                   	.byte 0x8
 80485fc:	05                   	.byte 0x5
 80485fd:	19 00                	sbb    DWORD PTR [eax],eax
	...

Disassembly of section .rel.plt:

08048600 <.rel.plt>:
 8048600:	24 b5                	and    al,0xb5
 8048602:	04 08                	add    al,0x8
 8048604:	07                   	pop    es
 8048605:	01 00                	add    DWORD PTR [eax],eax
 8048607:	00 28                	add    BYTE PTR [eax],ch
 8048609:	b5 04                	mov    ch,0x4
 804860b:	08 07                	or     BYTE PTR [edi],al
 804860d:	02 00                	add    al,BYTE PTR [eax]
 804860f:	00 2c b5 04 08 07 03 	add    BYTE PTR [esi*4+0x3070804],ch
 8048616:	00 00                	add    BYTE PTR [eax],al
 8048618:	30 b5 04 08 07 04    	xor    BYTE PTR [ebp+0x4070804],dh
 804861e:	00 00                	add    BYTE PTR [eax],al
 8048620:	34 b5                	xor    al,0xb5
 8048622:	04 08                	add    al,0x8
 8048624:	07                   	pop    es
 8048625:	05 00 00 38 b5       	add    eax,0xb5380000
 804862a:	04 08                	add    al,0x8
 804862c:	07                   	pop    es
 804862d:	06                   	push   es
 804862e:	00 00                	add    BYTE PTR [eax],al
 8048630:	3c b5                	cmp    al,0xb5
 8048632:	04 08                	add    al,0x8
 8048634:	07                   	pop    es
 8048635:	07                   	pop    es
 8048636:	00 00                	add    BYTE PTR [eax],al
 8048638:	40                   	inc    eax
 8048639:	b5 04                	mov    ch,0x4
 804863b:	08 07                	or     BYTE PTR [edi],al
 804863d:	08 00                	or     BYTE PTR [eax],al
 804863f:	00 44 b5 04          	add    BYTE PTR [ebp+esi*4+0x4],al
 8048643:	08 07                	or     BYTE PTR [edi],al
 8048645:	09 00                	or     DWORD PTR [eax],eax
 8048647:	00 48 b5             	add    BYTE PTR [eax-0x4b],cl
 804864a:	04 08                	add    al,0x8
 804864c:	07                   	pop    es
 804864d:	0a 00                	or     al,BYTE PTR [eax]
 804864f:	00 4c b5 04          	add    BYTE PTR [ebp+esi*4+0x4],cl
 8048653:	08 07                	or     BYTE PTR [edi],al
 8048655:	0b 00                	or     eax,DWORD PTR [eax]
 8048657:	00 50 b5             	add    BYTE PTR [eax-0x4b],dl
 804865a:	04 08                	add    al,0x8
 804865c:	07                   	pop    es
 804865d:	0d 00 00 54 b5       	or     eax,0xb5540000
 8048662:	04 08                	add    al,0x8
 8048664:	07                   	pop    es
 8048665:	0e                   	push   cs
 8048666:	00 00                	add    BYTE PTR [eax],al
 8048668:	58                   	pop    eax
 8048669:	b5 04                	mov    ch,0x4
 804866b:	08 07                	or     BYTE PTR [edi],al
 804866d:	0f 00 00             	sldt   WORD PTR [eax]
 8048670:	5c                   	pop    esp
 8048671:	b5 04                	mov    ch,0x4
 8048673:	08 07                	or     BYTE PTR [edi],al
 8048675:	10 00                	adc    BYTE PTR [eax],al
 8048677:	00 60 b5             	add    BYTE PTR [eax-0x4b],ah
 804867a:	04 08                	add    al,0x8
 804867c:	07                   	pop    es
 804867d:	11 00                	adc    DWORD PTR [eax],eax
 804867f:	00 64 b5 04          	add    BYTE PTR [ebp+esi*4+0x4],ah
 8048683:	08 07                	or     BYTE PTR [edi],al
 8048685:	12 00                	adc    al,BYTE PTR [eax]
 8048687:	00 68 b5             	add    BYTE PTR [eax-0x4b],ch
 804868a:	04 08                	add    al,0x8
 804868c:	07                   	pop    es
 804868d:	13 00                	adc    eax,DWORD PTR [eax]
 804868f:	00 6c b5 04          	add    BYTE PTR [ebp+esi*4+0x4],ch
 8048693:	08 07                	or     BYTE PTR [edi],al
 8048695:	14 00                	adc    al,0x0
 8048697:	00 70 b5             	add    BYTE PTR [eax-0x4b],dh
 804869a:	04 08                	add    al,0x8
 804869c:	07                   	pop    es
 804869d:	15 00 00 74 b5       	adc    eax,0xb5740000
 80486a2:	04 08                	add    al,0x8
 80486a4:	07                   	pop    es
 80486a5:	16                   	push   ss
 80486a6:	00 00                	add    BYTE PTR [eax],al
 80486a8:	78 b5                	js     804865f <_init-0x81>
 80486aa:	04 08                	add    al,0x8
 80486ac:	07                   	pop    es
 80486ad:	18 00                	sbb    BYTE PTR [eax],al
 80486af:	00 7c b5 04          	add    BYTE PTR [ebp+esi*4+0x4],bh
 80486b3:	08 07                	or     BYTE PTR [edi],al
 80486b5:	1a 00                	sbb    al,BYTE PTR [eax]
 80486b7:	00 80 b5 04 08 07    	add    BYTE PTR [eax+0x70804b5],al
 80486bd:	1b 00                	sbb    eax,DWORD PTR [eax]
 80486bf:	00 84 b5 04 08 07 1d 	add    BYTE PTR [ebp+esi*4+0x1d070804],al
 80486c6:	00 00                	add    BYTE PTR [eax],al
 80486c8:	88 b5 04 08 07 1e    	mov    BYTE PTR [ebp+0x1e070804],dh
 80486ce:	00 00                	add    BYTE PTR [eax],al
 80486d0:	8c b5 04 08 07 1f    	mov    WORD PTR [ebp+0x1f070804],?
 80486d6:	00 00                	add    BYTE PTR [eax],al
 80486d8:	90                   	nop
 80486d9:	b5 04                	mov    ch,0x4
 80486db:	08 07                	or     BYTE PTR [edi],al
 80486dd:	21 00                	and    DWORD PTR [eax],eax
	...

Disassembly of section .init:

080486e0 <_init>:
 80486e0:	55                   	push   ebp
 80486e1:	89 e5                	mov    ebp,esp
 80486e3:	53                   	push   ebx
 80486e4:	e8 00 00 00 00       	call   80486e9 <_init+0x9>
 80486e9:	5b                   	pop    ebx
 80486ea:	81 c3 2f 2e 00 00    	add    ebx,0x2e2f
 80486f0:	83 bb 7c 00 00 00 00 	cmp    DWORD PTR [ebx+0x7c],0x0
 80486f7:	74 05                	je     80486fe <_init+0x1e>
 80486f9:	e8 02 79 fb f7       	call   0 <_init-0x80486e0>
 80486fe:	89 f6                	mov    esi,esi
 8048700:	e8 6b 02 00 00       	call   8048970 <frame_dummy>
 8048705:	e8 a6 0e 00 00       	call   80495b0 <__do_global_ctors_aux>
 804870a:	8b 5d fc             	mov    ebx,DWORD PTR [ebp-0x4]
 804870d:	c9                   	leave  
 804870e:	c3                   	ret    

Disassembly of section .plt:

08048710 <__register_frame_info@plt-0x10>:
 8048710:	ff 35 1c b5 04 08    	push   DWORD PTR ds:0x804b51c
 8048716:	ff 25 20 b5 04 08    	jmp    DWORD PTR ds:0x804b520
 804871c:	00 00                	add    BYTE PTR [eax],al
	...

08048720 <__register_frame_info@plt>:
 8048720:	ff 25 24 b5 04 08    	jmp    DWORD PTR ds:0x804b524
 8048726:	68 00 00 00 00       	push   0x0
 804872b:	e9 e0 ff ff ff       	jmp    8048710 <_init+0x30>

08048730 <close@plt>:
 8048730:	ff 25 28 b5 04 08    	jmp    DWORD PTR ds:0x804b528
 8048736:	68 08 00 00 00       	push   0x8
 804873b:	e9 d0 ff ff ff       	jmp    8048710 <_init+0x30>

08048740 <fprintf@plt>:
 8048740:	ff 25 2c b5 04 08    	jmp    DWORD PTR ds:0x804b52c
 8048746:	68 10 00 00 00       	push   0x10
 804874b:	e9 c0 ff ff ff       	jmp    8048710 <_init+0x30>

08048750 <tmpfile@plt>:
 8048750:	ff 25 30 b5 04 08    	jmp    DWORD PTR ds:0x804b530
 8048756:	68 18 00 00 00       	push   0x18
 804875b:	e9 b0 ff ff ff       	jmp    8048710 <_init+0x30>

08048760 <getenv@plt>:
 8048760:	ff 25 34 b5 04 08    	jmp    DWORD PTR ds:0x804b534
 8048766:	68 20 00 00 00       	push   0x20
 804876b:	e9 a0 ff ff ff       	jmp    8048710 <_init+0x30>

08048770 <signal@plt>:
 8048770:	ff 25 38 b5 04 08    	jmp    DWORD PTR ds:0x804b538
 8048776:	68 28 00 00 00       	push   0x28
 804877b:	e9 90 ff ff ff       	jmp    8048710 <_init+0x30>

08048780 <fflush@plt>:
 8048780:	ff 25 3c b5 04 08    	jmp    DWORD PTR ds:0x804b53c
 8048786:	68 30 00 00 00       	push   0x30
 804878b:	e9 80 ff ff ff       	jmp    8048710 <_init+0x30>

08048790 <bcopy@plt>:
 8048790:	ff 25 40 b5 04 08    	jmp    DWORD PTR ds:0x804b540
 8048796:	68 38 00 00 00       	push   0x38
 804879b:	e9 70 ff ff ff       	jmp    8048710 <_init+0x30>

080487a0 <rewind@plt>:
 80487a0:	ff 25 44 b5 04 08    	jmp    DWORD PTR ds:0x804b544
 80487a6:	68 40 00 00 00       	push   0x40
 80487ab:	e9 60 ff ff ff       	jmp    8048710 <_init+0x30>

080487b0 <system@plt>:
 80487b0:	ff 25 48 b5 04 08    	jmp    DWORD PTR ds:0x804b548
 80487b6:	68 48 00 00 00       	push   0x48
 80487bb:	e9 50 ff ff ff       	jmp    8048710 <_init+0x30>

080487c0 <__deregister_frame_info@plt>:
 80487c0:	ff 25 4c b5 04 08    	jmp    DWORD PTR ds:0x804b54c
 80487c6:	68 50 00 00 00       	push   0x50
 80487cb:	e9 40 ff ff ff       	jmp    8048710 <_init+0x30>

080487d0 <fgets@plt>:
 80487d0:	ff 25 50 b5 04 08    	jmp    DWORD PTR ds:0x804b550
 80487d6:	68 58 00 00 00       	push   0x58
 80487db:	e9 30 ff ff ff       	jmp    8048710 <_init+0x30>

080487e0 <sleep@plt>:
 80487e0:	ff 25 54 b5 04 08    	jmp    DWORD PTR ds:0x804b554
 80487e6:	68 60 00 00 00       	push   0x60
 80487eb:	e9 20 ff ff ff       	jmp    8048710 <_init+0x30>

080487f0 <__strtol_internal@plt>:
 80487f0:	ff 25 58 b5 04 08    	jmp    DWORD PTR ds:0x804b558
 80487f6:	68 68 00 00 00       	push   0x68
 80487fb:	e9 10 ff ff ff       	jmp    8048710 <_init+0x30>

08048800 <__libc_start_main@plt>:
 8048800:	ff 25 5c b5 04 08    	jmp    DWORD PTR ds:0x804b55c
 8048806:	68 70 00 00 00       	push   0x70
 804880b:	e9 00 ff ff ff       	jmp    8048710 <_init+0x30>

08048810 <printf@plt>:
 8048810:	ff 25 60 b5 04 08    	jmp    DWORD PTR ds:0x804b560
 8048816:	68 78 00 00 00       	push   0x78
 804881b:	e9 f0 fe ff ff       	jmp    8048710 <_init+0x30>

08048820 <fclose@plt>:
 8048820:	ff 25 64 b5 04 08    	jmp    DWORD PTR ds:0x804b564
 8048826:	68 80 00 00 00       	push   0x80
 804882b:	e9 e0 fe ff ff       	jmp    8048710 <_init+0x30>

08048830 <gethostbyname@plt>:
 8048830:	ff 25 68 b5 04 08    	jmp    DWORD PTR ds:0x804b568
 8048836:	68 88 00 00 00       	push   0x88
 804883b:	e9 d0 fe ff ff       	jmp    8048710 <_init+0x30>

08048840 <bzero@plt>:
 8048840:	ff 25 6c b5 04 08    	jmp    DWORD PTR ds:0x804b56c
 8048846:	68 90 00 00 00       	push   0x90
 804884b:	e9 c0 fe ff ff       	jmp    8048710 <_init+0x30>

08048850 <exit@plt>:
 8048850:	ff 25 70 b5 04 08    	jmp    DWORD PTR ds:0x804b570
 8048856:	68 98 00 00 00       	push   0x98
 804885b:	e9 b0 fe ff ff       	jmp    8048710 <_init+0x30>

08048860 <sscanf@plt>:
 8048860:	ff 25 74 b5 04 08    	jmp    DWORD PTR ds:0x804b574
 8048866:	68 a0 00 00 00       	push   0xa0
 804886b:	e9 a0 fe ff ff       	jmp    8048710 <_init+0x30>

08048870 <connect@plt>:
 8048870:	ff 25 78 b5 04 08    	jmp    DWORD PTR ds:0x804b578
 8048876:	68 a8 00 00 00       	push   0xa8
 804887b:	e9 90 fe ff ff       	jmp    8048710 <_init+0x30>

08048880 <fopen@plt>:
 8048880:	ff 25 7c b5 04 08    	jmp    DWORD PTR ds:0x804b57c
 8048886:	68 b0 00 00 00       	push   0xb0
 804888b:	e9 80 fe ff ff       	jmp    8048710 <_init+0x30>

08048890 <dup@plt>:
 8048890:	ff 25 80 b5 04 08    	jmp    DWORD PTR ds:0x804b580
 8048896:	68 b8 00 00 00       	push   0xb8
 804889b:	e9 70 fe ff ff       	jmp    8048710 <_init+0x30>

080488a0 <sprintf@plt>:
 80488a0:	ff 25 84 b5 04 08    	jmp    DWORD PTR ds:0x804b584
 80488a6:	68 c0 00 00 00       	push   0xc0
 80488ab:	e9 60 fe ff ff       	jmp    8048710 <_init+0x30>

080488b0 <socket@plt>:
 80488b0:	ff 25 88 b5 04 08    	jmp    DWORD PTR ds:0x804b588
 80488b6:	68 c8 00 00 00       	push   0xc8
 80488bb:	e9 50 fe ff ff       	jmp    8048710 <_init+0x30>

080488c0 <cuserid@plt>:
 80488c0:	ff 25 8c b5 04 08    	jmp    DWORD PTR ds:0x804b58c
 80488c6:	68 d0 00 00 00       	push   0xd0
 80488cb:	e9 40 fe ff ff       	jmp    8048710 <_init+0x30>

080488d0 <strcpy@plt>:
 80488d0:	ff 25 90 b5 04 08    	jmp    DWORD PTR ds:0x804b590
 80488d6:	68 d8 00 00 00       	push   0xd8
 80488db:	e9 30 fe ff ff       	jmp    8048710 <_init+0x30>

Disassembly of section .text:

080488e0 <_start>:
 80488e0:	31 ed                	xor    ebp,ebp
 80488e2:	5e                   	pop    esi
 80488e3:	89 e1                	mov    ecx,esp
 80488e5:	83 e4 f8             	and    esp,0xfffffff8
 80488e8:	50                   	push   eax
 80488e9:	54                   	push   esp
 80488ea:	52                   	push   edx
 80488eb:	68 e4 95 04 08       	push   0x80495e4
 80488f0:	68 e0 86 04 08       	push   0x80486e0
 80488f5:	51                   	push   ecx
 80488f6:	56                   	push   esi
 80488f7:	68 b0 89 04 08       	push   0x80489b0
 80488fc:	e8 ff fe ff ff       	call   8048800 <__libc_start_main@plt>
 8048901:	f4                   	hlt    
 8048902:	90                   	nop
 8048903:	90                   	nop

08048904 <gcc2_compiled.>:
 8048904:	90                   	nop
 8048905:	90                   	nop
 8048906:	90                   	nop
 8048907:	90                   	nop
 8048908:	90                   	nop
 8048909:	90                   	nop
 804890a:	90                   	nop
 804890b:	90                   	nop
 804890c:	90                   	nop
 804890d:	90                   	nop
 804890e:	90                   	nop
 804890f:	90                   	nop

08048910 <__do_global_dtors_aux>:
 8048910:	55                   	push   ebp
 8048911:	89 e5                	mov    ebp,esp
 8048913:	83 ec 08             	sub    esp,0x8
 8048916:	83 3d e8 ad 04 08 00 	cmp    DWORD PTR ds:0x804ade8,0x0
 804891d:	75 3e                	jne    804895d <__do_global_dtors_aux+0x4d>
 804891f:	eb 12                	jmp    8048933 <__do_global_dtors_aux+0x23>
 8048921:	a1 e4 ad 04 08       	mov    eax,ds:0x804ade4
 8048926:	8d 50 04             	lea    edx,[eax+0x4]
 8048929:	89 15 e4 ad 04 08    	mov    DWORD PTR ds:0x804ade4,edx
 804892f:	8b 00                	mov    eax,DWORD PTR [eax]
 8048931:	ff d0                	call   eax
 8048933:	a1 e4 ad 04 08       	mov    eax,ds:0x804ade4
 8048938:	83 38 00             	cmp    DWORD PTR [eax],0x0
 804893b:	75 e4                	jne    8048921 <__do_global_dtors_aux+0x11>
 804893d:	b8 c0 87 04 08       	mov    eax,0x80487c0
 8048942:	85 c0                	test   eax,eax
 8048944:	74 0d                	je     8048953 <__do_global_dtors_aux+0x43>
 8048946:	83 c4 f4             	add    esp,0xfffffff4
 8048949:	68 84 b4 04 08       	push   0x804b484
 804894e:	e8 6d fe ff ff       	call   80487c0 <__deregister_frame_info@plt>
 8048953:	c7 05 e8 ad 04 08 01 	mov    DWORD PTR ds:0x804ade8,0x1
 804895a:	00 00 00 
 804895d:	89 ec                	mov    esp,ebp
 804895f:	5d                   	pop    ebp
 8048960:	c3                   	ret    
 8048961:	8d 76 00             	lea    esi,[esi+0x0]

08048964 <fini_dummy>:
 8048964:	55                   	push   ebp
 8048965:	89 e5                	mov    ebp,esp
 8048967:	83 ec 08             	sub    esp,0x8
 804896a:	89 ec                	mov    esp,ebp
 804896c:	5d                   	pop    ebp
 804896d:	c3                   	ret    
 804896e:	89 f6                	mov    esi,esi

08048970 <frame_dummy>:
 8048970:	55                   	push   ebp
 8048971:	89 e5                	mov    ebp,esp
 8048973:	83 ec 08             	sub    esp,0x8
 8048976:	b8 20 87 04 08       	mov    eax,0x8048720
 804897b:	85 c0                	test   eax,eax
 804897d:	74 12                	je     8048991 <frame_dummy+0x21>
 804897f:	83 c4 f8             	add    esp,0xfffffff8
 8048982:	68 4c b6 04 08       	push   0x804b64c
 8048987:	68 84 b4 04 08       	push   0x804b484
 804898c:	e8 8f fd ff ff       	call   8048720 <__register_frame_info@plt>
 8048991:	89 ec                	mov    esp,ebp
 8048993:	5d                   	pop    ebp
 8048994:	c3                   	ret    
 8048995:	8d 76 00             	lea    esi,[esi+0x0]

08048998 <init_dummy>:
 8048998:	55                   	push   ebp
 8048999:	89 e5                	mov    ebp,esp
 804899b:	83 ec 08             	sub    esp,0x8
 804899e:	89 ec                	mov    esp,ebp
 80489a0:	5d                   	pop    ebp
 80489a1:	c3                   	ret    
 80489a2:	90                   	nop
 80489a3:	90                   	nop
 80489a4:	90                   	nop
 80489a5:	90                   	nop
 80489a6:	90                   	nop
 80489a7:	90                   	nop
 80489a8:	90                   	nop
 80489a9:	90                   	nop
 80489aa:	90                   	nop
 80489ab:	90                   	nop
 80489ac:	90                   	nop
 80489ad:	90                   	nop
 80489ae:	90                   	nop
 80489af:	90                   	nop

080489b0 <main>:
 80489b0:	55                   	push   ebp
 80489b1:	89 e5                	mov    ebp,esp
 80489b3:	83 ec 14             	sub    esp,0x14
 80489b6:	53                   	push   ebx
 80489b7:	8b 45 08             	mov    eax,DWORD PTR [ebp+0x8]
 80489ba:	8b 5d 0c             	mov    ebx,DWORD PTR [ebp+0xc]
 80489bd:	83 f8 01             	cmp    eax,0x1
 80489c0:	75 0e                	jne    80489d0 <main+0x20>
 80489c2:	a1 48 b6 04 08       	mov    eax,ds:0x804b648
 80489c7:	a3 64 b6 04 08       	mov    ds:0x804b664,eax
 80489cc:	eb 62                	jmp    8048a30 <main+0x80>
 80489ce:	89 f6                	mov    esi,esi
 80489d0:	83 f8 02             	cmp    eax,0x2
 80489d3:	75 3b                	jne    8048a10 <main+0x60>
 80489d5:	83 c4 f8             	add    esp,0xfffffff8
 80489d8:	68 20 96 04 08       	push   0x8049620
 80489dd:	8b 43 04             	mov    eax,DWORD PTR [ebx+0x4]
 80489e0:	50                   	push   eax
 80489e1:	e8 9a fe ff ff       	call   8048880 <fopen@plt>
 80489e6:	a3 64 b6 04 08       	mov    ds:0x804b664,eax
 80489eb:	83 c4 10             	add    esp,0x10
 80489ee:	85 c0                	test   eax,eax
 80489f0:	75 3e                	jne    8048a30 <main+0x80>
 80489f2:	83 c4 fc             	add    esp,0xfffffffc
 80489f5:	8b 43 04             	mov    eax,DWORD PTR [ebx+0x4]
 80489f8:	50                   	push   eax
 80489f9:	8b 03                	mov    eax,DWORD PTR [ebx]
 80489fb:	50                   	push   eax
 80489fc:	68 22 96 04 08       	push   0x8049622
 8048a01:	e8 0a fe ff ff       	call   8048810 <printf@plt>
 8048a06:	83 c4 f4             	add    esp,0xfffffff4
 8048a09:	6a 08                	push   0x8
 8048a0b:	e8 40 fe ff ff       	call   8048850 <exit@plt>
 8048a10:	83 c4 f8             	add    esp,0xfffffff8
 8048a13:	8b 03                	mov    eax,DWORD PTR [ebx]
 8048a15:	50                   	push   eax
 8048a16:	68 3f 96 04 08       	push   0x804963f
 8048a1b:	e8 f0 fd ff ff       	call   8048810 <printf@plt>
 8048a20:	83 c4 f4             	add    esp,0xfffffff4
 8048a23:	6a 08                	push   0x8
 8048a25:	e8 26 fe ff ff       	call   8048850 <exit@plt>
 8048a2a:	8d b6 00 00 00 00    	lea    esi,[esi+0x0]
 8048a30:	e8 2b 07 00 00       	call   8049160 <initialize_bomb>
 8048a35:	83 c4 f4             	add    esp,0xfffffff4
 8048a38:	68 60 96 04 08       	push   0x8049660
 8048a3d:	e8 ce fd ff ff       	call   8048810 <printf@plt>
 8048a42:	83 c4 f4             	add    esp,0xfffffff4
 8048a45:	68 a0 96 04 08       	push   0x80496a0
 8048a4a:	e8 c1 fd ff ff       	call   8048810 <printf@plt>
 8048a4f:	83 c4 20             	add    esp,0x20
 8048a52:	e8 a5 07 00 00       	call   80491fc <read_line>
 8048a57:	83 c4 f4             	add    esp,0xfffffff4
 8048a5a:	50                   	push   eax
 8048a5b:	e8 c0 00 00 00       	call   8048b20 <phase_1>
 8048a60:	e8 c7 0a 00 00       	call   804952c <phase_defused>
 8048a65:	83 c4 f4             	add    esp,0xfffffff4
 8048a68:	68 e0 96 04 08       	push   0x80496e0
 8048a6d:	e8 9e fd ff ff       	call   8048810 <printf@plt>
 8048a72:	83 c4 20             	add    esp,0x20
 8048a75:	e8 82 07 00 00       	call   80491fc <read_line>
 8048a7a:	83 c4 f4             	add    esp,0xfffffff4
 8048a7d:	50                   	push   eax
 8048a7e:	e8 c5 00 00 00       	call   8048b48 <phase_2>
 8048a83:	e8 a4 0a 00 00       	call   804952c <phase_defused>
 8048a88:	83 c4 f4             	add    esp,0xfffffff4
 8048a8b:	68 20 97 04 08       	push   0x8049720
 8048a90:	e8 7b fd ff ff       	call   8048810 <printf@plt>
 8048a95:	83 c4 20             	add    esp,0x20
 8048a98:	e8 5f 07 00 00       	call   80491fc <read_line>
 8048a9d:	83 c4 f4             	add    esp,0xfffffff4
 8048aa0:	50                   	push   eax
 8048aa1:	e8 f2 00 00 00       	call   8048b98 <phase_3>
 8048aa6:	e8 81 0a 00 00       	call   804952c <phase_defused>
 8048aab:	83 c4 f4             	add    esp,0xfffffff4
 8048aae:	68 3f 97 04 08       	push   0x804973f
 8048ab3:	e8 58 fd ff ff       	call   8048810 <printf@plt>
 8048ab8:	83 c4 20             	add    esp,0x20
 8048abb:	e8 3c 07 00 00       	call   80491fc <read_line>
 8048ac0:	83 c4 f4             	add    esp,0xfffffff4
 8048ac3:	50                   	push   eax
 8048ac4:	e8 17 02 00 00       	call   8048ce0 <phase_4>
 8048ac9:	e8 5e 0a 00 00       	call   804952c <phase_defused>
 8048ace:	83 c4 f4             	add    esp,0xfffffff4
 8048ad1:	68 60 97 04 08       	push   0x8049760
 8048ad6:	e8 35 fd ff ff       	call   8048810 <printf@plt>
 8048adb:	83 c4 20             	add    esp,0x20
 8048ade:	e8 19 07 00 00       	call   80491fc <read_line>
 8048ae3:	83 c4 f4             	add    esp,0xfffffff4
 8048ae6:	50                   	push   eax
 8048ae7:	e8 40 02 00 00       	call   8048d2c <phase_5>
 8048aec:	e8 3b 0a 00 00       	call   804952c <phase_defused>
 8048af1:	83 c4 f4             	add    esp,0xfffffff4
 8048af4:	68 a0 97 04 08       	push   0x80497a0
 8048af9:	e8 12 fd ff ff       	call   8048810 <printf@plt>
 8048afe:	83 c4 20             	add    esp,0x20
 8048b01:	e8 f6 06 00 00       	call   80491fc <read_line>
 8048b06:	83 c4 f4             	add    esp,0xfffffff4
 8048b09:	50                   	push   eax
 8048b0a:	e8 89 02 00 00       	call   8048d98 <phase_6>
 8048b0f:	e8 18 0a 00 00       	call   804952c <phase_defused>
 8048b14:	31 c0                	xor    eax,eax
 8048b16:	8b 5d e8             	mov    ebx,DWORD PTR [ebp-0x18]
 8048b19:	89 ec                	mov    esp,ebp
 8048b1b:	5d                   	pop    ebp
 8048b1c:	c3                   	ret    
 8048b1d:	90                   	nop
 8048b1e:	90                   	nop
 8048b1f:	90                   	nop

08048b20 <phase_1>:
 8048b20:	55                   	push   ebp
 8048b21:	89 e5                	mov    ebp,esp
 8048b23:	83 ec 08             	sub    esp,0x8
 8048b26:	8b 45 08             	mov    eax,DWORD PTR [ebp+0x8]
 8048b29:	83 c4 f8             	add    esp,0xfffffff8
 8048b2c:	68 c0 97 04 08       	push   0x80497c0
 8048b31:	50                   	push   eax
 8048b32:	e8 f9 04 00 00       	call   8049030 <strings_not_equal>
 8048b37:	83 c4 10             	add    esp,0x10
 8048b3a:	85 c0                	test   eax,eax
 8048b3c:	74 05                	je     8048b43 <phase_1+0x23>
 8048b3e:	e8 b9 09 00 00       	call   80494fc <explode_bomb>
 8048b43:	89 ec                	mov    esp,ebp
 8048b45:	5d                   	pop    ebp
 8048b46:	c3                   	ret    
 8048b47:	90                   	nop

08048b48 <phase_2>:
 8048b48:	55                   	push   ebp
 8048b49:	89 e5                	mov    ebp,esp
 8048b4b:	83 ec 20             	sub    esp,0x20
 8048b4e:	56                   	push   esi
 8048b4f:	53                   	push   ebx
 8048b50:	8b 55 08             	mov    edx,DWORD PTR [ebp+0x8]
 8048b53:	83 c4 f8             	add    esp,0xfffffff8
 8048b56:	8d 45 e8             	lea    eax,[ebp-0x18]
 8048b59:	50                   	push   eax
 8048b5a:	52                   	push   edx
 8048b5b:	e8 78 04 00 00       	call   8048fd8 <read_six_numbers>
 8048b60:	83 c4 10             	add    esp,0x10
 8048b63:	83 7d e8 01          	cmp    DWORD PTR [ebp-0x18],0x1
 8048b67:	74 05                	je     8048b6e <phase_2+0x26>
 8048b69:	e8 8e 09 00 00       	call   80494fc <explode_bomb>
 8048b6e:	bb 01 00 00 00       	mov    ebx,0x1
 8048b73:	8d 75 e8             	lea    esi,[ebp-0x18]
 8048b76:	8d 43 01             	lea    eax,[ebx+0x1]
 8048b79:	0f af 44 9e fc       	imul   eax,DWORD PTR [esi+ebx*4-0x4]
 8048b7e:	39 04 9e             	cmp    DWORD PTR [esi+ebx*4],eax
 8048b81:	74 05                	je     8048b88 <phase_2+0x40>
 8048b83:	e8 74 09 00 00       	call   80494fc <explode_bomb>
 8048b88:	43                   	inc    ebx
 8048b89:	83 fb 05             	cmp    ebx,0x5
 8048b8c:	7e e8                	jle    8048b76 <phase_2+0x2e>
 8048b8e:	8d 65 d8             	lea    esp,[ebp-0x28]
 8048b91:	5b                   	pop    ebx
 8048b92:	5e                   	pop    esi
 8048b93:	89 ec                	mov    esp,ebp
 8048b95:	5d                   	pop    ebp
 8048b96:	c3                   	ret    
 8048b97:	90                   	nop

08048b98 <phase_3>:
 8048b98:	55                   	push   ebp
 8048b99:	89 e5                	mov    ebp,esp
 8048b9b:	83 ec 14             	sub    esp,0x14
 8048b9e:	53                   	push   ebx
 8048b9f:	8b 55 08             	mov    edx,DWORD PTR [ebp+0x8]
 8048ba2:	83 c4 f4             	add    esp,0xfffffff4
 8048ba5:	8d 45 fc             	lea    eax,[ebp-0x4]
 8048ba8:	50                   	push   eax
 8048ba9:	8d 45 fb             	lea    eax,[ebp-0x5]
 8048bac:	50                   	push   eax
 8048bad:	8d 45 f4             	lea    eax,[ebp-0xc]
 8048bb0:	50                   	push   eax
 8048bb1:	68 de 97 04 08       	push   0x80497de
 8048bb6:	52                   	push   edx
 8048bb7:	e8 a4 fc ff ff       	call   8048860 <sscanf@plt>
 8048bbc:	83 c4 20             	add    esp,0x20
 8048bbf:	83 f8 02             	cmp    eax,0x2
 8048bc2:	7f 05                	jg     8048bc9 <phase_3+0x31>
 8048bc4:	e8 33 09 00 00       	call   80494fc <explode_bomb>
 8048bc9:	83 7d f4 07          	cmp    DWORD PTR [ebp-0xc],0x7
 8048bcd:	0f 87 b5 00 00 00    	ja     8048c88 <phase_3+0xf0>
 8048bd3:	8b 45 f4             	mov    eax,DWORD PTR [ebp-0xc]
 8048bd6:	ff 24 85 e8 97 04 08 	jmp    DWORD PTR [eax*4+0x80497e8]
 8048bdd:	8d 76 00             	lea    esi,[esi+0x0]
 8048be0:	b3 71                	mov    bl,0x71
 8048be2:	81 7d fc 09 03 00 00 	cmp    DWORD PTR [ebp-0x4],0x309
 8048be9:	0f 84 a0 00 00 00    	je     8048c8f <phase_3+0xf7>
 8048bef:	e8 08 09 00 00       	call   80494fc <explode_bomb>
 8048bf4:	e9 96 00 00 00       	jmp    8048c8f <phase_3+0xf7>
 8048bf9:	8d b4 26 00 00 00 00 	lea    esi,[esi+eiz*1+0x0]
 8048c00:	b3 62                	mov    bl,0x62
 8048c02:	81 7d fc d6 00 00 00 	cmp    DWORD PTR [ebp-0x4],0xd6
 8048c09:	0f 84 80 00 00 00    	je     8048c8f <phase_3+0xf7>
 8048c0f:	e8 e8 08 00 00       	call   80494fc <explode_bomb>
 8048c14:	eb 79                	jmp    8048c8f <phase_3+0xf7>
 8048c16:	b3 62                	mov    bl,0x62
 8048c18:	81 7d fc f3 02 00 00 	cmp    DWORD PTR [ebp-0x4],0x2f3
 8048c1f:	74 6e                	je     8048c8f <phase_3+0xf7>
 8048c21:	e8 d6 08 00 00       	call   80494fc <explode_bomb>
 8048c26:	eb 67                	jmp    8048c8f <phase_3+0xf7>
 8048c28:	b3 6b                	mov    bl,0x6b
 8048c2a:	81 7d fc fb 00 00 00 	cmp    DWORD PTR [ebp-0x4],0xfb
 8048c31:	74 5c                	je     8048c8f <phase_3+0xf7>
 8048c33:	e8 c4 08 00 00       	call   80494fc <explode_bomb>
 8048c38:	eb 55                	jmp    8048c8f <phase_3+0xf7>
 8048c3a:	8d b6 00 00 00 00    	lea    esi,[esi+0x0]
 8048c40:	b3 6f                	mov    bl,0x6f
 8048c42:	81 7d fc a0 00 00 00 	cmp    DWORD PTR [ebp-0x4],0xa0
 8048c49:	74 44                	je     8048c8f <phase_3+0xf7>
 8048c4b:	e8 ac 08 00 00       	call   80494fc <explode_bomb>
 8048c50:	eb 3d                	jmp    8048c8f <phase_3+0xf7>
 8048c52:	b3 74                	mov    bl,0x74
 8048c54:	81 7d fc ca 01 00 00 	cmp    DWORD PTR [ebp-0x4],0x1ca
 8048c5b:	74 32                	je     8048c8f <phase_3+0xf7>
 8048c5d:	e8 9a 08 00 00       	call   80494fc <explode_bomb>
 8048c62:	eb 2b                	jmp    8048c8f <phase_3+0xf7>
 8048c64:	b3 76                	mov    bl,0x76
 8048c66:	81 7d fc 0c 03 00 00 	cmp    DWORD PTR [ebp-0x4],0x30c
 8048c6d:	74 20                	je     8048c8f <phase_3+0xf7>
 8048c6f:	e8 88 08 00 00       	call   80494fc <explode_bomb>
 8048c74:	eb 19                	jmp    8048c8f <phase_3+0xf7>
 8048c76:	b3 62                	mov    bl,0x62
 8048c78:	81 7d fc 0c 02 00 00 	cmp    DWORD PTR [ebp-0x4],0x20c
 8048c7f:	74 0e                	je     8048c8f <phase_3+0xf7>
 8048c81:	e8 76 08 00 00       	call   80494fc <explode_bomb>
 8048c86:	eb 07                	jmp    8048c8f <phase_3+0xf7>
 8048c88:	b3 78                	mov    bl,0x78
 8048c8a:	e8 6d 08 00 00       	call   80494fc <explode_bomb>
 8048c8f:	3a 5d fb             	cmp    bl,BYTE PTR [ebp-0x5]
 8048c92:	74 05                	je     8048c99 <phase_3+0x101>
 8048c94:	e8 63 08 00 00       	call   80494fc <explode_bomb>
 8048c99:	8b 5d e8             	mov    ebx,DWORD PTR [ebp-0x18]
 8048c9c:	89 ec                	mov    esp,ebp
 8048c9e:	5d                   	pop    ebp
 8048c9f:	c3                   	ret    

08048ca0 <func4>:
 8048ca0:	55                   	push   ebp
 8048ca1:	89 e5                	mov    ebp,esp
 8048ca3:	83 ec 10             	sub    esp,0x10
 8048ca6:	56                   	push   esi
 8048ca7:	53                   	push   ebx
 8048ca8:	8b 5d 08             	mov    ebx,DWORD PTR [ebp+0x8]
 8048cab:	83 fb 01             	cmp    ebx,0x1
 8048cae:	7e 20                	jle    8048cd0 <func4+0x30>
 8048cb0:	83 c4 f4             	add    esp,0xfffffff4
 8048cb3:	8d 43 ff             	lea    eax,[ebx-0x1]
 8048cb6:	50                   	push   eax
 8048cb7:	e8 e4 ff ff ff       	call   8048ca0 <func4>
 8048cbc:	89 c6                	mov    esi,eax
 8048cbe:	83 c4 f4             	add    esp,0xfffffff4
 8048cc1:	8d 43 fe             	lea    eax,[ebx-0x2]
 8048cc4:	50                   	push   eax
 8048cc5:	e8 d6 ff ff ff       	call   8048ca0 <func4>
 8048cca:	01 f0                	add    eax,esi
 8048ccc:	eb 07                	jmp    8048cd5 <func4+0x35>
 8048cce:	89 f6                	mov    esi,esi
 8048cd0:	b8 01 00 00 00       	mov    eax,0x1
 8048cd5:	8d 65 e8             	lea    esp,[ebp-0x18]
 8048cd8:	5b                   	pop    ebx
 8048cd9:	5e                   	pop    esi
 8048cda:	89 ec                	mov    esp,ebp
 8048cdc:	5d                   	pop    ebp
 8048cdd:	c3                   	ret    
 8048cde:	89 f6                	mov    esi,esi

08048ce0 <phase_4>:
 8048ce0:	55                   	push   ebp
 8048ce1:	89 e5                	mov    ebp,esp
 8048ce3:	83 ec 18             	sub    esp,0x18
 8048ce6:	8b 55 08             	mov    edx,DWORD PTR [ebp+0x8]
 8048ce9:	83 c4 fc             	add    esp,0xfffffffc
 8048cec:	8d 45 fc             	lea    eax,[ebp-0x4]
 8048cef:	50                   	push   eax
 8048cf0:	68 08 98 04 08       	push   0x8049808
 8048cf5:	52                   	push   edx
 8048cf6:	e8 65 fb ff ff       	call   8048860 <sscanf@plt>
 8048cfb:	83 c4 10             	add    esp,0x10
 8048cfe:	83 f8 01             	cmp    eax,0x1
 8048d01:	75 06                	jne    8048d09 <phase_4+0x29>
 8048d03:	83 7d fc 00          	cmp    DWORD PTR [ebp-0x4],0x0
 8048d07:	7f 05                	jg     8048d0e <phase_4+0x2e>
 8048d09:	e8 ee 07 00 00       	call   80494fc <explode_bomb>
 8048d0e:	83 c4 f4             	add    esp,0xfffffff4
 8048d11:	8b 45 fc             	mov    eax,DWORD PTR [ebp-0x4]
 8048d14:	50                   	push   eax
 8048d15:	e8 86 ff ff ff       	call   8048ca0 <func4>
 8048d1a:	83 c4 10             	add    esp,0x10
 8048d1d:	83 f8 37             	cmp    eax,0x37
 8048d20:	74 05                	je     8048d27 <phase_4+0x47>
 8048d22:	e8 d5 07 00 00       	call   80494fc <explode_bomb>
 8048d27:	89 ec                	mov    esp,ebp
 8048d29:	5d                   	pop    ebp
 8048d2a:	c3                   	ret    
 8048d2b:	90                   	nop

08048d2c <phase_5>:
 8048d2c:	55                   	push   ebp
 8048d2d:	89 e5                	mov    ebp,esp
 8048d2f:	83 ec 10             	sub    esp,0x10
 8048d32:	56                   	push   esi
 8048d33:	53                   	push   ebx
 8048d34:	8b 5d 08             	mov    ebx,DWORD PTR [ebp+0x8]
 8048d37:	83 c4 f4             	add    esp,0xfffffff4
 8048d3a:	53                   	push   ebx
 8048d3b:	e8 d8 02 00 00       	call   8049018 <string_length>
 8048d40:	83 c4 10             	add    esp,0x10
 8048d43:	83 f8 06             	cmp    eax,0x6
 8048d46:	74 05                	je     8048d4d <phase_5+0x21>
 8048d48:	e8 af 07 00 00       	call   80494fc <explode_bomb>
 8048d4d:	31 d2                	xor    edx,edx
 8048d4f:	8d 4d f8             	lea    ecx,[ebp-0x8]
 8048d52:	be 20 b2 04 08       	mov    esi,0x804b220
 8048d57:	8a 04 1a             	mov    al,BYTE PTR [edx+ebx*1]
 8048d5a:	24 0f                	and    al,0xf
 8048d5c:	0f be c0             	movsx  eax,al
 8048d5f:	8a 04 30             	mov    al,BYTE PTR [eax+esi*1]
 8048d62:	88 04 0a             	mov    BYTE PTR [edx+ecx*1],al
 8048d65:	42                   	inc    edx
 8048d66:	83 fa 05             	cmp    edx,0x5
 8048d69:	7e ec                	jle    8048d57 <phase_5+0x2b>
 8048d6b:	c6 45 fe 00          	mov    BYTE PTR [ebp-0x2],0x0
 8048d6f:	83 c4 f8             	add    esp,0xfffffff8
 8048d72:	68 0b 98 04 08       	push   0x804980b
 8048d77:	8d 45 f8             	lea    eax,[ebp-0x8]
 8048d7a:	50                   	push   eax
 8048d7b:	e8 b0 02 00 00       	call   8049030 <strings_not_equal>
 8048d80:	83 c4 10             	add    esp,0x10
 8048d83:	85 c0                	test   eax,eax
 8048d85:	74 05                	je     8048d8c <phase_5+0x60>
 8048d87:	e8 70 07 00 00       	call   80494fc <explode_bomb>
 8048d8c:	8d 65 e8             	lea    esp,[ebp-0x18]
 8048d8f:	5b                   	pop    ebx
 8048d90:	5e                   	pop    esi
 8048d91:	89 ec                	mov    esp,ebp
 8048d93:	5d                   	pop    ebp
 8048d94:	c3                   	ret    
 8048d95:	8d 76 00             	lea    esi,[esi+0x0]



void phase_6(char *src)
{
	int dst[6];

	read_six_numbers(src, dst);	
	edi = 0;
	do{
		eax = dst[edi];
		eax--;
		if ( eax > 5)		// les caracteres doivent tous etre plus petit que 5
			explode()
		ebx = edi + 1;
		if (ebx <= 5)	
		{
			esi = dst; 
			do {
		//		edx = tmp;
		//		eax = esi + edx; 
				eax = esi[edi]
				if (eax == esi[ebx])
					explode()
				ebx++;
			} while (ebx <= 5);			// les caracteres doivent tous etrent differents 
		}
		edi++;
	} while (edi <= 5);
	edi = 0;
	ecx = dst
	do {
		ebx = 1;
		eax = edi (* 4);
		edx = edi (* 4)
		if (ebx >= ecx[eax])
		{
			eax = ecx[edx]
			do {
				esi = esi + 8
				ebx++;
			} while (ebx < eax)
		}
		edi++;
	} while (edi <= 5)
  //TAG
}

08048d98 <phase_6>:
                                                        //init stackframe
 8048d98:	55                   	push   ebp
 8048d99:	89 e5                	mov    ebp,esp
 8048d9b:	83 ec 4c             	sub    esp,0x4c
                                                        //save registers
 8048d9e:	57                   	push   edi
 8048d9f:	56                   	push   esi
 8048da0:	53                   	push   ebx
      

 8048da1:	8b 55 08             	mov    edx,DWORD PTR [ebp+0x8]			// edx = readline()
 8048da4:	c7 45 cc 6c b2 04 08 	mov    DWORD PTR [ebp-0x34],0x804b26c	// *(epb-0x34) = 0x804b26c
 8048dab:	83 c4 f8             	add    esp,0xfffffff8
 8048dae:	8d 45 e8             	lea    eax,[ebp-0x18]			            //new field in StackFrame : 0x18 = 24 = 6 * sizeof(int)
 8048db1:	50                   	push   eax						                // dst
 8048db2:	52                   	push   edx						                //src
 8048db3:	e8 20 02 00 00       	call   8048fd8 <read_six_numbers>	    // read 6 numbers from src and put it in dst (ebp-0x18)

 8048db8:	31 ff                	xor    edi,edi                          // edi = 0
 8048dba:	83 c4 10             	add    esp,0x10						              // reduce stackframe size
 8048dbd:	8d 76 00             	lea    esi,[esi+0x0]				            // nop
 do
    8048dc0:	8d 45 e8             	lea    eax,[ebp-0x18]			          // eax = array of numbers
    8048dc3:	8b 04 b8             	mov    eax,DWORD PTR [eax+edi*4]    // eax = eax[edi] at index edi
    8048dc6:	48                   	dec    eax                          // eax--
    8048dc7:	83 f8 05             	cmp    eax,0x5                      // eax <= 5 unsigned
    8048dca:	76 05                	jbe    8048dd1 <phase_6+0x39>
	{
	    8048dcc:	e8 2b 07 00 00       	call   80494fc <explode_bomb>
	}
    8048dd1:	8d 5f 01             	lea    ebx,[edi+0x1]				// ebx = edi + 1
    8048dd4:	83 fb 05             	cmp    ebx,0x5						// jump if (ebx > 5)
    8048dd7:	7f 23                	jg     8048dfc <phase_6+0x64>
	{
		8048dd9:	8d 04 bd 00 00 00 00 	lea    eax,[edi*4+0x0]			//eax = edi * 4
		8048de0:	89 45 c8             	mov    DWORD PTR [ebp-0x38],eax	// [ebp-0x38] = eax
		8048de3:	8d 75 e8             	lea    esi,[ebp-0x18]			// esi = array of numbers
		do
			8048de6:	8b 55 c8             	mov    edx,DWORD PTR [ebp-0x38]		// edx = eax 
			8048de9:	8b 04 32             	mov    eax,DWORD PTR [edx+esi*1]	// eax = esi[edx]
			8048dec:	3b 04 9e             	cmp    eax,DWORD PTR [esi+ebx*4]	// if eax == esi+ebx*4
			8048def:	75 05                	jne    8048df6 <phase_6+0x5e>		//		explode()
			8048df1:	e8 06 07 00 00       	call   80494fc <explode_bomb>
			8048df6:	43                   	inc    ebx                          // ebx++
			8048df7:	83 fb 05             	cmp    ebx,0x5                      // if ebx <= 5 signed
			8048dfa:	7e ea                	jle    8048de6 <phase_6+0x4e>
		while
	}
    8048dfc:	47                   	inc    edi                          //edi ++;
    8048dfd:	83 ff 05             	cmp    edi,0x5                      //if edi <= 5 signed
    8048e00:	7e be                	jle    8048dc0 <phase_6+0x28>		// out if edi > 5 signed
 while

 8048e02:	31 ff                	xor    edi,edi							        // edi = 0
 8048e04:	8d 4d e8             	lea    ecx,[ebp-0x18]					      // ecx = array
 8048e07:	8d 45 d0             	lea    eax,[ebp-0x30]					      // eax = [ebp-0x30]
 8048e0a:	89 45 c4             	mov    DWORD PTR [ebp-0x3c],eax			// value at [ebp-0x3c] = eax
 8048e0d:	8d 76 00             	lea    esi,[esi+0x0]					      // nop
 do
	8048e10:	8b 75 cc             	mov    esi,DWORD PTR [ebp-0x34]		// esi = *(ebp-0x34) = 0x804b26c
	8048e13:	bb 01 00 00 00       	mov    ebx,0x1						// ebx = 1
	8048e18:	8d 04 bd 00 00 00 00 	lea    eax,[edi*4+0x0]				// eax = edi*4
	8048e1f:	89 c2                	mov    edx,eax						// edx = eax
	8048e21:	3b 1c 08             	cmp    ebx,DWORD PTR [eax+ecx*1]	// ebx < *(ecx + eax)	
	8048e24:	7d 12                	jge    8048e38 <phase_6+0xa0>
	{
		8048e26:	8b 04 0a             	mov    eax,DWORD PTR [edx+ecx*1]	// eax = ecx[edx]
		8048e29:	8d b4 26 00 00 00 00 	lea    esi,[esi+eiz*1+0x0]			// nop
		do
			8048e30:	8b 76 08             	mov    esi,DWORD PTR [esi+0x8]	// esi = *(esi + 8)
			8048e33:	43                   	inc    ebx						// ebx++;
			8048e34:	39 c3                	cmp    ebx,eax					// jump if ebx < eax signed
			8048e36:	7c f8                	jl     8048e30 <phase_6+0x98>
		while
	}
	8048e38:	8b 55 c4             	mov    edx,DWORD PTR [ebp-0x3c]		// edx = *(ebp-0x3c)
	8048e3b:	89 34 ba             	mov    DWORD PTR [edx+edi*4],esi	// edx[edi] = esi
	8048e3e:	47                   	inc    edi                          //edi++
	8048e3f:	83 ff 05             	cmp    edi,0x5                      // if edi <= 5 signed
	8048e42:	7e cc                	jle    8048e10 <phase_6+0x78>
 while

//TAG
/*
  *(ebp-0x30) = *(ebp-0x30)
*/
 8048e44:	8b 75 d0             	mov    esi,DWORD PTR [ebp-0x30]     // esi = *(ebp -0x30)
 8048e47:	89 75 cc             	mov    DWORD PTR [ebp-0x34],esi     // *(ebp-0x30) = esi
 8048e4a:	bf 01 00 00 00       	mov    edi,0x1							// edi = 1
 8048e4f:	8d 55 d0             	lea    edx,[ebp-0x30]					// edx = epb-0x30
 do
	8048e52:	8b 04 ba             	mov    eax,DWORD PTR [edx+edi*4]	// eax = edx[edi] (int)
	8048e55:	89 46 08             	mov    DWORD PTR [esi+0x8],eax		// *(esi + 8) = eax
	8048e58:	89 c6                	mov    esi,eax						// esi = eax
	8048e5a:	47                   	inc    edi							  // edi++
	8048e5b:	83 ff 05             	cmp    edi,0x5						// in if edi <= 5
	8048e5e:	7e f2                	jle    8048e52 <phase_6+0xba>
 while

 8048e60:	c7 46 08 00 00 00 00 	mov    DWORD PTR [esi+0x8],0x0			// *(esi + 8) = 0
 8048e67:	8b 75 cc             	mov    esi,DWORD PTR [ebp-0x34]     // esi = *(ebp-0x34)
 8048e6a:	31 ff                	xor    edi,edi                 			// edi == 0
 8048e6c:	8d 74 26 00          	lea    esi,[esi+eiz*1+0x0]          // nop
 do
  8048e70:	8b 56 08             	mov    edx,DWORD PTR [esi+0x8]		// edx = *(esi + 8)
	8048e73:	8b 06                	mov    eax,DWORD PTR [esi]			  // eax = *(esi)
	8048e75:	3b 02                	cmp    eax,DWORD PTR [edx]
	8048e77:	7d 05                	jge    8048e7e <phase_6+0xe6>		  // if (eax < *(edx))
	8048e79:	e8 7e 06 00 00       	call   80494fc <explode_bomb>		  // { 	explode() }
	8048e7e:	8b 76 08             	mov    esi,DWORD PTR [esi+0x8]		// esi = *(esi + 8)
	8048e81:	47                   	inc    edi							          // edi++
	8048e82:	83 ff 04             	cmp    edi,0x4						        // if (edi <= 4) signed
	8048e85:	7e e9                	jle    8048e70 <phase_6+0xd8>
 while
 /*
  do {
    edx = *(esi + 0x8);
    eax = *(esi);
    if (eax < edx)
      return -1;
    esi = esi + 0x8; 
    edi++;
  } while( edi <= 4)
 */

                                                        //restaure registers
 8048e87:	8d 65 a8             	lea    esp,[ebp-0x58]
 8048e8a:	5b                   	pop    ebx
 8048e8b:	5e                   	pop    esi
 8048e8c:	5f                   	pop    edi
                                                        //restaure stackframe
 8048e8d:	89 ec                	mov    esp,ebp
 8048e8f:	5d                   	pop    ebp
 8048e90:	c3                   	ret    
 8048e91:	8d 76 00             	lea    esi,[esi+0x0]





08048e94 <fun7>:
 8048e94:	55                   	push   ebp
 8048e95:	89 e5                	mov    ebp,esp
 8048e97:	83 ec 08             	sub    esp,0x8
                                                //SF
 8048e9a:	8b 55 08             	mov    edx,DWORD PTR [ebp+0x8]  //arg1
 8048e9d:	8b 45 0c             	mov    eax,DWORD PTR [ebp+0xc]  //arg2
 8048ea0:	85 d2                	test   edx,edx
 8048ea2:	75 0c                	jne    8048eb0 <fun7+0x1c> 
 8048ea4:	b8 ff ff ff ff       	mov    eax,0xffffffff           //if edx == NULL eax = 0xffffffff
 8048ea9:	eb 37                	jmp    8048ee2 <fun7+0x4e>
 8048eab:	90                   	nop
 8048eac:	8d 74 26 00          	lea    esi,[esi+eiz*1+0x0]      //nop
 8048eb0:	3b 02                	cmp    eax,DWORD PTR [edx]      
 8048eb2:	7d 11                	jge    8048ec5 <fun7+0x31>
 8048eb4:	83 c4 f8             	add    esp,0xfffffff8
 8048eb7:	50                   	push   eax
 8048eb8:	8b 42 04             	mov    eax,DWORD PTR [edx+0x4]
 8048ebb:	50                   	push   eax
 8048ebc:	e8 d3 ff ff ff       	call   8048e94 <fun7>
 8048ec1:	01 c0                	add    eax,eax
 8048ec3:	eb 1d                	jmp    8048ee2 <fun7+0x4e>
 8048ec5:	3b 02                	cmp    eax,DWORD PTR [edx]
 8048ec7:	74 17                	je     8048ee0 <fun7+0x4c>
 8048ec9:	83 c4 f8             	add    esp,0xfffffff8
 8048ecc:	50                   	push   eax
 8048ecd:	8b 42 08             	mov    eax,DWORD PTR [edx+0x8]
 8048ed0:	50                   	push   eax
 8048ed1:	e8 be ff ff ff       	call   8048e94 <fun7>
 8048ed6:	01 c0                	add    eax,eax              //eax *= 2
 8048ed8:	40                   	inc    eax                  //eax++;
 8048ed9:	eb 07                	jmp    8048ee2 <fun7+0x4e>
 8048edb:	90                   	nop
 8048edc:	8d 74 26 00          	lea    esi,[esi+eiz*1+0x0]
 8048ee0:	31 c0                	xor    eax,eax
 8048ee2:	89 ec                	mov    esp,ebp
 8048ee4:	5d                   	pop    ebp
 8048ee5:	c3                   	ret    
 8048ee6:	89 f6                	mov    esi,esi

08048ee8 <secret_phase>:
 8048ee8:	55                   	push   ebp
 8048ee9:	89 e5                	mov    ebp,esp
 8048eeb:	83 ec 14             	sub    esp,0x14
 8048eee:	53                   	push   ebx                  // save ebx
 8048eef:	e8 08 03 00 00       	call   80491fc <read_line>
 8048ef4:	6a 00                	push   0x0                  // arg4 = 0
 8048ef6:	6a 0a                	push   0xa                  // arg3 = 10
 8048ef8:	6a 00                	push   0x0                  // arg 2 = 0
 8048efa:	50                   	push   eax                  // arg 1 = eax
 8048efb:	e8 f0 f8 ff ff       	call   80487f0 <__strtol_internal@plt>
 8048f00:	83 c4 10             	add    esp,0x10
 8048f03:	89 c3                	mov    ebx,eax
 8048f05:	8d 43 ff             	lea    eax,[ebx-0x1]
 8048f08:	3d e8 03 00 00       	cmp    eax,0x3e8
 8048f0d:	76 05                	jbe    8048f14 <secret_phase+0x2c>
 8048f0f:	e8 e8 05 00 00       	call   80494fc <explode_bomb>
 8048f14:	83 c4 f8             	add    esp,0xfffffff8
 8048f17:	53                   	push   ebx
 8048f18:	68 20 b3 04 08       	push   0x804b320
 8048f1d:	e8 72 ff ff ff       	call   8048e94 <fun7>
 8048f22:	83 c4 10             	add    esp,0x10
 8048f25:	83 f8 07             	cmp    eax,0x7
 8048f28:	74 05                	je     8048f2f <secret_phase+0x47>
 8048f2a:	e8 cd 05 00 00       	call   80494fc <explode_bomb>
 8048f2f:	83 c4 f4             	add    esp,0xfffffff4
 8048f32:	68 20 98 04 08       	push   0x8049820
 8048f37:	e8 d4 f8 ff ff       	call   8048810 <printf@plt>
 8048f3c:	e8 eb 05 00 00       	call   804952c <phase_defused>
 8048f41:	8b 5d e8             	mov    ebx,DWORD PTR [ebp-0x18]
 8048f44:	89 ec                	mov    esp,ebp
 8048f46:	5d                   	pop    ebp
 8048f47:	c3                   	ret    
 8048f48:	90                   	nop
 8048f49:	90                   	nop
 8048f4a:	90                   	nop
 8048f4b:	90                   	nop
 8048f4c:	90                   	nop
 8048f4d:	90                   	nop
 8048f4e:	90                   	nop
 8048f4f:	90                   	nop

08048f50 <sig_handler>:
 8048f50:	55                   	push   ebp
 8048f51:	89 e5                	mov    ebp,esp
 8048f53:	83 ec 08             	sub    esp,0x8
 8048f56:	83 c4 f4             	add    esp,0xfffffff4
 8048f59:	68 c0 9a 04 08       	push   0x8049ac0
 8048f5e:	e8 ad f8 ff ff       	call   8048810 <printf@plt>
 8048f63:	83 c4 f4             	add    esp,0xfffffff4
 8048f66:	6a 03                	push   0x3
 8048f68:	e8 73 f8 ff ff       	call   80487e0 <sleep@plt>
 8048f6d:	83 c4 20             	add    esp,0x20
 8048f70:	83 c4 f4             	add    esp,0xfffffff4
 8048f73:	68 f9 9a 04 08       	push   0x8049af9
 8048f78:	e8 93 f8 ff ff       	call   8048810 <printf@plt>
 8048f7d:	83 c4 f4             	add    esp,0xfffffff4
 8048f80:	a1 40 b6 04 08       	mov    eax,ds:0x804b640
 8048f85:	50                   	push   eax
 8048f86:	e8 f5 f7 ff ff       	call   8048780 <fflush@plt>
 8048f8b:	83 c4 20             	add    esp,0x20
 8048f8e:	83 c4 f4             	add    esp,0xfffffff4
 8048f91:	6a 01                	push   0x1
 8048f93:	e8 48 f8 ff ff       	call   80487e0 <sleep@plt>
 8048f98:	83 c4 f4             	add    esp,0xfffffff4
 8048f9b:	68 01 9b 04 08       	push   0x8049b01
 8048fa0:	e8 6b f8 ff ff       	call   8048810 <printf@plt>
 8048fa5:	83 c4 20             	add    esp,0x20
 8048fa8:	83 c4 f4             	add    esp,0xfffffff4
 8048fab:	6a 10                	push   0x10
 8048fad:	e8 9e f8 ff ff       	call   8048850 <exit@plt>
 8048fb2:	89 f6                	mov    esi,esi

08048fb4 <invalid_phase>:
 8048fb4:	55                   	push   ebp
 8048fb5:	89 e5                	mov    ebp,esp
 8048fb7:	83 ec 08             	sub    esp,0x8
 8048fba:	8b 45 08             	mov    eax,DWORD PTR [ebp+0x8]
 8048fbd:	83 c4 f8             	add    esp,0xfffffff8
 8048fc0:	50                   	push   eax
 8048fc1:	68 0a 9b 04 08       	push   0x8049b0a
 8048fc6:	e8 45 f8 ff ff       	call   8048810 <printf@plt>
 8048fcb:	83 c4 f4             	add    esp,0xfffffff4
 8048fce:	6a 08                	push   0x8
 8048fd0:	e8 7b f8 ff ff       	call   8048850 <exit@plt>
 8048fd5:	8d 76 00             	lea    esi,[esi+0x0]

08048fd8 <read_six_numbers>:
 8048fd8:	55                   	push   ebp
 8048fd9:	89 e5                	mov    ebp,esp
 8048fdb:	83 ec 08             	sub    esp,0x8
 8048fde:	8b 4d 08             	mov    ecx,DWORD PTR [ebp+0x8]
 8048fe1:	8b 55 0c             	mov    edx,DWORD PTR [ebp+0xc]
 8048fe4:	8d 42 14             	lea    eax,[edx+0x14]
 8048fe7:	50                   	push   eax
 8048fe8:	8d 42 10             	lea    eax,[edx+0x10]
 8048feb:	50                   	push   eax
 8048fec:	8d 42 0c             	lea    eax,[edx+0xc]
 8048fef:	50                   	push   eax
 8048ff0:	8d 42 08             	lea    eax,[edx+0x8]
 8048ff3:	50                   	push   eax
 8048ff4:	8d 42 04             	lea    eax,[edx+0x4]
 8048ff7:	50                   	push   eax
 8048ff8:	52                   	push   edx
 8048ff9:	68 1b 9b 04 08       	push   0x8049b1b
 8048ffe:	51                   	push   ecx
 8048fff:	e8 5c f8 ff ff       	call   8048860 <sscanf@plt>
 8049004:	83 c4 20             	add    esp,0x20
 8049007:	83 f8 05             	cmp    eax,0x5
 804900a:	7f 05                	jg     8049011 <read_six_numbers+0x39>
 804900c:	e8 eb 04 00 00       	call   80494fc <explode_bomb>
 8049011:	89 ec                	mov    esp,ebp
 8049013:	5d                   	pop    ebp
 8049014:	c3                   	ret    
 8049015:	8d 76 00             	lea    esi,[esi+0x0]

08049018 <string_length>:
 8049018:	55                   	push   ebp
 8049019:	89 e5                	mov    ebp,esp
 804901b:	8b 55 08             	mov    edx,DWORD PTR [ebp+0x8]
 804901e:	31 c0                	xor    eax,eax
 8049020:	80 3a 00             	cmp    BYTE PTR [edx],0x0
 8049023:	74 07                	je     804902c <string_length+0x14>
 8049025:	42                   	inc    edx
 8049026:	40                   	inc    eax
 8049027:	80 3a 00             	cmp    BYTE PTR [edx],0x0
 804902a:	75 f9                	jne    8049025 <string_length+0xd>
 804902c:	89 ec                	mov    esp,ebp
 804902e:	5d                   	pop    ebp
 804902f:	c3                   	ret    

08049030 <strings_not_equal>:
 8049030:	55                   	push   ebp
 8049031:	89 e5                	mov    ebp,esp
 8049033:	83 ec 0c             	sub    esp,0xc

 8049036:	57                   	push   edi
 8049037:	56                   	push   esi
 8049038:	53                   	push   ebx

 8049039:	8b 75 08             	mov    esi,DWORD PTR [ebp+0x8]      //esi = arg1 
 804903c:	8b 7d 0c             	mov    edi,DWORD PTR [ebp+0xc]      //edi = arg2
 804903f:	83 c4 f4             	add    esp,0xfffffff4
 8049042:	56                   	push   esi
 8049043:	e8 d0 ff ff ff       	call   8049018 <string_length>      //strlen(s1)

 8049048:	89 c3                	mov    ebx,eax
 804904a:	83 c4 f4             	add    esp,0xfffffff4
 804904d:	57                   	push   edi
 804904e:	e8 c5 ff ff ff       	call   8049018 <string_length>      //strlen(s2)
 8049053:	39 c3                	cmp    ebx,eax

 8049055:	74 09                	je     8049060 <strings_not_equal+0x30>
 8049057:	b8 01 00 00 00       	mov    eax,0x1
 804905c:	eb 21                	jmp    804907f <strings_not_equal+0x4f>
 804905e:	89 f6                	mov    esi,esi                        //nop

 8049060:	89 f2                	mov    edx,esi
 8049062:	89 f9                	mov    ecx,edi
 8049064:	80 3a 00             	cmp    BYTE PTR [edx],0x0
 8049067:	74 14                	je     804907d <strings_not_equal+0x4d>
 8049069:	8d b4 26 00 00 00 00 	lea    esi,[esi+eiz*1+0x0]
 8049070:	8a 02                	mov    al,BYTE PTR [edx]
 8049072:	3a 01                	cmp    al,BYTE PTR [ecx]
 8049074:	75 e1                	jne    8049057 <strings_not_equal+0x27>
 8049076:	42                   	inc    edx
 8049077:	41                   	inc    ecx
 8049078:	80 3a 00             	cmp    BYTE PTR [edx],0x0
 804907b:	75 f3                	jne    8049070 <strings_not_equal+0x40>
 804907d:	31 c0                	xor    eax,eax
 804907f:	8d 65 e8             	lea    esp,[ebp-0x18]
 8049082:	5b                   	pop    ebx
 8049083:	5e                   	pop    esi
 8049084:	5f                   	pop    edi
 8049085:	89 ec                	mov    esp,ebp
 8049087:	5d                   	pop    ebp
 8049088:	c3                   	ret    
 8049089:	8d 76 00             	lea    esi,[esi+0x0]

0804908c <open_clientfd>:
 804908c:	55                   	push   ebp
 804908d:	89 e5                	mov    ebp,esp
 804908f:	83 ec 20             	sub    esp,0x20
 8049092:	56                   	push   esi
 8049093:	53                   	push   ebx
 8049094:	83 c4 fc             	add    esp,0xfffffffc
 8049097:	6a 00                	push   0x0
 8049099:	6a 01                	push   0x1
 804909b:	6a 02                	push   0x2
 804909d:	e8 0e f8 ff ff       	call   80488b0 <socket@plt>
 80490a2:	89 c6                	mov    esi,eax
 80490a4:	83 c4 10             	add    esp,0x10
 80490a7:	85 f6                	test   esi,esi
 80490a9:	7d 17                	jge    80490c2 <open_clientfd+0x36>
 80490ab:	83 c4 f4             	add    esp,0xfffffff4
 80490ae:	68 2d 9b 04 08       	push   0x8049b2d
 80490b3:	e8 58 f7 ff ff       	call   8048810 <printf@plt>
 80490b8:	83 c4 f4             	add    esp,0xfffffff4
 80490bb:	6a 08                	push   0x8
 80490bd:	e8 8e f7 ff ff       	call   8048850 <exit@plt>
 80490c2:	83 c4 f4             	add    esp,0xfffffff4
 80490c5:	8b 45 08             	mov    eax,DWORD PTR [ebp+0x8]
 80490c8:	50                   	push   eax
 80490c9:	e8 62 f7 ff ff       	call   8048830 <gethostbyname@plt>
 80490ce:	89 c3                	mov    ebx,eax
 80490d0:	83 c4 10             	add    esp,0x10
 80490d3:	85 db                	test   ebx,ebx
 80490d5:	75 19                	jne    80490f0 <open_clientfd+0x64>
 80490d7:	83 c4 f4             	add    esp,0xfffffff4
 80490da:	68 3c 9b 04 08       	push   0x8049b3c
 80490df:	e8 2c f7 ff ff       	call   8048810 <printf@plt>
 80490e4:	83 c4 f4             	add    esp,0xfffffff4
 80490e7:	6a 08                	push   0x8
 80490e9:	e8 62 f7 ff ff       	call   8048850 <exit@plt>
 80490ee:	89 f6                	mov    esi,esi
 80490f0:	83 c4 f8             	add    esp,0xfffffff8
 80490f3:	6a 10                	push   0x10
 80490f5:	8d 45 f0             	lea    eax,[ebp-0x10]
 80490f8:	50                   	push   eax
 80490f9:	e8 42 f7 ff ff       	call   8048840 <bzero@plt>
 80490fe:	66 c7 45 f0 02 00    	mov    WORD PTR [ebp-0x10],0x2
 8049104:	83 c4 fc             	add    esp,0xfffffffc
 8049107:	8b 43 0c             	mov    eax,DWORD PTR [ebx+0xc]
 804910a:	50                   	push   eax
 804910b:	8d 45 f4             	lea    eax,[ebp-0xc]
 804910e:	50                   	push   eax
 804910f:	8b 43 10             	mov    eax,DWORD PTR [ebx+0x10]
 8049112:	8b 00                	mov    eax,DWORD PTR [eax]
 8049114:	50                   	push   eax
 8049115:	e8 76 f6 ff ff       	call   8048790 <bcopy@plt>
 804911a:	83 c4 20             	add    esp,0x20
 804911d:	8b 45 0c             	mov    eax,DWORD PTR [ebp+0xc]
 8049120:	66 c1 c8 08          	ror    ax,0x8
 8049124:	66 89 45 f2          	mov    WORD PTR [ebp-0xe],ax
 8049128:	83 c4 fc             	add    esp,0xfffffffc
 804912b:	6a 10                	push   0x10
 804912d:	8d 45 f0             	lea    eax,[ebp-0x10]
 8049130:	50                   	push   eax
 8049131:	56                   	push   esi
 8049132:	e8 39 f7 ff ff       	call   8048870 <connect@plt>
 8049137:	83 c4 10             	add    esp,0x10
 804913a:	85 c0                	test   eax,eax
 804913c:	7d 17                	jge    8049155 <open_clientfd+0xc9>
 804913e:	83 c4 f4             	add    esp,0xfffffff4
 8049141:	68 4b 9b 04 08       	push   0x8049b4b
 8049146:	e8 c5 f6 ff ff       	call   8048810 <printf@plt>
 804914b:	83 c4 f4             	add    esp,0xfffffff4
 804914e:	6a 08                	push   0x8
 8049150:	e8 fb f6 ff ff       	call   8048850 <exit@plt>
 8049155:	89 f0                	mov    eax,esi
 8049157:	8d 65 d8             	lea    esp,[ebp-0x28]
 804915a:	5b                   	pop    ebx
 804915b:	5e                   	pop    esi
 804915c:	89 ec                	mov    esp,ebp
 804915e:	5d                   	pop    ebp
 804915f:	c3                   	ret    

08049160 <initialize_bomb>:
 8049160:	55                   	push   ebp
 8049161:	89 e5                	mov    ebp,esp
 8049163:	83 ec 08             	sub    esp,0x8
 8049166:	83 c4 f8             	add    esp,0xfffffff8
 8049169:	68 50 8f 04 08       	push   0x8048f50
 804916e:	6a 02                	push   0x2
 8049170:	e8 fb f5 ff ff       	call   8048770 <signal@plt>
 8049175:	89 ec                	mov    esp,ebp
 8049177:	5d                   	pop    ebp
 8049178:	c3                   	ret    
 8049179:	8d 76 00             	lea    esi,[esi+0x0]

0804917c <blank_line>:
 804917c:	55                   	push   ebp
 804917d:	89 e5                	mov    ebp,esp
 804917f:	8b 55 08             	mov    edx,DWORD PTR [ebp+0x8]
 8049182:	80 3a 00             	cmp    BYTE PTR [edx],0x0
 8049185:	74 1e                	je     80491a5 <blank_line+0x29>
 8049187:	8b 0d 44 b6 04 08    	mov    ecx,DWORD PTR ds:0x804b644
 804918d:	8d 76 00             	lea    esi,[esi+0x0]
 8049190:	0f be 02             	movsx  eax,BYTE PTR [edx]
 8049193:	42                   	inc    edx
 8049194:	f6 44 41 01 20       	test   BYTE PTR [ecx+eax*2+0x1],0x20
 8049199:	75 05                	jne    80491a0 <blank_line+0x24>
 804919b:	31 c0                	xor    eax,eax
 804919d:	eb 0b                	jmp    80491aa <blank_line+0x2e>
 804919f:	90                   	nop
 80491a0:	80 3a 00             	cmp    BYTE PTR [edx],0x0
 80491a3:	75 eb                	jne    8049190 <blank_line+0x14>
 80491a5:	b8 01 00 00 00       	mov    eax,0x1
 80491aa:	89 ec                	mov    esp,ebp
 80491ac:	5d                   	pop    ebp
 80491ad:	c3                   	ret    
 80491ae:	89 f6                	mov    esi,esi

080491b0 <skip>:
 80491b0:	55                   	push   ebp
 80491b1:	89 e5                	mov    ebp,esp
 80491b3:	83 ec 14             	sub    esp,0x14
 80491b6:	53                   	push   ebx
 80491b7:	83 c4 fc             	add    esp,0xfffffffc
 80491ba:	a1 64 b6 04 08       	mov    eax,ds:0x804b664
 80491bf:	50                   	push   eax
 80491c0:	6a 50                	push   0x50
 80491c2:	a1 80 b4 04 08       	mov    eax,ds:0x804b480
 80491c7:	8d 04 80             	lea    eax,[eax+eax*4]
 80491ca:	c1 e0 04             	shl    eax,0x4
 80491cd:	05 80 b6 04 08       	add    eax,0x804b680
 80491d2:	50                   	push   eax
 80491d3:	e8 f8 f5 ff ff       	call   80487d0 <fgets@plt>
 80491d8:	89 c3                	mov    ebx,eax
 80491da:	83 c4 10             	add    esp,0x10
 80491dd:	85 db                	test   ebx,ebx
 80491df:	74 10                	je     80491f1 <skip+0x41>
 80491e1:	83 c4 f4             	add    esp,0xfffffff4
 80491e4:	53                   	push   ebx
 80491e5:	e8 92 ff ff ff       	call   804917c <blank_line>
 80491ea:	83 c4 10             	add    esp,0x10
 80491ed:	85 c0                	test   eax,eax
 80491ef:	75 c6                	jne    80491b7 <skip+0x7>
 80491f1:	89 d8                	mov    eax,ebx
 80491f3:	8b 5d e8             	mov    ebx,DWORD PTR [ebp-0x18]
 80491f6:	89 ec                	mov    esp,ebp
 80491f8:	5d                   	pop    ebp
 80491f9:	c3                   	ret    
 80491fa:	89 f6                	mov    esi,esi

080491fc <read_line>:
 80491fc:	55                   	push   ebp
 80491fd:	89 e5                	mov    ebp,esp
 80491ff:	83 ec 14             	sub    esp,0x14
 8049202:	57                   	push   edi
 8049203:	e8 a8 ff ff ff       	call   80491b0 <skip>
 8049208:	85 c0                	test   eax,eax
 804920a:	75 53                	jne    804925f <read_line+0x63>
 804920c:	a1 64 b6 04 08       	mov    eax,ds:0x804b664
 8049211:	3b 05 48 b6 04 08    	cmp    eax,DWORD PTR ds:0x804b648
 8049217:	74 31                	je     804924a <read_line+0x4e>
 8049219:	83 c4 f4             	add    esp,0xfffffff4
 804921c:	68 7f 9b 04 08       	push   0x8049b7f
 8049221:	e8 3a f5 ff ff       	call   8048760 <getenv@plt>
 8049226:	83 c4 10             	add    esp,0x10
 8049229:	85 c0                	test   eax,eax
 804922b:	74 0a                	je     8049237 <read_line+0x3b>
 804922d:	83 c4 f4             	add    esp,0xfffffff4
 8049230:	6a 00                	push   0x0
 8049232:	e8 19 f6 ff ff       	call   8048850 <exit@plt>
 8049237:	a1 48 b6 04 08       	mov    eax,ds:0x804b648
 804923c:	a3 64 b6 04 08       	mov    ds:0x804b664,eax
 8049241:	e8 6a ff ff ff       	call   80491b0 <skip>
 8049246:	85 c0                	test   eax,eax
 8049248:	75 15                	jne    804925f <read_line+0x63>
 804924a:	83 c4 f4             	add    esp,0xfffffff4
 804924d:	68 60 9b 04 08       	push   0x8049b60
 8049252:	e8 b9 f5 ff ff       	call   8048810 <printf@plt>
 8049257:	e8 a0 02 00 00       	call   80494fc <explode_bomb>
 804925c:	83 c4 10             	add    esp,0x10
 804925f:	a1 80 b4 04 08       	mov    eax,ds:0x804b480
 8049264:	8d 04 80             	lea    eax,[eax+eax*4]
 8049267:	c1 e0 04             	shl    eax,0x4
 804926a:	8d b8 80 b6 04 08    	lea    edi,[eax+0x804b680]
 8049270:	b0 00                	mov    al,0x0
 8049272:	fc                   	cld    
 8049273:	b9 ff ff ff ff       	mov    ecx,0xffffffff
 8049278:	f2 ae                	repnz scas al,BYTE PTR es:[edi]
 804927a:	89 c8                	mov    eax,ecx
 804927c:	f7 d0                	not    eax
 804927e:	8d 78 ff             	lea    edi,[eax-0x1]
 8049281:	83 ff 4f             	cmp    edi,0x4f
 8049284:	75 12                	jne    8049298 <read_line+0x9c>
 8049286:	83 c4 f4             	add    esp,0xfffffff4
 8049289:	68 8a 9b 04 08       	push   0x8049b8a
 804928e:	e8 7d f5 ff ff       	call   8048810 <printf@plt>
 8049293:	e8 64 02 00 00       	call   80494fc <explode_bomb>
 8049298:	a1 80 b4 04 08       	mov    eax,ds:0x804b480
 804929d:	8d 04 80             	lea    eax,[eax+eax*4]
 80492a0:	c1 e0 04             	shl    eax,0x4
 80492a3:	c6 84 07 7f b6 04 08 	mov    BYTE PTR [edi+eax*1+0x804b67f],0x0
 80492aa:	00 
 80492ab:	05 80 b6 04 08       	add    eax,0x804b680
 80492b0:	ff 05 80 b4 04 08    	inc    DWORD PTR ds:0x804b480
 80492b6:	8b 7d e8             	mov    edi,DWORD PTR [ebp-0x18]
 80492b9:	89 ec                	mov    esp,ebp
 80492bb:	5d                   	pop    ebp
 80492bc:	c3                   	ret    
 80492bd:	8d 76 00             	lea    esi,[esi+0x0]

080492c0 <send_msg>:
 80492c0:	55                   	push   ebp
 80492c1:	89 e5                	mov    ebp,esp
 80492c3:	83 ec 5c             	sub    esp,0x5c
 80492c6:	57                   	push   edi
 80492c7:	56                   	push   esi
 80492c8:	53                   	push   ebx
 80492c9:	83 c4 f4             	add    esp,0xfffffff4
 80492cc:	6a 00                	push   0x0
 80492ce:	e8 bd f5 ff ff       	call   8048890 <dup@plt>
 80492d3:	89 c7                	mov    edi,eax
 80492d5:	83 c4 10             	add    esp,0x10
 80492d8:	83 ff ff             	cmp    edi,0xffffffff
 80492db:	75 17                	jne    80492f4 <send_msg+0x34>
 80492dd:	83 c4 f4             	add    esp,0xfffffff4
 80492e0:	68 a6 9b 04 08       	push   0x8049ba6
 80492e5:	e8 26 f5 ff ff       	call   8048810 <printf@plt>
 80492ea:	83 c4 f4             	add    esp,0xfffffff4
 80492ed:	6a 08                	push   0x8
 80492ef:	e8 5c f5 ff ff       	call   8048850 <exit@plt>
 80492f4:	83 c4 f4             	add    esp,0xfffffff4
 80492f7:	6a 00                	push   0x0
 80492f9:	e8 32 f4 ff ff       	call   8048730 <close@plt>
 80492fe:	83 c4 10             	add    esp,0x10
 8049301:	83 f8 ff             	cmp    eax,0xffffffff
 8049304:	75 1a                	jne    8049320 <send_msg+0x60>
 8049306:	83 c4 f4             	add    esp,0xfffffff4
 8049309:	68 bb 9b 04 08       	push   0x8049bbb
 804930e:	e8 fd f4 ff ff       	call   8048810 <printf@plt>
 8049313:	83 c4 f4             	add    esp,0xfffffff4
 8049316:	6a 08                	push   0x8
 8049318:	e8 33 f5 ff ff       	call   8048850 <exit@plt>
 804931d:	8d 76 00             	lea    esi,[esi+0x0]
 8049320:	e8 2b f4 ff ff       	call   8048750 <tmpfile@plt>
 8049325:	89 c6                	mov    esi,eax
 8049327:	85 f6                	test   esi,esi
 8049329:	75 17                	jne    8049342 <send_msg+0x82>
 804932b:	83 c4 f4             	add    esp,0xfffffff4
 804932e:	68 cf 9b 04 08       	push   0x8049bcf
 8049333:	e8 d8 f4 ff ff       	call   8048810 <printf@plt>
 8049338:	83 c4 f4             	add    esp,0xfffffff4
 804933b:	6a 08                	push   0x8
 804933d:	e8 0e f5 ff ff       	call   8048850 <exit@plt>
 8049342:	83 c4 f8             	add    esp,0xfffffff8
 8049345:	68 e5 9b 04 08       	push   0x8049be5
 804934a:	56                   	push   esi
 804934b:	e8 f0 f3 ff ff       	call   8048740 <fprintf@plt>
 8049350:	83 c4 f8             	add    esp,0xfffffff8
 8049353:	68 01 9c 04 08       	push   0x8049c01
 8049358:	56                   	push   esi
 8049359:	e8 e2 f3 ff ff       	call   8048740 <fprintf@plt>
 804935e:	83 c4 20             	add    esp,0x20
 8049361:	83 c4 f4             	add    esp,0xfffffff4
 8049364:	6a 00                	push   0x0
 8049366:	e8 55 f5 ff ff       	call   80488c0 <cuserid@plt>
 804936b:	83 c4 10             	add    esp,0x10
 804936e:	85 c0                	test   eax,eax
 8049370:	75 1e                	jne    8049390 <send_msg+0xd0>
 8049372:	8d 45 b0             	lea    eax,[ebp-0x50]
 8049375:	c7 00 6e 6f 62 6f    	mov    DWORD PTR [eax],0x6f626f6e
 804937b:	83 c0 04             	add    eax,0x4
 804937e:	66 c7 00 64 79       	mov    WORD PTR [eax],0x7964
 8049383:	c6 40 02 00          	mov    BYTE PTR [eax+0x2],0x0
 8049387:	eb 17                	jmp    80493a0 <send_msg+0xe0>
 8049389:	8d b4 26 00 00 00 00 	lea    esi,[esi+eiz*1+0x0]
 8049390:	83 c4 f8             	add    esp,0xfffffff8
 8049393:	50                   	push   eax
 8049394:	8d 45 b0             	lea    eax,[ebp-0x50]
 8049397:	50                   	push   eax
 8049398:	e8 33 f5 ff ff       	call   80488d0 <strcpy@plt>
 804939d:	83 c4 10             	add    esp,0x10
 80493a0:	83 c4 fc             	add    esp,0xfffffffc
 80493a3:	a1 80 b4 04 08       	mov    eax,ds:0x804b480
 80493a8:	50                   	push   eax
 80493a9:	b8 12 9c 04 08       	mov    eax,0x8049c12
 80493ae:	83 7d 08 00          	cmp    DWORD PTR [ebp+0x8],0x0
 80493b2:	74 05                	je     80493b9 <send_msg+0xf9>
 80493b4:	b8 0a 9c 04 08       	mov    eax,0x8049c0a
 80493b9:	50                   	push   eax
 80493ba:	8d 45 b0             	lea    eax,[ebp-0x50]
 80493bd:	50                   	push   eax
 80493be:	a1 00 ae 04 08       	mov    eax,ds:0x804ae00
 80493c3:	50                   	push   eax
 80493c4:	68 20 ae 04 08       	push   0x804ae20
 80493c9:	68 1b 9c 04 08       	push   0x8049c1b
 80493ce:	56                   	push   esi
 80493cf:	e8 6c f3 ff ff       	call   8048740 <fprintf@plt>
 80493d4:	31 d2                	xor    edx,edx
 80493d6:	83 c4 20             	add    esp,0x20
 80493d9:	3b 15 80 b4 04 08    	cmp    edx,DWORD PTR ds:0x804b480
 80493df:	7d 3a                	jge    804941b <send_msg+0x15b>
 80493e1:	83 c4 fc             	add    esp,0xfffffffc
 80493e4:	8d 04 92             	lea    eax,[edx+edx*4]
 80493e7:	c1 e0 04             	shl    eax,0x4
 80493ea:	05 80 b6 04 08       	add    eax,0x804b680
 80493ef:	50                   	push   eax
 80493f0:	8d 5a 01             	lea    ebx,[edx+0x1]
 80493f3:	53                   	push   ebx
 80493f4:	8d 45 b0             	lea    eax,[ebp-0x50]
 80493f7:	50                   	push   eax
 80493f8:	a1 00 ae 04 08       	mov    eax,ds:0x804ae00
 80493fd:	50                   	push   eax
 80493fe:	68 20 ae 04 08       	push   0x804ae20
 8049403:	68 37 9c 04 08       	push   0x8049c37
 8049408:	56                   	push   esi
 8049409:	e8 32 f3 ff ff       	call   8048740 <fprintf@plt>
 804940e:	83 c4 20             	add    esp,0x20
 8049411:	89 da                	mov    edx,ebx
 8049413:	3b 15 80 b4 04 08    	cmp    edx,DWORD PTR ds:0x804b480
 8049419:	7c c6                	jl     80493e1 <send_msg+0x121>
 804941b:	83 c4 f4             	add    esp,0xfffffff4
 804941e:	56                   	push   esi
 804941f:	e8 7c f3 ff ff       	call   80487a0 <rewind@plt>
 8049424:	83 c4 f4             	add    esp,0xfffffff4
 8049427:	68 81 9a 04 08       	push   0x8049a81
 804942c:	68 53 9c 04 08       	push   0x8049c53
 8049431:	68 58 9c 04 08       	push   0x8049c58
 8049436:	68 6f 9c 04 08       	push   0x8049c6f
 804943b:	68 c0 bc 04 08       	push   0x804bcc0
 8049440:	e8 5b f4 ff ff       	call   80488a0 <sprintf@plt>
 8049445:	83 c4 30             	add    esp,0x30
 8049448:	83 c4 f4             	add    esp,0xfffffff4
 804944b:	68 c0 bc 04 08       	push   0x804bcc0
 8049450:	e8 5b f3 ff ff       	call   80487b0 <system@plt>
 8049455:	83 c4 10             	add    esp,0x10
 8049458:	85 c0                	test   eax,eax
 804945a:	74 17                	je     8049473 <send_msg+0x1b3>
 804945c:	83 c4 f4             	add    esp,0xfffffff4
 804945f:	68 78 9c 04 08       	push   0x8049c78
 8049464:	e8 a7 f3 ff ff       	call   8048810 <printf@plt>
 8049469:	83 c4 f4             	add    esp,0xfffffff4
 804946c:	6a 08                	push   0x8
 804946e:	e8 dd f3 ff ff       	call   8048850 <exit@plt>
 8049473:	83 c4 f4             	add    esp,0xfffffff4
 8049476:	56                   	push   esi
 8049477:	e8 a4 f3 ff ff       	call   8048820 <fclose@plt>
 804947c:	83 c4 10             	add    esp,0x10
 804947f:	85 c0                	test   eax,eax
 8049481:	74 1d                	je     80494a0 <send_msg+0x1e0>
 8049483:	83 c4 f4             	add    esp,0xfffffff4
 8049486:	68 93 9c 04 08       	push   0x8049c93
 804948b:	e8 80 f3 ff ff       	call   8048810 <printf@plt>
 8049490:	83 c4 f4             	add    esp,0xfffffff4
 8049493:	6a 08                	push   0x8
 8049495:	e8 b6 f3 ff ff       	call   8048850 <exit@plt>
 804949a:	8d b6 00 00 00 00    	lea    esi,[esi+0x0]
 80494a0:	83 c4 f4             	add    esp,0xfffffff4
 80494a3:	57                   	push   edi
 80494a4:	e8 e7 f3 ff ff       	call   8048890 <dup@plt>
 80494a9:	83 c4 10             	add    esp,0x10
 80494ac:	85 c0                	test   eax,eax
 80494ae:	74 17                	je     80494c7 <send_msg+0x207>
 80494b0:	83 c4 f4             	add    esp,0xfffffff4
 80494b3:	68 ad 9c 04 08       	push   0x8049cad
 80494b8:	e8 53 f3 ff ff       	call   8048810 <printf@plt>
 80494bd:	83 c4 f4             	add    esp,0xfffffff4
 80494c0:	6a 08                	push   0x8
 80494c2:	e8 89 f3 ff ff       	call   8048850 <exit@plt>
 80494c7:	83 c4 f4             	add    esp,0xfffffff4
 80494ca:	57                   	push   edi
 80494cb:	e8 60 f2 ff ff       	call   8048730 <close@plt>
 80494d0:	83 c4 10             	add    esp,0x10
 80494d3:	85 c0                	test   eax,eax
 80494d5:	74 19                	je     80494f0 <send_msg+0x230>
 80494d7:	83 c4 f4             	add    esp,0xfffffff4
 80494da:	68 c9 9c 04 08       	push   0x8049cc9
 80494df:	e8 2c f3 ff ff       	call   8048810 <printf@plt>
 80494e4:	83 c4 f4             	add    esp,0xfffffff4
 80494e7:	6a 08                	push   0x8
 80494e9:	e8 62 f3 ff ff       	call   8048850 <exit@plt>
 80494ee:	89 f6                	mov    esi,esi
 80494f0:	8d 65 98             	lea    esp,[ebp-0x68]
 80494f3:	5b                   	pop    ebx
 80494f4:	5e                   	pop    esi
 80494f5:	5f                   	pop    edi
 80494f6:	89 ec                	mov    esp,ebp
 80494f8:	5d                   	pop    ebp
 80494f9:	c3                   	ret    
 80494fa:	89 f6                	mov    esi,esi

080494fc <explode_bomb>:
 80494fc:	55                   	push   ebp
 80494fd:	89 e5                	mov    ebp,esp
 80494ff:	83 ec 08             	sub    esp,0x8
 8049502:	83 c4 f4             	add    esp,0xfffffff4
 8049505:	68 e1 9c 04 08       	push   0x8049ce1
 804950a:	e8 01 f3 ff ff       	call   8048810 <printf@plt>
 804950f:	83 c4 f4             	add    esp,0xfffffff4
 8049512:	68 eb 9c 04 08       	push   0x8049ceb
 8049517:	e8 f4 f2 ff ff       	call   8048810 <printf@plt>
 804951c:	83 c4 20             	add    esp,0x20
 804951f:	83 c4 f4             	add    esp,0xfffffff4
 8049522:	6a 08                	push   0x8
 8049524:	e8 27 f3 ff ff       	call   8048850 <exit@plt>
 8049529:	8d 76 00             	lea    esi,[esi+0x0]

/*

*/
0804952c <phase_defused>:
 804952c:	55                   	push   ebp
 804952d:	89 e5                	mov    ebp,esp
 804952f:	83 ec 64             	sub    esp,0x64

 8049532:	53                   	push   ebx
 8049533:	83 3d 80 b4 04 08 06 	cmp    DWORD PTR ds:0x804b480,0x6
 804953a:	75 63                	jne    804959f <phase_defused+0x73>
 804953c:	8d 5d b0             	lea    ebx,[ebp-0x50]
 804953f:	53                   	push   ebx
 8049540:	8d 45 ac             	lea    eax,[ebp-0x54]
 8049543:	50                   	push   eax
 8049544:	68 03 9d 04 08       	push   0x8049d03
 8049549:	68 70 b7 04 08       	push   0x804b770
 804954e:	e8 0d f3 ff ff       	call   8048860 <sscanf@plt>
 8049553:	83 c4 10             	add    esp,0x10
 8049556:	83 f8 02             	cmp    eax,0x2
 8049559:	75 37                	jne    8049592 <phase_defused+0x66>
 804955b:	83 c4 f8             	add    esp,0xfffffff8
 804955e:	68 09 9d 04 08       	push   0x8049d09                    // arg1 = "austinpower"
 8049563:	53                   	push   ebx                          // arg2 = ebx 
 8049564:	e8 c7 fa ff ff       	call   8049030 <strings_not_equal>  //
 8049569:	83 c4 10             	add    esp,0x10                   // knops
 804956c:	85 c0                	test   eax,eax                    // if (eax == 0)
 804956e:	75 22                	jne    8049592 <phase_defused+0x66>  |
 8049570:	83 c4 f4             	add    esp,0xfffffff4                |
 8049573:	68 20 9d 04 08       	push   0x8049d20                  // |"Curses, you've found the secret phase!"
 8049578:	e8 93 f2 ff ff       	call   8048810 <printf@plt>       // |print
 804957d:	83 c4 f4             	add    esp,0xfffffff4             // |knop
 8049580:	68 60 9d 04 08       	push   0x8049d60                  // |"But finding it and solving it are quite different"
 8049585:	e8 86 f2 ff ff       	call   8048810 <printf@plt>       // |print
 804958a:	83 c4 20             	add    esp,0x20                   // |knop
 804958d:	e8 56 f9 ff ff       	call   8048ee8 <secret_phase>     // |secret_phase()
 8049592:	83 c4 f4             	add    esp,0xfffffff4             // |knop
 8049595:	68 a0 9d 04 08       	push   0x8049da0                  // "Congratulations! You've defused the bomb!"
 804959a:	e8 71 f2 ff ff       	call   8048810 <printf@plt>       // print
 804959f:	8b 5d 98             	mov    ebx,DWORD PTR [ebp-0x68]   // ebx = *(ebp-0x68)
 80495a2:	89 ec                	mov    esp,ebp                    // esp = ebp

 80495a4:	5d                   	pop    ebp                        // restaure ebp
 80495a5:	c3                   	ret                               // leave function



080495b0 <__do_global_ctors_aux>:
 80495b0:	55                   	push   ebp
 80495b1:	89 e5                	mov    ebp,esp
 80495b3:	83 ec 14             	sub    esp,0x14
 80495b6:	53                   	push   ebx
 80495b7:	bb 08 b5 04 08       	mov    ebx,0x804b508
 80495bc:	83 3d 08 b5 04 08 ff 	cmp    DWORD PTR ds:0x804b508,0xffffffff
 80495c3:	74 0c                	je     80495d1 <__do_global_ctors_aux+0x21>
 80495c5:	8b 03                	mov    eax,DWORD PTR [ebx]
 80495c7:	ff d0                	call   eax
 80495c9:	83 c3 fc             	add    ebx,0xfffffffc
 80495cc:	83 3b ff             	cmp    DWORD PTR [ebx],0xffffffff
 80495cf:	75 f4                	jne    80495c5 <__do_global_ctors_aux+0x15>
 80495d1:	5b                   	pop    ebx
 80495d2:	89 ec                	mov    esp,ebp
 80495d4:	5d                   	pop    ebp
 80495d5:	c3                   	ret    
 80495d6:	89 f6                	mov    esi,esi

080495d8 <init_dummy>:
 80495d8:	55                   	push   ebp
 80495d9:	89 e5                	mov    ebp,esp
 80495db:	83 ec 08             	sub    esp,0x8
 80495de:	89 ec                	mov    esp,ebp
 80495e0:	5d                   	pop    ebp
 80495e1:	c3                   	ret    
 80495e2:	90                   	nop
 80495e3:	90                   	nop

Disassembly of section .fini:

080495e4 <_fini>:
 80495e4:	55                   	push   ebp
 80495e5:	89 e5                	mov    ebp,esp
 80495e7:	53                   	push   ebx
 80495e8:	e8 00 00 00 00       	call   80495ed <_fini+0x9>
 80495ed:	5b                   	pop    ebx
 80495ee:	81 c3 2b 1f 00 00    	add    ebx,0x1f2b
 80495f4:	e8 17 f3 ff ff       	call   8048910 <__do_global_dtors_aux>
 80495f9:	8b 5d fc             	mov    ebx,DWORD PTR [ebp-0x4]
 80495fc:	c9                   	leave  
 80495fd:	c3                   	ret    

Disassembly of section .rodata:

08049600 <_IO_stdin_used-0x4>:
 8049600:	03 00                	add    eax,DWORD PTR [eax]
	...

08049604 <_IO_stdin_used>:
 8049604:	01 00                	add    DWORD PTR [eax],eax
 8049606:	02 00                	add    al,BYTE PTR [eax]
	...
 8049620:	72 00                	jb     8049622 <_IO_stdin_used+0x1e>
 8049622:	25 73 3a 20 45       	and    eax,0x45203a73
 8049627:	72 72                	jb     804969b <_IO_stdin_used+0x97>
 8049629:	6f                   	outs   dx,DWORD PTR ds:[esi]
 804962a:	72 3a                	jb     8049666 <_IO_stdin_used+0x62>
 804962c:	20 43 6f             	and    BYTE PTR [ebx+0x6f],al
 804962f:	75 6c                	jne    804969d <_IO_stdin_used+0x99>
 8049631:	64 6e                	outs   dx,BYTE PTR fs:[esi]
 8049633:	27                   	daa    
 8049634:	74 20                	je     8049656 <_IO_stdin_used+0x52>
 8049636:	6f                   	outs   dx,DWORD PTR ds:[esi]
 8049637:	70 65                	jo     804969e <_IO_stdin_used+0x9a>
 8049639:	6e                   	outs   dx,BYTE PTR ds:[esi]
 804963a:	20 25 73 0a 00 55    	and    BYTE PTR ds:0x55000a73,ah
 8049640:	73 61                	jae    80496a3 <_IO_stdin_used+0x9f>
 8049642:	67 65 3a 20          	cmp    ah,BYTE PTR gs:[bx+si]
 8049646:	25 73 20 5b 3c       	and    eax,0x3c5b2073
 804964b:	69 6e 70 75 74 5f 66 	imul   ebp,DWORD PTR [esi+0x70],0x665f7475
 8049652:	69 6c 65 3e 5d 0a 00 	imul   ebp,DWORD PTR [ebp+eiz*2+0x3e],0xa5d
 8049659:	00 
 804965a:	00 00                	add    BYTE PTR [eax],al
 804965c:	00 00                	add    BYTE PTR [eax],al
 804965e:	00 00                	add    BYTE PTR [eax],al
 8049660:	57                   	push   edi
 8049661:	65                   	gs
 8049662:	6c                   	ins    BYTE PTR es:[edi],dx
 8049663:	63 6f 6d             	arpl   WORD PTR [edi+0x6d],bp
 8049666:	65 20 74 68 69       	and    BYTE PTR gs:[eax+ebp*2+0x69],dh
 804966b:	73 20                	jae    804968d <_IO_stdin_used+0x89>
 804966d:	69 73 20 6d 79 20 6c 	imul   esi,DWORD PTR [ebx+0x20],0x6c20796d
 8049674:	69 74 74 6c 65 20 62 	imul   esi,DWORD PTR [esp+esi*2+0x6c],0x6f622065
 804967b:	6f 
 804967c:	6d                   	ins    DWORD PTR es:[edi],dx
 804967d:	62 20                	bound  esp,QWORD PTR [eax]
 804967f:	21 21                	and    DWORD PTR [ecx],esp
 8049681:	21 21                	and    DWORD PTR [ecx],esp
 8049683:	20 59 6f             	and    BYTE PTR [ecx+0x6f],bl
 8049686:	75 20                	jne    80496a8 <_IO_stdin_used+0xa4>
 8049688:	68 61 76 65 20       	push   0x20657661
 804968d:	36 20 73 74          	and    BYTE PTR ss:[ebx+0x74],dh
 8049691:	61                   	popa   
 8049692:	67                   	addr16
 8049693:	65                   	gs
 8049694:	73 20                	jae    80496b6 <_IO_stdin_used+0xb2>
 8049696:	77 69                	ja     8049701 <_IO_stdin_used+0xfd>
 8049698:	74 68                	je     8049702 <_IO_stdin_used+0xfe>
 804969a:	0a 00                	or     al,BYTE PTR [eax]
 804969c:	00 00                	add    BYTE PTR [eax],al
 804969e:	00 00                	add    BYTE PTR [eax],al
 80496a0:	6f                   	outs   dx,DWORD PTR ds:[esi]
 80496a1:	6e                   	outs   dx,BYTE PTR ds:[esi]
 80496a2:	6c                   	ins    BYTE PTR es:[edi],dx
 80496a3:	79 20                	jns    80496c5 <_IO_stdin_used+0xc1>
 80496a5:	6f                   	outs   dx,DWORD PTR ds:[esi]
 80496a6:	6e                   	outs   dx,BYTE PTR ds:[esi]
 80496a7:	65 20 6c 69 66       	and    BYTE PTR gs:[ecx+ebp*2+0x66],ch
 80496ac:	65 20 67 6f          	and    BYTE PTR gs:[edi+0x6f],ah
 80496b0:	6f                   	outs   dx,DWORD PTR ds:[esi]
 80496b1:	64 20 6c 75 63       	and    BYTE PTR fs:[ebp+esi*2+0x63],ch
 80496b6:	6b 20 21             	imul   esp,DWORD PTR [eax],0x21
 80496b9:	21 20                	and    DWORD PTR [eax],esp
 80496bb:	48                   	dec    eax
 80496bc:	61                   	popa   
 80496bd:	76 65                	jbe    8049724 <_IO_stdin_used+0x120>
 80496bf:	20 61 20             	and    BYTE PTR [ecx+0x20],ah
 80496c2:	6e                   	outs   dx,BYTE PTR ds:[esi]
 80496c3:	69 63 65 20 64 61 79 	imul   esp,DWORD PTR [ebx+0x65],0x79616420
 80496ca:	21 0a                	and    DWORD PTR [edx],ecx
	...
 80496e0:	50                   	push   eax
 80496e1:	68 61 73 65 20       	push   0x20657361
 80496e6:	31 20                	xor    DWORD PTR [eax],esp
 80496e8:	64                   	fs
 80496e9:	65                   	gs
 80496ea:	66                   	data16
 80496eb:	75 73                	jne    8049760 <_IO_stdin_used+0x15c>
 80496ed:	65 64 2e 20 48 6f    	gs fs and BYTE PTR cs:fs:gs:[eax+0x6f],cl
 80496f3:	77 20                	ja     8049715 <_IO_stdin_used+0x111>
 80496f5:	61                   	popa   
 80496f6:	62 6f 75             	bound  ebp,QWORD PTR [edi+0x75]
 80496f9:	74 20                	je     804971b <_IO_stdin_used+0x117>
 80496fb:	74 68                	je     8049765 <_IO_stdin_used+0x161>
 80496fd:	65 20 6e 65          	and    BYTE PTR gs:[esi+0x65],ch
 8049701:	78 74                	js     8049777 <_IO_stdin_used+0x173>
 8049703:	20 6f 6e             	and    BYTE PTR [edi+0x6e],ch
 8049706:	65                   	gs
 8049707:	3f                   	aas    
 8049708:	0a 00                	or     al,BYTE PTR [eax]
	...
 804971e:	00 00                	add    BYTE PTR [eax],al
 8049720:	54                   	push   esp
 8049721:	68 61 74 27 73       	push   0x73277461
 8049726:	20 6e 75             	and    BYTE PTR [esi+0x75],ch
 8049729:	6d                   	ins    DWORD PTR es:[edi],dx
 804972a:	62 65 72             	bound  esp,QWORD PTR [ebp+0x72]
 804972d:	20 32                	and    BYTE PTR [edx],dh
 804972f:	2e 20 20             	and    BYTE PTR cs:[eax],ah
 8049732:	4b                   	dec    ebx
 8049733:	65                   	gs
 8049734:	65                   	gs
 8049735:	70 20                	jo     8049757 <_IO_stdin_used+0x153>
 8049737:	67 6f                	outs   dx,DWORD PTR ds:[si]
 8049739:	69 6e 67 21 0a 00 48 	imul   ebp,DWORD PTR [esi+0x67],0x48000a21
 8049740:	61                   	popa   
 8049741:	6c                   	ins    BYTE PTR es:[edi],dx
 8049742:	66                   	data16
 8049743:	77 61                	ja     80497a6 <_IO_stdin_used+0x1a2>
 8049745:	79 20                	jns    8049767 <_IO_stdin_used+0x163>
 8049747:	74 68                	je     80497b1 <_IO_stdin_used+0x1ad>
 8049749:	65                   	gs
 804974a:	72 65                	jb     80497b1 <_IO_stdin_used+0x1ad>
 804974c:	21 0a                	and    DWORD PTR [edx],ecx
	...
 804975e:	00 00                	add    BYTE PTR [eax],al
 8049760:	53                   	push   ebx
 8049761:	6f                   	outs   dx,DWORD PTR ds:[esi]
 8049762:	20 79 6f             	and    BYTE PTR [ecx+0x6f],bh
 8049765:	75 20                	jne    8049787 <_IO_stdin_used+0x183>
 8049767:	67 6f                	outs   dx,DWORD PTR ds:[si]
 8049769:	74 20                	je     804978b <_IO_stdin_used+0x187>
 804976b:	74 68                	je     80497d5 <_IO_stdin_used+0x1d1>
 804976d:	61                   	popa   
 804976e:	74 20                	je     8049790 <_IO_stdin_used+0x18c>
 8049770:	6f                   	outs   dx,DWORD PTR ds:[esi]
 8049771:	6e                   	outs   dx,BYTE PTR ds:[esi]
 8049772:	65 2e 20 20          	gs and BYTE PTR cs:gs:[eax],ah
 8049776:	54                   	push   esp
 8049777:	72 79                	jb     80497f2 <_IO_stdin_used+0x1ee>
 8049779:	20 74 68 69          	and    BYTE PTR [eax+ebp*2+0x69],dh
 804977d:	73 20                	jae    804979f <_IO_stdin_used+0x19b>
 804977f:	6f                   	outs   dx,DWORD PTR ds:[esi]
 8049780:	6e                   	outs   dx,BYTE PTR ds:[esi]
 8049781:	65 2e 0a 00          	gs or  al,BYTE PTR cs:gs:[eax]
	...
 804979d:	00 00                	add    BYTE PTR [eax],al
 804979f:	00 47 6f             	add    BYTE PTR [edi+0x6f],al
 80497a2:	6f                   	outs   dx,DWORD PTR ds:[esi]
 80497a3:	64 20 77 6f          	and    BYTE PTR fs:[edi+0x6f],dh
 80497a7:	72 6b                	jb     8049814 <_IO_stdin_used+0x210>
 80497a9:	21 20                	and    DWORD PTR [eax],esp
 80497ab:	20 4f 6e             	and    BYTE PTR [edi+0x6e],cl
 80497ae:	20 74 6f 20          	and    BYTE PTR [edi+ebp*2+0x20],dh
 80497b2:	74 68                	je     804981c <_IO_stdin_used+0x218>
 80497b4:	65 20 6e 65          	and    BYTE PTR gs:[esi+0x65],ch
 80497b8:	78 74                	js     804982e <_IO_stdin_used+0x22a>
 80497ba:	2e 2e 2e 0a 00       	cs cs or al,BYTE PTR cs:[eax]
 80497bf:	00 50 75             	add    BYTE PTR [eax+0x75],dl
 80497c2:	62 6c 69 63          	bound  ebp,QWORD PTR [ecx+ebp*2+0x63]
 80497c6:	20 73 70             	and    BYTE PTR [ebx+0x70],dh
 80497c9:	65                   	gs
 80497ca:	61                   	popa   
 80497cb:	6b 69 6e 67          	imul   ebp,DWORD PTR [ecx+0x6e],0x67
 80497cf:	20 69 73             	and    BYTE PTR [ecx+0x73],ch
 80497d2:	20 76 65             	and    BYTE PTR [esi+0x65],dh
 80497d5:	72 79                	jb     8049850 <_IO_stdin_used+0x24c>
 80497d7:	20 65 61             	and    BYTE PTR [ebp+0x61],ah
 80497da:	73 79                	jae    8049855 <_IO_stdin_used+0x251>
 80497dc:	2e 00 25 64 20 25 63 	add    BYTE PTR cs:0x63252064,ah
 80497e3:	20 25 64 00 00 e0    	and    BYTE PTR ds:0xe0000064,ah
 80497e9:	8b 04 08             	mov    eax,DWORD PTR [eax+ecx*1]
 80497ec:	00 8c 04 08 16 8c 04 	add    BYTE PTR [esp+eax*1+0x48c1608],cl
 80497f3:	08 28                	or     BYTE PTR [eax],ch
 80497f5:	8c 04 08             	mov    WORD PTR [eax+ecx*1],es
 80497f8:	40                   	inc    eax
 80497f9:	8c 04 08             	mov    WORD PTR [eax+ecx*1],es
 80497fc:	52                   	push   edx
 80497fd:	8c 04 08             	mov    WORD PTR [eax+ecx*1],es
 8049800:	64 8c 04 08          	mov    WORD PTR fs:[eax+ecx*1],es
 8049804:	76 8c                	jbe    8049792 <_IO_stdin_used+0x18e>
 8049806:	04 08                	add    al,0x8
 8049808:	25 64 00 67 69       	and    eax,0x69670064
 804980d:	61                   	popa   
 804980e:	6e                   	outs   dx,BYTE PTR ds:[esi]
 804980f:	74 73                	je     8049884 <_IO_stdin_used+0x280>
	...
 804981d:	00 00                	add    BYTE PTR [eax],al
 804981f:	00 57 6f             	add    BYTE PTR [edi+0x6f],dl
 8049822:	77 21                	ja     8049845 <_IO_stdin_used+0x241>
 8049824:	20 59 6f             	and    BYTE PTR [ecx+0x6f],bl
 8049827:	75 27                	jne    8049850 <_IO_stdin_used+0x24c>
 8049829:	76 65                	jbe    8049890 <_IO_stdin_used+0x28c>
 804982b:	20 64 65 66          	and    BYTE PTR [ebp+eiz*2+0x66],ah
 804982f:	75 73                	jne    80498a4 <_IO_stdin_used+0x2a0>
 8049831:	65 64 20 74 68 65    	gs and BYTE PTR fs:gs:[eax+ebp*2+0x65],dh
 8049837:	20 73 65             	and    BYTE PTR [ebx+0x65],dh
 804983a:	63 72 65             	arpl   WORD PTR [edx+0x65],si
 804983d:	74 20                	je     804985f <_IO_stdin_used+0x25b>
 804983f:	73 74                	jae    80498b5 <_IO_stdin_used+0x2b1>
 8049841:	61                   	popa   
 8049842:	67 65 21 0a          	and    DWORD PTR gs:[bp+si],ecx
	...
 804985e:	00 00                	add    BYTE PTR [eax],al
 8049860:	77 68                	ja     80498ca <_IO_stdin_used+0x2c6>
 8049862:	69 74 65 66 69 73 68 	imul   esi,DWORD PTR [ebp+eiz*2+0x66],0x2e687369
 8049869:	2e 
 804986a:	63 6d 63             	arpl   WORD PTR [ebp+0x63],bp
 804986d:	6c                   	ins    BYTE PTR es:[edi],dx
 804986e:	2e 63 73 2e          	arpl   WORD PTR cs:[ebx+0x2e],si
 8049872:	63 6d 75             	arpl   WORD PTR [ebp+0x75],bp
 8049875:	2e                   	cs
 8049876:	65                   	gs
 8049877:	64                   	fs
 8049878:	75 00                	jne    804987a <_IO_stdin_used+0x276>
 804987a:	77 61                	ja     80498dd <_IO_stdin_used+0x2d9>
 804987c:	72 6d                	jb     80498eb <_IO_stdin_used+0x2e7>
 804987e:	6f                   	outs   dx,DWORD PTR ds:[esi]
 804987f:	75 74                	jne    80498f5 <_IO_stdin_used+0x2f1>
 8049881:	68 2e 63 6d 63       	push   0x636d632e
 8049886:	6c                   	ins    BYTE PTR es:[edi],dx
 8049887:	2e 63 73 2e          	arpl   WORD PTR cs:[ebx+0x2e],si
 804988b:	63 6d 75             	arpl   WORD PTR [ebp+0x75],bp
 804988e:	2e                   	cs
 804988f:	65                   	gs
 8049890:	64                   	fs
 8049891:	75 00                	jne    8049893 <_IO_stdin_used+0x28f>
 8049893:	77 61                	ja     80498f6 <_IO_stdin_used+0x2f2>
 8049895:	6c                   	ins    BYTE PTR es:[edi],dx
 8049896:	6c                   	ins    BYTE PTR es:[edi],dx
 8049897:	65                   	gs
 8049898:	79 65                	jns    80498ff <_IO_stdin_used+0x2fb>
 804989a:	2e 63 6d 63          	arpl   WORD PTR cs:[ebp+0x63],bp
 804989e:	6c                   	ins    BYTE PTR es:[edi],dx
 804989f:	2e 63 73 2e          	arpl   WORD PTR cs:[ebx+0x2e],si
 80498a3:	63 6d 75             	arpl   WORD PTR [ebp+0x75],bp
 80498a6:	2e                   	cs
 80498a7:	65                   	gs
 80498a8:	64                   	fs
 80498a9:	75 00                	jne    80498ab <_IO_stdin_used+0x2a7>
 80498ab:	73 74                	jae    8049921 <_IO_stdin_used+0x31d>
 80498ad:	75 72                	jne    8049921 <_IO_stdin_used+0x31d>
 80498af:	67 65 6f             	outs   dx,DWORD PTR gs:[si]
 80498b2:	6e                   	outs   dx,BYTE PTR ds:[esi]
 80498b3:	2e 63 6d 63          	arpl   WORD PTR cs:[ebp+0x63],bp
 80498b7:	6c                   	ins    BYTE PTR es:[edi],dx
 80498b8:	2e 63 73 2e          	arpl   WORD PTR cs:[ebx+0x2e],si
 80498bc:	63 6d 75             	arpl   WORD PTR [ebp+0x75],bp
 80498bf:	2e                   	cs
 80498c0:	65                   	gs
 80498c1:	64                   	fs
 80498c2:	75 00                	jne    80498c4 <_IO_stdin_used+0x2c0>
 80498c4:	73 74                	jae    804993a <_IO_stdin_used+0x336>
 80498c6:	72 69                	jb     8049931 <_IO_stdin_used+0x32d>
 80498c8:	70 65                	jo     804992f <_IO_stdin_used+0x32b>
 80498ca:	72 2e                	jb     80498fa <_IO_stdin_used+0x2f6>
 80498cc:	63 6d 63             	arpl   WORD PTR [ebp+0x63],bp
 80498cf:	6c                   	ins    BYTE PTR es:[edi],dx
 80498d0:	2e 63 73 2e          	arpl   WORD PTR cs:[ebx+0x2e],si
 80498d4:	63 6d 75             	arpl   WORD PTR [ebp+0x75],bp
 80498d7:	2e                   	cs
 80498d8:	65                   	gs
 80498d9:	64                   	fs
 80498da:	75 00                	jne    80498dc <_IO_stdin_used+0x2d8>
 80498dc:	73 6f                	jae    804994d <_IO_stdin_used+0x349>
 80498de:	63 6b 65             	arpl   WORD PTR [ebx+0x65],bp
 80498e1:	79 65                	jns    8049948 <_IO_stdin_used+0x344>
 80498e3:	2e 63 6d 63          	arpl   WORD PTR cs:[ebp+0x63],bp
 80498e7:	6c                   	ins    BYTE PTR es:[edi],dx
 80498e8:	2e 63 73 2e          	arpl   WORD PTR cs:[ebx+0x2e],si
 80498ec:	63 6d 75             	arpl   WORD PTR [ebp+0x75],bp
 80498ef:	2e                   	cs
 80498f0:	65                   	gs
 80498f1:	64                   	fs
 80498f2:	75 00                	jne    80498f4 <_IO_stdin_used+0x2f0>
 80498f4:	73 68                	jae    804995e <_IO_stdin_used+0x35a>
 80498f6:	65                   	gs
 80498f7:	65                   	gs
 80498f8:	70 73                	jo     804996d <_IO_stdin_used+0x369>
 80498fa:	68 65 61 64 2e       	push   0x2e646165
 80498ff:	63 6d 63             	arpl   WORD PTR [ebp+0x63],bp
 8049902:	6c                   	ins    BYTE PTR es:[edi],dx
 8049903:	2e 63 73 2e          	arpl   WORD PTR cs:[ebx+0x2e],si
 8049907:	63 6d 75             	arpl   WORD PTR [ebp+0x75],bp
 804990a:	2e                   	cs
 804990b:	65                   	gs
 804990c:	64                   	fs
 804990d:	75 00                	jne    804990f <_IO_stdin_used+0x30b>
 804990f:	73 68                	jae    8049979 <_IO_stdin_used+0x375>
 8049911:	61                   	popa   
 8049912:	64 2e 63 6d 63       	fs arpl WORD PTR cs:fs:[ebp+0x63],bp
 8049917:	6c                   	ins    BYTE PTR es:[edi],dx
 8049918:	2e 63 73 2e          	arpl   WORD PTR cs:[ebx+0x2e],si
 804991c:	63 6d 75             	arpl   WORD PTR [ebp+0x75],bp
 804991f:	2e                   	cs
 8049920:	65                   	gs
 8049921:	64                   	fs
 8049922:	75 00                	jne    8049924 <_IO_stdin_used+0x320>
 8049924:	73 61                	jae    8049987 <_IO_stdin_used+0x383>
 8049926:	75 67                	jne    804998f <_IO_stdin_used+0x38b>
 8049928:	65                   	gs
 8049929:	72 2e                	jb     8049959 <_IO_stdin_used+0x355>
 804992b:	63 6d 63             	arpl   WORD PTR [ebp+0x63],bp
 804992e:	6c                   	ins    BYTE PTR es:[edi],dx
 804992f:	2e 63 73 2e          	arpl   WORD PTR cs:[ebx+0x2e],si
 8049933:	63 6d 75             	arpl   WORD PTR [ebp+0x75],bp
 8049936:	2e                   	cs
 8049937:	65                   	gs
 8049938:	64                   	fs
 8049939:	75 00                	jne    804993b <_IO_stdin_used+0x337>
 804993b:	73 61                	jae    804999e <_IO_stdin_used+0x39a>
 804993d:	6c                   	ins    BYTE PTR es:[edi],dx
 804993e:	6d                   	ins    DWORD PTR es:[edi],dx
 804993f:	6f                   	outs   dx,DWORD PTR ds:[esi]
 8049940:	6e                   	outs   dx,BYTE PTR ds:[esi]
 8049941:	2e 63 6d 63          	arpl   WORD PTR cs:[ebp+0x63],bp
 8049945:	6c                   	ins    BYTE PTR es:[edi],dx
 8049946:	2e 63 73 2e          	arpl   WORD PTR cs:[ebx+0x2e],si
 804994a:	63 6d 75             	arpl   WORD PTR [ebp+0x75],bp
 804994d:	2e                   	cs
 804994e:	65                   	gs
 804994f:	64                   	fs
 8049950:	75 00                	jne    8049952 <_IO_stdin_used+0x34e>
 8049952:	70 75                	jo     80499c9 <_IO_stdin_used+0x3c5>
 8049954:	6d                   	ins    DWORD PTR es:[edi],dx
 8049955:	70 6b                	jo     80499c2 <_IO_stdin_used+0x3be>
 8049957:	69 6e 73 65 65 64 2e 	imul   ebp,DWORD PTR [esi+0x73],0x2e646565
 804995e:	63 6d 63             	arpl   WORD PTR [ebp+0x63],bp
 8049961:	6c                   	ins    BYTE PTR es:[edi],dx
 8049962:	2e 63 73 2e          	arpl   WORD PTR cs:[ebx+0x2e],si
 8049966:	63 6d 75             	arpl   WORD PTR [ebp+0x75],bp
 8049969:	2e                   	cs
 804996a:	65                   	gs
 804996b:	64                   	fs
 804996c:	75 00                	jne    804996e <_IO_stdin_used+0x36a>
 804996e:	70 69                	jo     80499d9 <_IO_stdin_used+0x3d5>
 8049970:	6b 65 2e 63          	imul   esp,DWORD PTR [ebp+0x2e],0x63
 8049974:	6d                   	ins    DWORD PTR es:[edi],dx
 8049975:	63 6c 2e 63          	arpl   WORD PTR [esi+ebp*1+0x63],bp
 8049979:	73 2e                	jae    80499a9 <_IO_stdin_used+0x3a5>
 804997b:	63 6d 75             	arpl   WORD PTR [ebp+0x75],bp
 804997e:	2e                   	cs
 804997f:	65                   	gs
 8049980:	64                   	fs
 8049981:	75 00                	jne    8049983 <_IO_stdin_used+0x37f>
 8049983:	70 69                	jo     80499ee <_IO_stdin_used+0x3ea>
 8049985:	63 6b 65             	arpl   WORD PTR [ebx+0x65],bp
 8049988:	72 65                	jb     80499ef <_IO_stdin_used+0x3eb>
 804998a:	6c                   	ins    BYTE PTR es:[edi],dx
 804998b:	2e 63 6d 63          	arpl   WORD PTR cs:[ebp+0x63],bp
 804998f:	6c                   	ins    BYTE PTR es:[edi],dx
 8049990:	2e 63 73 2e          	arpl   WORD PTR cs:[ebx+0x2e],si
 8049994:	63 6d 75             	arpl   WORD PTR [ebp+0x75],bp
 8049997:	2e                   	cs
 8049998:	65                   	gs
 8049999:	64                   	fs
 804999a:	75 00                	jne    804999c <_IO_stdin_used+0x398>
 804999c:	70 65                	jo     8049a03 <_IO_stdin_used+0x3ff>
 804999e:	72 63                	jb     8049a03 <_IO_stdin_used+0x3ff>
 80499a0:	68 2e 63 6d 63       	push   0x636d632e
 80499a5:	6c                   	ins    BYTE PTR es:[edi],dx
 80499a6:	2e 63 73 2e          	arpl   WORD PTR cs:[ebx+0x2e],si
 80499aa:	63 6d 75             	arpl   WORD PTR [ebp+0x75],bp
 80499ad:	2e                   	cs
 80499ae:	65                   	gs
 80499af:	64                   	fs
 80499b0:	75 00                	jne    80499b2 <_IO_stdin_used+0x3ae>
 80499b2:	70 61                	jo     8049a15 <_IO_stdin_used+0x411>
 80499b4:	64                   	fs
 80499b5:	64                   	fs
 80499b6:	6c                   	ins    BYTE PTR es:[edi],dx
 80499b7:	65 66 69 73 68 2e 63 	imul   si,WORD PTR gs:[ebx+0x68],0x632e
 80499be:	6d                   	ins    DWORD PTR es:[edi],dx
 80499bf:	63 6c 2e 63          	arpl   WORD PTR [esi+ebp*1+0x63],bp
 80499c3:	73 2e                	jae    80499f3 <_IO_stdin_used+0x3ef>
 80499c5:	63 6d 75             	arpl   WORD PTR [ebp+0x75],bp
 80499c8:	2e                   	cs
 80499c9:	65                   	gs
 80499ca:	64                   	fs
 80499cb:	75 00                	jne    80499cd <_IO_stdin_used+0x3c9>
 80499cd:	6d                   	ins    DWORD PTR es:[edi],dx
 80499ce:	75 73                	jne    8049a43 <_IO_stdin_used+0x43f>
 80499d0:	6b 69 65 2e          	imul   ebp,DWORD PTR [ecx+0x65],0x2e
 80499d4:	63 6d 63             	arpl   WORD PTR [ebp+0x63],bp
 80499d7:	6c                   	ins    BYTE PTR es:[edi],dx
 80499d8:	2e 63 73 2e          	arpl   WORD PTR cs:[ebx+0x2e],si
 80499dc:	63 6d 75             	arpl   WORD PTR [ebp+0x75],bp
 80499df:	2e                   	cs
 80499e0:	65                   	gs
 80499e1:	64                   	fs
 80499e2:	75 00                	jne    80499e4 <_IO_stdin_used+0x3e0>
 80499e4:	6d                   	ins    DWORD PTR es:[edi],dx
 80499e5:	69 6e 6e 6f 77 2e 63 	imul   ebp,DWORD PTR [esi+0x6e],0x632e776f
 80499ec:	6d                   	ins    DWORD PTR es:[edi],dx
 80499ed:	63 6c 2e 63          	arpl   WORD PTR [esi+ebp*1+0x63],bp
 80499f1:	73 2e                	jae    8049a21 <_IO_stdin_used+0x41d>
 80499f3:	63 6d 75             	arpl   WORD PTR [ebp+0x75],bp
 80499f6:	2e                   	cs
 80499f7:	65                   	gs
 80499f8:	64                   	fs
 80499f9:	75 00                	jne    80499fb <_IO_stdin_used+0x3f7>
 80499fb:	69 6e 63 6f 6e 6e 75 	imul   ebp,DWORD PTR [esi+0x63],0x756e6e6f
 8049a02:	2e 63 6d 63          	arpl   WORD PTR cs:[ebp+0x63],bp
 8049a06:	6c                   	ins    BYTE PTR es:[edi],dx
 8049a07:	2e 63 73 2e          	arpl   WORD PTR cs:[ebx+0x2e],si
 8049a0b:	63 6d 75             	arpl   WORD PTR [ebp+0x75],bp
 8049a0e:	2e                   	cs
 8049a0f:	65                   	gs
 8049a10:	64                   	fs
 8049a11:	75 00                	jne    8049a13 <_IO_stdin_used+0x40f>
 8049a13:	67 72 61             	addr16 jb 8049a77 <_IO_stdin_used+0x473>
 8049a16:	79 6c                	jns    8049a84 <_IO_stdin_used+0x480>
 8049a18:	69 6e 67 2e 63 6d 63 	imul   ebp,DWORD PTR [esi+0x67],0x636d632e
 8049a1f:	6c                   	ins    BYTE PTR es:[edi],dx
 8049a20:	2e 63 73 2e          	arpl   WORD PTR cs:[ebx+0x2e],si
 8049a24:	63 6d 75             	arpl   WORD PTR [ebp+0x75],bp
 8049a27:	2e                   	cs
 8049a28:	65                   	gs
 8049a29:	64                   	fs
 8049a2a:	75 00                	jne    8049a2c <_IO_stdin_used+0x428>
 8049a2c:	67 6f                	outs   dx,DWORD PTR ds:[si]
 8049a2e:	62 69 2e             	bound  ebp,QWORD PTR [ecx+0x2e]
 8049a31:	63 6d 63             	arpl   WORD PTR [ebp+0x63],bp
 8049a34:	6c                   	ins    BYTE PTR es:[edi],dx
 8049a35:	2e 63 73 2e          	arpl   WORD PTR cs:[ebx+0x2e],si
 8049a39:	63 6d 75             	arpl   WORD PTR [ebp+0x75],bp
 8049a3c:	2e                   	cs
 8049a3d:	65                   	gs
 8049a3e:	64                   	fs
 8049a3f:	75 00                	jne    8049a41 <_IO_stdin_used+0x43d>
 8049a41:	66                   	data16
 8049a42:	6c                   	ins    BYTE PTR es:[edi],dx
 8049a43:	69 65 72 2e 63 6d 63 	imul   esp,DWORD PTR [ebp+0x72],0x636d632e
 8049a4a:	6c                   	ins    BYTE PTR es:[edi],dx
 8049a4b:	2e 63 73 2e          	arpl   WORD PTR cs:[ebx+0x2e],si
 8049a4f:	63 6d 75             	arpl   WORD PTR [ebp+0x75],bp
 8049a52:	2e                   	cs
 8049a53:	65                   	gs
 8049a54:	64                   	fs
 8049a55:	75 00                	jne    8049a57 <_IO_stdin_used+0x453>
 8049a57:	63 68 75             	arpl   WORD PTR [eax+0x75],bp
 8049a5a:	6d                   	ins    DWORD PTR es:[edi],dx
 8049a5b:	2e 63 6d 63          	arpl   WORD PTR cs:[ebp+0x63],bp
 8049a5f:	6c                   	ins    BYTE PTR es:[edi],dx
 8049a60:	2e 63 73 2e          	arpl   WORD PTR cs:[ebx+0x2e],si
 8049a64:	63 6d 75             	arpl   WORD PTR [ebp+0x75],bp
 8049a67:	2e                   	cs
 8049a68:	65                   	gs
 8049a69:	64                   	fs
 8049a6a:	75 00                	jne    8049a6c <_IO_stdin_used+0x468>
 8049a6c:	63 68 61             	arpl   WORD PTR [eax+0x61],bp
 8049a6f:	72 2e                	jb     8049a9f <_IO_stdin_used+0x49b>
 8049a71:	63 6d 63             	arpl   WORD PTR [ebp+0x63],bp
 8049a74:	6c                   	ins    BYTE PTR es:[edi],dx
 8049a75:	2e 63 73 2e          	arpl   WORD PTR cs:[ebx+0x2e],si
 8049a79:	63 6d 75             	arpl   WORD PTR [ebp+0x75],bp
 8049a7c:	2e                   	cs
 8049a7d:	65                   	gs
 8049a7e:	64                   	fs
 8049a7f:	75 00                	jne    8049a81 <_IO_stdin_used+0x47d>
 8049a81:	62 6c 75 65          	bound  ebp,QWORD PTR [ebp+esi*2+0x65]
 8049a85:	67 69 6c 6c 2e 63 6d 	imul   ebp,DWORD PTR [si+0x6c],0x636d632e
 8049a8c:	63 
 8049a8d:	6c                   	ins    BYTE PTR es:[edi],dx
 8049a8e:	2e 63 73 2e          	arpl   WORD PTR cs:[ebx+0x2e],si
 8049a92:	63 6d 75             	arpl   WORD PTR [ebp+0x75],bp
 8049a95:	2e                   	cs
 8049a96:	65                   	gs
 8049a97:	64                   	fs
 8049a98:	75 00                	jne    8049a9a <_IO_stdin_used+0x496>
 8049a9a:	62 61 73             	bound  esp,QWORD PTR [ecx+0x73]
 8049a9d:	73 2e                	jae    8049acd <_IO_stdin_used+0x4c9>
 8049a9f:	63 6d 63             	arpl   WORD PTR [ebp+0x63],bp
 8049aa2:	6c                   	ins    BYTE PTR es:[edi],dx
 8049aa3:	2e 63 73 2e          	arpl   WORD PTR cs:[ebx+0x2e],si
 8049aa7:	63 6d 75             	arpl   WORD PTR [ebp+0x75],bp
 8049aaa:	2e                   	cs
 8049aab:	65                   	gs
 8049aac:	64                   	fs
 8049aad:	75 00                	jne    8049aaf <_IO_stdin_used+0x4ab>
	...
 8049abf:	00 53 6f             	add    BYTE PTR [ebx+0x6f],dl
 8049ac2:	20 79 6f             	and    BYTE PTR [ecx+0x6f],bh
 8049ac5:	75 20                	jne    8049ae7 <_IO_stdin_used+0x4e3>
 8049ac7:	74 68                	je     8049b31 <_IO_stdin_used+0x52d>
 8049ac9:	69 6e 6b 20 79 6f 75 	imul   ebp,DWORD PTR [esi+0x6b],0x756f7920
 8049ad0:	20 63 61             	and    BYTE PTR [ebx+0x61],ah
 8049ad3:	6e                   	outs   dx,BYTE PTR ds:[esi]
 8049ad4:	20 73 74             	and    BYTE PTR [ebx+0x74],dh
 8049ad7:	6f                   	outs   dx,DWORD PTR ds:[esi]
 8049ad8:	70 20                	jo     8049afa <_IO_stdin_used+0x4f6>
 8049ada:	74 68                	je     8049b44 <_IO_stdin_used+0x540>
 8049adc:	65 20 62 6f          	and    BYTE PTR gs:[edx+0x6f],ah
 8049ae0:	6d                   	ins    DWORD PTR es:[edi],dx
 8049ae1:	62 20                	bound  esp,QWORD PTR [eax]
 8049ae3:	77 69                	ja     8049b4e <_IO_stdin_used+0x54a>
 8049ae5:	74 68                	je     8049b4f <_IO_stdin_used+0x54b>
 8049ae7:	20 63 74             	and    BYTE PTR [ebx+0x74],ah
 8049aea:	72 6c                	jb     8049b58 <_IO_stdin_used+0x554>
 8049aec:	2d 63 2c 20 64       	sub    eax,0x64202c63
 8049af1:	6f                   	outs   dx,DWORD PTR ds:[esi]
 8049af2:	20 79 6f             	and    BYTE PTR [ecx+0x6f],bh
 8049af5:	75 3f                	jne    8049b36 <_IO_stdin_used+0x532>
 8049af7:	0a 00                	or     al,BYTE PTR [eax]
 8049af9:	57                   	push   edi
 8049afa:	65                   	gs
 8049afb:	6c                   	ins    BYTE PTR es:[edi],dx
 8049afc:	6c                   	ins    BYTE PTR es:[edi],dx
 8049afd:	2e 2e 2e 00 4f 4b    	cs cs add BYTE PTR cs:[edi+0x4b],cl
 8049b03:	2e 20 3a             	and    BYTE PTR cs:[edx],bh
 8049b06:	2d 29 0a 00 49       	sub    eax,0x49000a29
 8049b0b:	6e                   	outs   dx,BYTE PTR ds:[esi]
 8049b0c:	76 61                	jbe    8049b6f <_IO_stdin_used+0x56b>
 8049b0e:	6c                   	ins    BYTE PTR es:[edi],dx
 8049b0f:	69 64 20 70 68 61 73 	imul   esp,DWORD PTR [eax+eiz*1+0x70],0x65736168
 8049b16:	65 
 8049b17:	25 73 0a 00 25       	and    eax,0x25000a73
 8049b1c:	64 20 25 64 20 25 64 	and    BYTE PTR fs:0x64252064,ah
 8049b23:	20 25 64 20 25 64    	and    BYTE PTR ds:0x64252064,ah
 8049b29:	20 25 64 00 42 61    	and    BYTE PTR ds:0x61420064,ah
 8049b2f:	64 20 68 6f          	and    BYTE PTR fs:[eax+0x6f],ch
 8049b33:	73 74                	jae    8049ba9 <_IO_stdin_used+0x5a5>
 8049b35:	20 28                	and    BYTE PTR [eax],ch
 8049b37:	31 29                	xor    DWORD PTR [ecx],ebp
 8049b39:	2e 0a 00             	or     al,BYTE PTR cs:[eax]
 8049b3c:	42                   	inc    edx
 8049b3d:	61                   	popa   
 8049b3e:	64 20 68 6f          	and    BYTE PTR fs:[eax+0x6f],ch
 8049b42:	73 74                	jae    8049bb8 <_IO_stdin_used+0x5b4>
 8049b44:	20 28                	and    BYTE PTR [eax],ch
 8049b46:	32 29                	xor    ch,BYTE PTR [ecx]
 8049b48:	2e 0a 00             	or     al,BYTE PTR cs:[eax]
 8049b4b:	42                   	inc    edx
 8049b4c:	61                   	popa   
 8049b4d:	64 20 68 6f          	and    BYTE PTR fs:[eax+0x6f],ch
 8049b51:	73 74                	jae    8049bc7 <_IO_stdin_used+0x5c3>
 8049b53:	20 28                	and    BYTE PTR [eax],ch
 8049b55:	33 29                	xor    ebp,DWORD PTR [ecx]
 8049b57:	2e 0a 00             	or     al,BYTE PTR cs:[eax]
 8049b5a:	00 00                	add    BYTE PTR [eax],al
 8049b5c:	00 00                	add    BYTE PTR [eax],al
 8049b5e:	00 00                	add    BYTE PTR [eax],al
 8049b60:	45                   	inc    ebp
 8049b61:	72 72                	jb     8049bd5 <_IO_stdin_used+0x5d1>
 8049b63:	6f                   	outs   dx,DWORD PTR ds:[esi]
 8049b64:	72 3a                	jb     8049ba0 <_IO_stdin_used+0x59c>
 8049b66:	20 50 72             	and    BYTE PTR [eax+0x72],dl
 8049b69:	65                   	gs
 8049b6a:	6d                   	ins    DWORD PTR es:[edi],dx
 8049b6b:	61                   	popa   
 8049b6c:	74 75                	je     8049be3 <_IO_stdin_used+0x5df>
 8049b6e:	72 65                	jb     8049bd5 <_IO_stdin_used+0x5d1>
 8049b70:	20 45 4f             	and    BYTE PTR [ebp+0x4f],al
 8049b73:	46                   	inc    esi
 8049b74:	20 6f 6e             	and    BYTE PTR [edi+0x6e],ch
 8049b77:	20 73 74             	and    BYTE PTR [ebx+0x74],dh
 8049b7a:	64 69 6e 0a 00 47 52 	imul   ebp,DWORD PTR fs:[esi+0xa],0x41524700
 8049b81:	41 
 8049b82:	44                   	inc    esp
 8049b83:	45                   	inc    ebp
 8049b84:	5f                   	pop    edi
 8049b85:	42                   	inc    edx
 8049b86:	4f                   	dec    edi
 8049b87:	4d                   	dec    ebp
 8049b88:	42                   	inc    edx
 8049b89:	00 45 72             	add    BYTE PTR [ebp+0x72],al
 8049b8c:	72 6f                	jb     8049bfd <_IO_stdin_used+0x5f9>
 8049b8e:	72 3a                	jb     8049bca <_IO_stdin_used+0x5c6>
 8049b90:	20 49 6e             	and    BYTE PTR [ecx+0x6e],cl
 8049b93:	70 75                	jo     8049c0a <_IO_stdin_used+0x606>
 8049b95:	74 20                	je     8049bb7 <_IO_stdin_used+0x5b3>
 8049b97:	6c                   	ins    BYTE PTR es:[edi],dx
 8049b98:	69 6e 65 20 74 6f 6f 	imul   ebp,DWORD PTR [esi+0x65],0x6f6f7420
 8049b9f:	20 6c 6f 6e          	and    BYTE PTR [edi+ebp*2+0x6e],ch
 8049ba3:	67 0a 00             	or     al,BYTE PTR [bx+si]
 8049ba6:	45                   	inc    ebp
 8049ba7:	52                   	push   edx
 8049ba8:	52                   	push   edx
 8049ba9:	4f                   	dec    edi
 8049baa:	52                   	push   edx
 8049bab:	3a 20                	cmp    ah,BYTE PTR [eax]
 8049bad:	64                   	fs
 8049bae:	75 70                	jne    8049c20 <_IO_stdin_used+0x61c>
 8049bb0:	28 30                	sub    BYTE PTR [eax],dh
 8049bb2:	29 20                	sub    DWORD PTR [eax],esp
 8049bb4:	65                   	gs
 8049bb5:	72 72                	jb     8049c29 <_IO_stdin_used+0x625>
 8049bb7:	6f                   	outs   dx,DWORD PTR ds:[esi]
 8049bb8:	72 0a                	jb     8049bc4 <_IO_stdin_used+0x5c0>
 8049bba:	00 45 52             	add    BYTE PTR [ebp+0x52],al
 8049bbd:	52                   	push   edx
 8049bbe:	4f                   	dec    edi
 8049bbf:	52                   	push   edx
 8049bc0:	3a 20                	cmp    ah,BYTE PTR [eax]
 8049bc2:	63 6c 6f 73          	arpl   WORD PTR [edi+ebp*2+0x73],bp
 8049bc6:	65 20 65 72          	and    BYTE PTR gs:[ebp+0x72],ah
 8049bca:	72 6f                	jb     8049c3b <_IO_stdin_used+0x637>
 8049bcc:	72 0a                	jb     8049bd8 <_IO_stdin_used+0x5d4>
 8049bce:	00 45 52             	add    BYTE PTR [ebp+0x52],al
 8049bd1:	52                   	push   edx
 8049bd2:	4f                   	dec    edi
 8049bd3:	52                   	push   edx
 8049bd4:	3a 20                	cmp    ah,BYTE PTR [eax]
 8049bd6:	74 6d                	je     8049c45 <_IO_stdin_used+0x641>
 8049bd8:	70 66                	jo     8049c40 <_IO_stdin_used+0x63c>
 8049bda:	69 6c 65 20 65 72 72 	imul   ebp,DWORD PTR [ebp+eiz*2+0x20],0x6f727265
 8049be1:	6f 
 8049be2:	72 0a                	jb     8049bee <_IO_stdin_used+0x5ea>
 8049be4:	00 53 75             	add    BYTE PTR [ebx+0x75],dl
 8049be7:	62 6a 65             	bound  ebp,QWORD PTR [edx+0x65]
 8049bea:	63 74 3a 20          	arpl   WORD PTR [edx+edi*1+0x20],si
 8049bee:	42                   	inc    edx
 8049bef:	6f                   	outs   dx,DWORD PTR ds:[esi]
 8049bf0:	6d                   	ins    DWORD PTR es:[edi],dx
 8049bf1:	62 20                	bound  esp,QWORD PTR [eax]
 8049bf3:	6e                   	outs   dx,BYTE PTR ds:[esi]
 8049bf4:	6f                   	outs   dx,DWORD PTR ds:[esi]
 8049bf5:	74 69                	je     8049c60 <_IO_stdin_used+0x65c>
 8049bf7:	66 69 63 61 74 69    	imul   sp,WORD PTR [ebx+0x61],0x6974
 8049bfd:	6f                   	outs   dx,DWORD PTR ds:[esi]
 8049bfe:	6e                   	outs   dx,BYTE PTR ds:[esi]
 8049bff:	0a 00                	or     al,BYTE PTR [eax]
 8049c01:	0a 00                	or     al,BYTE PTR [eax]
 8049c03:	6e                   	outs   dx,BYTE PTR ds:[esi]
 8049c04:	6f                   	outs   dx,DWORD PTR ds:[esi]
 8049c05:	62 6f 64             	bound  ebp,QWORD PTR [edi+0x64]
 8049c08:	79 00                	jns    8049c0a <_IO_stdin_used+0x606>
 8049c0a:	64                   	fs
 8049c0b:	65                   	gs
 8049c0c:	66                   	data16
 8049c0d:	75 73                	jne    8049c82 <_IO_stdin_used+0x67e>
 8049c0f:	65 64 00 65 78       	gs add BYTE PTR fs:gs:[ebp+0x78],ah
 8049c14:	70 6c                	jo     8049c82 <_IO_stdin_used+0x67e>
 8049c16:	6f                   	outs   dx,DWORD PTR ds:[esi]
 8049c17:	64 65 64 00 62 6f    	fs gs add BYTE PTR fs:gs:[edx+0x6f],ah
 8049c1d:	6d                   	ins    DWORD PTR es:[edi],dx
 8049c1e:	62 2d 68 65 61 64    	bound  ebp,QWORD PTR ds:0x64616568
 8049c24:	65                   	gs
 8049c25:	72 3a                	jb     8049c61 <_IO_stdin_used+0x65d>
 8049c27:	25 73 3a 25 64       	and    eax,0x64253a73
 8049c2c:	3a 25 73 3a 25 73    	cmp    ah,BYTE PTR ds:0x73253a73
 8049c32:	3a 25 64 0a 00 62    	cmp    ah,BYTE PTR ds:0x62000a64
 8049c38:	6f                   	outs   dx,DWORD PTR ds:[esi]
 8049c39:	6d                   	ins    DWORD PTR es:[edi],dx
 8049c3a:	62 2d 73 74 72 69    	bound  ebp,QWORD PTR ds:0x69727473
 8049c40:	6e                   	outs   dx,BYTE PTR ds:[esi]
 8049c41:	67 3a 25             	cmp    ah,BYTE PTR [di]
 8049c44:	73 3a                	jae    8049c80 <_IO_stdin_used+0x67c>
 8049c46:	25 64 3a 25 73       	and    eax,0x73253a64
 8049c4b:	3a 25 64 3a 25 73    	cmp    ah,BYTE PTR ds:0x73253a64
 8049c51:	0a 00                	or     al,BYTE PTR [eax]
 8049c53:	62 6f 6d             	bound  ebp,QWORD PTR [edi+0x6d]
 8049c56:	62 00                	bound  eax,QWORD PTR [eax]
 8049c58:	2f                   	das    
 8049c59:	75 73                	jne    8049cce <_IO_stdin_used+0x6ca>
 8049c5b:	72 2f                	jb     8049c8c <_IO_stdin_used+0x688>
 8049c5d:	73 62                	jae    8049cc1 <_IO_stdin_used+0x6bd>
 8049c5f:	69 6e 2f 73 65 6e 64 	imul   ebp,DWORD PTR [esi+0x2f],0x646e6573
 8049c66:	6d                   	ins    DWORD PTR es:[edi],dx
 8049c67:	61                   	popa   
 8049c68:	69 6c 20 2d 62 6d 00 	imul   ebp,DWORD PTR [eax+eiz*1+0x2d],0x25006d62
 8049c6f:	25 
 8049c70:	73 20                	jae    8049c92 <_IO_stdin_used+0x68e>
 8049c72:	25 73 40 25 73       	and    eax,0x73254073
 8049c77:	00 45 52             	add    BYTE PTR [ebp+0x52],al
 8049c7a:	52                   	push   edx
 8049c7b:	4f                   	dec    edi
 8049c7c:	52                   	push   edx
 8049c7d:	3a 20                	cmp    ah,BYTE PTR [eax]
 8049c7f:	6e                   	outs   dx,BYTE PTR ds:[esi]
 8049c80:	6f                   	outs   dx,DWORD PTR ds:[esi]
 8049c81:	74 69                	je     8049cec <_IO_stdin_used+0x6e8>
 8049c83:	66 69 63 61 74 69    	imul   sp,WORD PTR [ebx+0x61],0x6974
 8049c89:	6f                   	outs   dx,DWORD PTR ds:[esi]
 8049c8a:	6e                   	outs   dx,BYTE PTR ds:[esi]
 8049c8b:	20 65 72             	and    BYTE PTR [ebp+0x72],ah
 8049c8e:	72 6f                	jb     8049cff <_IO_stdin_used+0x6fb>
 8049c90:	72 0a                	jb     8049c9c <_IO_stdin_used+0x698>
 8049c92:	00 45 52             	add    BYTE PTR [ebp+0x52],al
 8049c95:	52                   	push   edx
 8049c96:	4f                   	dec    edi
 8049c97:	52                   	push   edx
 8049c98:	3a 20                	cmp    ah,BYTE PTR [eax]
 8049c9a:	66                   	data16
 8049c9b:	63 6c 6f 73          	arpl   WORD PTR [edi+ebp*2+0x73],bp
 8049c9f:	65 28 74 6d 70       	sub    BYTE PTR gs:[ebp+ebp*2+0x70],dh
 8049ca4:	29 20                	sub    DWORD PTR [eax],esp
 8049ca6:	65                   	gs
 8049ca7:	72 72                	jb     8049d1b <_IO_stdin_used+0x717>
 8049ca9:	6f                   	outs   dx,DWORD PTR ds:[esi]
 8049caa:	72 0a                	jb     8049cb6 <_IO_stdin_used+0x6b2>
 8049cac:	00 45 52             	add    BYTE PTR [ebp+0x52],al
 8049caf:	52                   	push   edx
 8049cb0:	4f                   	dec    edi
 8049cb1:	52                   	push   edx
 8049cb2:	3a 20                	cmp    ah,BYTE PTR [eax]
 8049cb4:	64                   	fs
 8049cb5:	75 70                	jne    8049d27 <_IO_stdin_used+0x723>
 8049cb7:	28 74 6d 70          	sub    BYTE PTR [ebp+ebp*2+0x70],dh
 8049cbb:	73 74                	jae    8049d31 <_IO_stdin_used+0x72d>
 8049cbd:	64 69 6e 29 20 65 72 	imul   ebp,DWORD PTR fs:[esi+0x29],0x72726520
 8049cc4:	72 
 8049cc5:	6f                   	outs   dx,DWORD PTR ds:[esi]
 8049cc6:	72 0a                	jb     8049cd2 <_IO_stdin_used+0x6ce>
 8049cc8:	00 45 52             	add    BYTE PTR [ebp+0x52],al
 8049ccb:	52                   	push   edx
 8049ccc:	4f                   	dec    edi
 8049ccd:	52                   	push   edx
 8049cce:	3a 20                	cmp    ah,BYTE PTR [eax]
 8049cd0:	63 6c 6f 73          	arpl   WORD PTR [edi+ebp*2+0x73],bp
 8049cd4:	65 28 74 6d 70       	sub    BYTE PTR gs:[ebp+ebp*2+0x70],dh
 8049cd9:	73 74                	jae    8049d4f <_IO_stdin_used+0x74b>
 8049cdb:	64 69 6e 29 0a 00 0a 	imul   ebp,DWORD PTR fs:[esi+0x29],0x420a000a
 8049ce2:	42 
 8049ce3:	4f                   	dec    edi
 8049ce4:	4f                   	dec    edi
 8049ce5:	4d                   	dec    ebp
 8049ce6:	21 21                	and    DWORD PTR [ecx],esp
 8049ce8:	21 0a                	and    DWORD PTR [edx],ecx
 8049cea:	00 54 68 65          	add    BYTE PTR [eax+ebp*2+0x65],dl
 8049cee:	20 62 6f             	and    BYTE PTR [edx+0x6f],ah
 8049cf1:	6d                   	ins    DWORD PTR es:[edi],dx
 8049cf2:	62 20                	bound  esp,QWORD PTR [eax]
 8049cf4:	68 61 73 20 62       	push   0x62207361
 8049cf9:	6c                   	ins    BYTE PTR es:[edi],dx
 8049cfa:	6f                   	outs   dx,DWORD PTR ds:[esi]
 8049cfb:	77 6e                	ja     8049d6b <_IO_stdin_used+0x767>
 8049cfd:	20 75 70             	and    BYTE PTR [ebp+0x70],dh
 8049d00:	2e 0a 00             	or     al,BYTE PTR cs:[eax]
 8049d03:	25 64 20 25 73       	and    eax,0x73252064
 8049d08:	00 61 75             	add    BYTE PTR [ecx+0x75],ah
 8049d0b:	73 74                	jae    8049d81 <_IO_stdin_used+0x77d>
 8049d0d:	69 6e 70 6f 77 65 72 	imul   ebp,DWORD PTR [esi+0x70],0x7265776f
 8049d14:	73 00                	jae    8049d16 <_IO_stdin_used+0x712>
	...
 8049d1e:	00 00                	add    BYTE PTR [eax],al
 8049d20:	43                   	inc    ebx
 8049d21:	75 72                	jne    8049d95 <_IO_stdin_used+0x791>
 8049d23:	73 65                	jae    8049d8a <_IO_stdin_used+0x786>
 8049d25:	73 2c                	jae    8049d53 <_IO_stdin_used+0x74f>
 8049d27:	20 79 6f             	and    BYTE PTR [ecx+0x6f],bh
 8049d2a:	75 27                	jne    8049d53 <_IO_stdin_used+0x74f>
 8049d2c:	76 65                	jbe    8049d93 <_IO_stdin_used+0x78f>
 8049d2e:	20 66 6f             	and    BYTE PTR [esi+0x6f],ah
 8049d31:	75 6e                	jne    8049da1 <_IO_stdin_used+0x79d>
 8049d33:	64 20 74 68 65       	and    BYTE PTR fs:[eax+ebp*2+0x65],dh
 8049d38:	20 73 65             	and    BYTE PTR [ebx+0x65],dh
 8049d3b:	63 72 65             	arpl   WORD PTR [edx+0x65],si
 8049d3e:	74 20                	je     8049d60 <_IO_stdin_used+0x75c>
 8049d40:	70 68                	jo     8049daa <_IO_stdin_used+0x7a6>
 8049d42:	61                   	popa   
 8049d43:	73 65                	jae    8049daa <_IO_stdin_used+0x7a6>
 8049d45:	21 0a                	and    DWORD PTR [edx],ecx
	...
 8049d5f:	00 42 75             	add    BYTE PTR [edx+0x75],al
 8049d62:	74 20                	je     8049d84 <_IO_stdin_used+0x780>
 8049d64:	66 69 6e 64 69 6e    	imul   bp,WORD PTR [esi+0x64],0x6e69
 8049d6a:	67 20 69 74          	and    BYTE PTR [bx+di+0x74],ch
 8049d6e:	20 61 6e             	and    BYTE PTR [ecx+0x6e],ah
 8049d71:	64 20 73 6f          	and    BYTE PTR fs:[ebx+0x6f],dh
 8049d75:	6c                   	ins    BYTE PTR es:[edi],dx
 8049d76:	76 69                	jbe    8049de1 <_IO_stdin_used+0x7dd>
 8049d78:	6e                   	outs   dx,BYTE PTR ds:[esi]
 8049d79:	67 20 69 74          	and    BYTE PTR [bx+di+0x74],ch
 8049d7d:	20 61 72             	and    BYTE PTR [ecx+0x72],ah
 8049d80:	65 20 71 75          	and    BYTE PTR gs:[ecx+0x75],dh
 8049d84:	69 74 65 20 64 69 66 	imul   esi,DWORD PTR [ebp+eiz*2+0x20],0x66666964
 8049d8b:	66 
 8049d8c:	65                   	gs
 8049d8d:	72 65                	jb     8049df4 <_IO_stdin_used+0x7f0>
 8049d8f:	6e                   	outs   dx,BYTE PTR ds:[esi]
 8049d90:	74 2e                	je     8049dc0 <_IO_stdin_used+0x7bc>
 8049d92:	2e 2e 0a 00          	cs or  al,BYTE PTR cs:[eax]
	...
 8049d9e:	00 00                	add    BYTE PTR [eax],al
 8049da0:	43                   	inc    ebx
 8049da1:	6f                   	outs   dx,DWORD PTR ds:[esi]
 8049da2:	6e                   	outs   dx,BYTE PTR ds:[esi]
 8049da3:	67 72 61             	addr16 jb 8049e07 <_IO_stdin_used+0x803>
 8049da6:	74 75                	je     8049e1d <_IO_stdin_used+0x819>
 8049da8:	6c                   	ins    BYTE PTR es:[edi],dx
 8049da9:	61                   	popa   
 8049daa:	74 69                	je     8049e15 <_IO_stdin_used+0x811>
 8049dac:	6f                   	outs   dx,DWORD PTR ds:[esi]
 8049dad:	6e                   	outs   dx,BYTE PTR ds:[esi]
 8049dae:	73 21                	jae    8049dd1 <_IO_stdin_used+0x7cd>
 8049db0:	20 59 6f             	and    BYTE PTR [ecx+0x6f],bl
 8049db3:	75 27                	jne    8049ddc <_IO_stdin_used+0x7d8>
 8049db5:	76 65                	jbe    8049e1c <_IO_stdin_used+0x818>
 8049db7:	20 64 65 66          	and    BYTE PTR [ebp+eiz*2+0x66],ah
 8049dbb:	75 73                	jne    8049e30 <_IO_stdin_used+0x82c>
 8049dbd:	65 64 20 74 68 65    	gs and BYTE PTR fs:gs:[eax+ebp*2+0x65],dh
 8049dc3:	20 62 6f             	and    BYTE PTR [edx+0x6f],ah
 8049dc6:	6d                   	ins    DWORD PTR es:[edi],dx
 8049dc7:	62 21                	bound  esp,QWORD PTR [ecx]
 8049dc9:	0a 00                	or     al,BYTE PTR [eax]

Disassembly of section .data:

0804ade0 <__data_start>:
 804ade0:	00 00                	add    BYTE PTR [eax],al
	...

0804ade4 <p.3>:
 804ade4:	14 b5                	adc    al,0xb5
 804ade6:	04 08                	add    al,0x8

0804ade8 <completed.4>:
 804ade8:	00 00                	add    BYTE PTR [eax],al
	...

0804adec <force_to_data>:
	...

0804ae00 <bomb_id>:
	...

0804ae20 <lab_id>:
 804ae20:	67 65 6e             	outs   dx,BYTE PTR gs:[si]
 804ae23:	65                   	gs
 804ae24:	72 69                	jb     804ae8f <lab_id+0x6f>
 804ae26:	63 00                	arpl   WORD PTR [eax],ax
	...

0804b220 <array.123>:
 804b220:	69 73 72 76 65 61 77 	imul   esi,DWORD PTR [ebx+0x72],0x77616576
 804b227:	68 6f 62 70 6e       	push   0x6e70626f
 804b22c:	75 74                	jne    804b2a2 <n42+0x6>
 804b22e:	66                   	data16
 804b22f:	67 b0 01             	addr16 mov al,0x1

0804b230 <node6>:
 804b230:	b0 01                	mov    al,0x1
 804b232:	00 00                	add    BYTE PTR [eax],al
 804b234:	06                   	push   es
 804b235:	00 00                	add    BYTE PTR [eax],al
 804b237:	00 00                	add    BYTE PTR [eax],al
 804b239:	00 00                	add    BYTE PTR [eax],al
	...

0804b23c <node5>:
 804b23c:	d4 00                	aam    0x0
 804b23e:	00 00                	add    BYTE PTR [eax],al
 804b240:	05 00 00 00 30       	add    eax,0x30000000
 804b245:	b2 04                	mov    dl,0x4
 804b247:	08 e5                	or     ch,ah

0804b248 <node4>:
 804b248:	e5 03                	in     eax,0x3
 804b24a:	00 00                	add    BYTE PTR [eax],al
 804b24c:	04 00                	add    al,0x0
 804b24e:	00 00                	add    BYTE PTR [eax],al
 804b250:	3c b2                	cmp    al,0xb2
 804b252:	04 08                	add    al,0x8

0804b254 <node3>:
 804b254:	2d 01 00 00 03       	sub    eax,0x3000001
 804b259:	00 00                	add    BYTE PTR [eax],al
 804b25b:	00 48 b2             	add    BYTE PTR [eax-0x4e],cl
 804b25e:	04 08                	add    al,0x8

0804b260 <node2>:
 804b260:	d5 02                	aad    0x2
 804b262:	00 00                	add    BYTE PTR [eax],al
 804b264:	02 00                	add    al,BYTE PTR [eax]
 804b266:	00 00                	add    BYTE PTR [eax],al
 804b268:	54                   	push   esp
 804b269:	b2 04                	mov    dl,0x4
 804b26b:	08 fd                	or     ch,bh

0804b26c <node1>:
 804b26c:	fd                   	std    
 804b26d:	00 00                	add    BYTE PTR [eax],al
 804b26f:	00 01                	add    BYTE PTR [ecx],al
 804b271:	00 00                	add    BYTE PTR [eax],al
 804b273:	00 60 b2             	add    BYTE PTR [eax-0x4e],ah
 804b276:	04 08                	add    al,0x8

0804b278 <n48>:
 804b278:	e9 03 00 00 00       	jmp    804b280 <n48+0x8>
 804b27d:	00 00                	add    BYTE PTR [eax],al
 804b27f:	00 00                	add    BYTE PTR [eax],al
 804b281:	00 00                	add    BYTE PTR [eax],al
	...

0804b284 <n46>:
 804b284:	2f                   	das    
	...

0804b290 <n43>:
 804b290:	14 00                	adc    al,0x0
	...

0804b29c <n42>:
 804b29c:	07                   	pop    es
	...

0804b2a8 <n44>:
 804b2a8:	23 00                	and    eax,DWORD PTR [eax]
	...

0804b2b4 <n47>:
 804b2b4:	63 00                	arpl   WORD PTR [eax],ax
	...

0804b2c0 <n41>:
 804b2c0:	01 00                	add    DWORD PTR [eax],eax
	...

0804b2cc <n45>:
 804b2cc:	28 00                	sub    BYTE PTR [eax],al
	...

0804b2d8 <n34>:
 804b2d8:	6b 00 00             	imul   eax,DWORD PTR [eax],0x0
 804b2db:	00 b4 b2 04 08 78 b2 	add    BYTE PTR [edx+esi*4-0x4d87f7fc],dh
 804b2e2:	04 08                	add    al,0x8

0804b2e4 <n31>:
 804b2e4:	06                   	push   es
 804b2e5:	00 00                	add    BYTE PTR [eax],al
 804b2e7:	00 c0                	add    al,al
 804b2e9:	b2 04                	mov    dl,0x4
 804b2eb:	08 9c b2 04 08 2d 00 	or     BYTE PTR [edx+esi*4+0x2d0804],bl

0804b2f0 <n33>:
 804b2f0:	2d 00 00 00 cc       	sub    eax,0xcc000000
 804b2f5:	b2 04                	mov    dl,0x4
 804b2f7:	08 84 b2 04 08 16 00 	or     BYTE PTR [edx+esi*4+0x160804],al

0804b2fc <n32>:
 804b2fc:	16                   	push   ss
 804b2fd:	00 00                	add    BYTE PTR [eax],al
 804b2ff:	00 90 b2 04 08 a8    	add    BYTE PTR [eax-0x57f7fb4e],dl
 804b305:	b2 04                	mov    dl,0x4
 804b307:	08 32                	or     BYTE PTR [edx],dh

0804b308 <n22>:
 804b308:	32 00                	xor    al,BYTE PTR [eax]
 804b30a:	00 00                	add    BYTE PTR [eax],al
 804b30c:	f0 b2 04             	lock mov dl,0x4
 804b30f:	08 d8                	or     al,bl
 804b311:	b2 04                	mov    dl,0x4
 804b313:	08 08                	or     BYTE PTR [eax],cl

0804b314 <n21>:
 804b314:	08 00                	or     BYTE PTR [eax],al
 804b316:	00 00                	add    BYTE PTR [eax],al
 804b318:	e4 b2                	in     al,0xb2
 804b31a:	04 08                	add    al,0x8
 804b31c:	fc                   	cld    
 804b31d:	b2 04                	mov    dl,0x4
 804b31f:	08 24 00             	or     BYTE PTR [eax+eax*1],ah

0804b320 <n1>:
 804b320:	24 00                	and    al,0x0
 804b322:	00 00                	add    BYTE PTR [eax],al
 804b324:	14 b3                	adc    al,0xb3
 804b326:	04 08                	add    al,0x8
 804b328:	08 b3 04 08 00 00    	or     BYTE PTR [ebx+0x804],dh
	...

0804b340 <host_table>:
 804b340:	9a 9a 04 08 81 9a 04 	call   0x49a:0x8108049a
 804b347:	08 6c 9a 04          	or     BYTE PTR [edx+ebx*4+0x4],ch
 804b34b:	08 57 9a             	or     BYTE PTR [edi-0x66],dl
 804b34e:	04 08                	add    al,0x8
 804b350:	41                   	inc    ecx
 804b351:	9a 04 08 2c 9a 04 08 	call   0x804:0x9a2c0804
 804b358:	13 9a 04 08 fb 99    	adc    ebx,DWORD PTR [edx-0x6604f7fc]
 804b35e:	04 08                	add    al,0x8
 804b360:	e4 99                	in     al,0x99
 804b362:	04 08                	add    al,0x8
 804b364:	cd 99                	int    0x99
 804b366:	04 08                	add    al,0x8
 804b368:	b2 99                	mov    dl,0x99
 804b36a:	04 08                	add    al,0x8
 804b36c:	9c                   	pushf  
 804b36d:	99                   	cdq    
 804b36e:	04 08                	add    al,0x8
 804b370:	83 99 04 08 6e 99 04 	sbb    DWORD PTR [ecx-0x6691f7fc],0x4
 804b377:	08 52 99             	or     BYTE PTR [edx-0x67],dl
 804b37a:	04 08                	add    al,0x8
 804b37c:	3b 99 04 08 24 99    	cmp    ebx,DWORD PTR [ecx-0x66dbf7fc]
 804b382:	04 08                	add    al,0x8
 804b384:	0f 99 04 08          	setns  BYTE PTR [eax+ecx*1]
 804b388:	f4                   	hlt    
 804b389:	98                   	cwde   
 804b38a:	04 08                	add    al,0x8
 804b38c:	dc 98 04 08 c4 98    	fcomp  QWORD PTR [eax-0x673bf7fc]
 804b392:	04 08                	add    al,0x8
 804b394:	ab                   	stos   DWORD PTR es:[edi],eax
 804b395:	98                   	cwde   
 804b396:	04 08                	add    al,0x8
 804b398:	93                   	xchg   ebx,eax
 804b399:	98                   	cwde   
 804b39a:	04 08                	add    al,0x8
 804b39c:	7a 98                	jp     804b336 <n1+0x16>
 804b39e:	04 08                	add    al,0x8
 804b3a0:	60                   	pusha  
 804b3a1:	98                   	cwde   
 804b3a2:	04 08                	add    al,0x8
	...

0804b480 <num_input_strings>:
 804b480:	00 00                	add    BYTE PTR [eax],al
	...

Disassembly of section .eh_frame:

0804b484 <__EH_FRAME_BEGIN__>:
 804b484:	10 00                	adc    BYTE PTR [eax],al
 804b486:	00 00                	add    BYTE PTR [eax],al
 804b488:	00 00                	add    BYTE PTR [eax],al
 804b48a:	00 00                	add    BYTE PTR [eax],al
 804b48c:	01 00                	add    DWORD PTR [eax],eax
 804b48e:	01 7c 08 0c          	add    DWORD PTR [eax+ecx*1+0xc],edi
 804b492:	04 04                	add    al,0x4
 804b494:	88 01                	mov    BYTE PTR [ecx],al
 804b496:	00 00                	add    BYTE PTR [eax],al
 804b498:	68 00 00 00 18       	push   0x18000000
 804b49d:	00 00                	add    BYTE PTR [eax],al
 804b49f:	00 b0 89 04 08 6d    	add    BYTE PTR [eax+0x6d080489],dh
 804b4a5:	01 00                	add    DWORD PTR [eax],eax
 804b4a7:	00 41 0e             	add    BYTE PTR [ecx+0xe],al
 804b4aa:	08 85 02 42 0d 05    	or     BYTE PTR [ebp+0x50d4202],al
 804b4b0:	44                   	inc    esp
 804b4b1:	83 08 6a             	or     DWORD PTR [eax],0x6a
 804b4b4:	2e 10 02             	adc    BYTE PTR cs:[edx],al
 804b4b7:	4f                   	dec    edi
 804b4b8:	2e 00 4d 2e          	add    BYTE PTR cs:[ebp+0x2e],cl
 804b4bc:	10 55 2e             	adc    BYTE PTR [ebp+0x2e],dl
 804b4bf:	00 49 2e             	add    BYTE PTR [ecx+0x2e],cl
 804b4c2:	10 45 2e             	adc    BYTE PTR [ebp+0x2e],al
 804b4c5:	00 4d 2e             	add    BYTE PTR [ebp+0x2e],cl
 804b4c8:	10 48 2e             	adc    BYTE PTR [eax+0x2e],cl
 804b4cb:	00 49 2e             	add    BYTE PTR [ecx+0x2e],cl
 804b4ce:	10 45 2e             	adc    BYTE PTR [ebp+0x2e],al
 804b4d1:	00 4d 2e             	add    BYTE PTR [ebp+0x2e],cl
 804b4d4:	10 48 2e             	adc    BYTE PTR [eax+0x2e],cl
 804b4d7:	00 49 2e             	add    BYTE PTR [ecx+0x2e],cl
 804b4da:	10 45 2e             	adc    BYTE PTR [ebp+0x2e],al
 804b4dd:	00 4d 2e             	add    BYTE PTR [ebp+0x2e],cl
 804b4e0:	10 48 2e             	adc    BYTE PTR [eax+0x2e],cl
 804b4e3:	00 49 2e             	add    BYTE PTR [ecx+0x2e],cl
 804b4e6:	10 45 2e             	adc    BYTE PTR [ebp+0x2e],al
 804b4e9:	00 4d 2e             	add    BYTE PTR [ebp+0x2e],cl
 804b4ec:	10 48 2e             	adc    BYTE PTR [eax+0x2e],cl
 804b4ef:	00 49 2e             	add    BYTE PTR [ecx+0x2e],cl
 804b4f2:	10 45 2e             	adc    BYTE PTR [ebp+0x2e],al
 804b4f5:	00 4d 2e             	add    BYTE PTR [ebp+0x2e],cl
 804b4f8:	10 48 2e             	adc    BYTE PTR [eax+0x2e],cl
 804b4fb:	00 49 2e             	add    BYTE PTR [ecx+0x2e],cl
 804b4fe:	10 45 2e             	adc    BYTE PTR [ebp+0x2e],al
 804b501:	00 00                	add    BYTE PTR [eax],al
	...

0804b504 <__FRAME_END__>:
 804b504:	00 00                	add    BYTE PTR [eax],al
	...

Disassembly of section .ctors:

0804b508 <__CTOR_LIST__>:
 804b508:	ff                   	(bad)  
 804b509:	ff                   	(bad)  
 804b50a:	ff                   	(bad)  
 804b50b:	ff 00                	inc    DWORD PTR [eax]

0804b50c <__CTOR_END__>:
 804b50c:	00 00                	add    BYTE PTR [eax],al
	...

Disassembly of section .dtors:

0804b510 <__DTOR_LIST__>:
 804b510:	ff                   	(bad)  
 804b511:	ff                   	(bad)  
 804b512:	ff                   	(bad)  
 804b513:	ff 00                	inc    DWORD PTR [eax]

0804b514 <__DTOR_END__>:
 804b514:	00 00                	add    BYTE PTR [eax],al
	...

Disassembly of section .got:

0804b518 <_GLOBAL_OFFSET_TABLE_>:
 804b518:	98                   	cwde   
 804b519:	b5 04                	mov    ch,0x4
 804b51b:	08 00                	or     BYTE PTR [eax],al
 804b51d:	00 00                	add    BYTE PTR [eax],al
 804b51f:	00 00                	add    BYTE PTR [eax],al
 804b521:	00 00                	add    BYTE PTR [eax],al
 804b523:	00 26                	add    BYTE PTR [esi],ah
 804b525:	87 04 08             	xchg   DWORD PTR [eax+ecx*1],eax
 804b528:	36 87 04 08          	xchg   DWORD PTR ss:[eax+ecx*1],eax
 804b52c:	46                   	inc    esi
 804b52d:	87 04 08             	xchg   DWORD PTR [eax+ecx*1],eax
 804b530:	56                   	push   esi
 804b531:	87 04 08             	xchg   DWORD PTR [eax+ecx*1],eax
 804b534:	66 87 04 08          	xchg   WORD PTR [eax+ecx*1],ax
 804b538:	76 87                	jbe    804b4c1 <force_to_data+0x3d>
 804b53a:	04 08                	add    al,0x8
 804b53c:	86 87 04 08 96 87    	xchg   BYTE PTR [edi-0x7869f7fc],al
 804b542:	04 08                	add    al,0x8
 804b544:	a6                   	cmps   BYTE PTR ds:[esi],BYTE PTR es:[edi]
 804b545:	87 04 08             	xchg   DWORD PTR [eax+ecx*1],eax
 804b548:	b6 87                	mov    dh,0x87
 804b54a:	04 08                	add    al,0x8
 804b54c:	c6 87 04 08 d6 87 04 	mov    BYTE PTR [edi-0x7829f7fc],0x4
 804b553:	08 e6                	or     dh,ah
 804b555:	87 04 08             	xchg   DWORD PTR [eax+ecx*1],eax
 804b558:	f6 87 04 08 06 88 04 	test   BYTE PTR [edi-0x77f9f7fc],0x4
 804b55f:	08 16                	or     BYTE PTR [esi],dl
 804b561:	88 04 08             	mov    BYTE PTR [eax+ecx*1],al
 804b564:	26 88 04 08          	mov    BYTE PTR es:[eax+ecx*1],al
 804b568:	36 88 04 08          	mov    BYTE PTR ss:[eax+ecx*1],al
 804b56c:	46                   	inc    esi
 804b56d:	88 04 08             	mov    BYTE PTR [eax+ecx*1],al
 804b570:	56                   	push   esi
 804b571:	88 04 08             	mov    BYTE PTR [eax+ecx*1],al
 804b574:	66                   	data16
 804b575:	88 04 08             	mov    BYTE PTR [eax+ecx*1],al
 804b578:	76 88                	jbe    804b502 <force_to_data+0x7e>
 804b57a:	04 08                	add    al,0x8
 804b57c:	86 88 04 08 96 88    	xchg   BYTE PTR [eax-0x7769f7fc],cl
 804b582:	04 08                	add    al,0x8
 804b584:	a6                   	cmps   BYTE PTR ds:[esi],BYTE PTR es:[edi]
 804b585:	88 04 08             	mov    BYTE PTR [eax+ecx*1],al
 804b588:	b6 88                	mov    dh,0x88
 804b58a:	04 08                	add    al,0x8
 804b58c:	c6                   	(bad)  
 804b58d:	88 04 08             	mov    BYTE PTR [eax+ecx*1],al
 804b590:	d6                   	(bad)  
 804b591:	88 04 08             	mov    BYTE PTR [eax+ecx*1],al
 804b594:	00 00                	add    BYTE PTR [eax],al
	...

Disassembly of section .dynamic:

0804b598 <_DYNAMIC>:
 804b598:	01 00                	add    DWORD PTR [eax],eax
 804b59a:	00 00                	add    BYTE PTR [eax],al
 804b59c:	10 00                	adc    BYTE PTR [eax],al
 804b59e:	00 00                	add    BYTE PTR [eax],al
 804b5a0:	0c 00                	or     al,0x0
 804b5a2:	00 00                	add    BYTE PTR [eax],al
 804b5a4:	e0 86                	loopne 804b52c <_GLOBAL_OFFSET_TABLE_+0x14>
 804b5a6:	04 08                	add    al,0x8
 804b5a8:	0d 00 00 00 e4       	or     eax,0xe4000000
 804b5ad:	95                   	xchg   ebp,eax
 804b5ae:	04 08                	add    al,0x8
 804b5b0:	04 00                	add    al,0x0
 804b5b2:	00 00                	add    BYTE PTR [eax],al
 804b5b4:	28 81 04 08 05 00    	sub    BYTE PTR [ecx+0x50804],al
 804b5ba:	00 00                	add    BYTE PTR [eax],al
 804b5bc:	1c 84                	sbb    al,0x84
 804b5be:	04 08                	add    al,0x8
 804b5c0:	06                   	push   es
 804b5c1:	00 00                	add    BYTE PTR [eax],al
 804b5c3:	00 fc                	add    ah,bh
 804b5c5:	81 04 08 0a 00 00 00 	add    DWORD PTR [eax+ecx*1],0xa
 804b5cc:	3b 01                	cmp    eax,DWORD PTR [ecx]
 804b5ce:	00 00                	add    BYTE PTR [eax],al
 804b5d0:	0b 00                	or     eax,DWORD PTR [eax]
 804b5d2:	00 00                	add    BYTE PTR [eax],al
 804b5d4:	10 00                	adc    BYTE PTR [eax],al
 804b5d6:	00 00                	add    BYTE PTR [eax],al
 804b5d8:	15 00 00 00 00       	adc    eax,0x0
 804b5dd:	00 00                	add    BYTE PTR [eax],al
 804b5df:	00 03                	add    BYTE PTR [ebx],al
 804b5e1:	00 00                	add    BYTE PTR [eax],al
 804b5e3:	00 18                	add    BYTE PTR [eax],bl
 804b5e5:	b5 04                	mov    ch,0x4
 804b5e7:	08 02                	or     BYTE PTR [edx],al
 804b5e9:	00 00                	add    BYTE PTR [eax],al
 804b5eb:	00 e0                	add    al,ah
 804b5ed:	00 00                	add    BYTE PTR [eax],al
 804b5ef:	00 14 00             	add    BYTE PTR [eax+eax*1],dl
 804b5f2:	00 00                	add    BYTE PTR [eax],al
 804b5f4:	11 00                	adc    DWORD PTR [eax],eax
 804b5f6:	00 00                	add    BYTE PTR [eax],al
 804b5f8:	17                   	pop    ss
 804b5f9:	00 00                	add    BYTE PTR [eax],al
 804b5fb:	00 00                	add    BYTE PTR [eax],al
 804b5fd:	86 04 08             	xchg   BYTE PTR [eax+ecx*1],al
 804b600:	11 00                	adc    DWORD PTR [eax],eax
 804b602:	00 00                	add    BYTE PTR [eax],al
 804b604:	e0 85                	loopne 804b58b <_GLOBAL_OFFSET_TABLE_+0x73>
 804b606:	04 08                	add    al,0x8
 804b608:	12 00                	adc    al,BYTE PTR [eax]
 804b60a:	00 00                	add    BYTE PTR [eax],al
 804b60c:	20 00                	and    BYTE PTR [eax],al
 804b60e:	00 00                	add    BYTE PTR [eax],al
 804b610:	13 00                	adc    eax,DWORD PTR [eax]
 804b612:	00 00                	add    BYTE PTR [eax],al
 804b614:	08 00                	or     BYTE PTR [eax],al
 804b616:	00 00                	add    BYTE PTR [eax],al
 804b618:	fe                   	(bad)  
 804b619:	ff                   	(bad)  
 804b61a:	ff 6f b0             	jmp    FWORD PTR [edi-0x50]
 804b61d:	85 04 08             	test   DWORD PTR [eax+ecx*1],eax
 804b620:	ff                   	(bad)  
 804b621:	ff                   	(bad)  
 804b622:	ff 6f 01             	jmp    FWORD PTR [edi+0x1]
 804b625:	00 00                	add    BYTE PTR [eax],al
 804b627:	00 f0                	add    al,dh
 804b629:	ff                   	(bad)  
 804b62a:	ff 6f 6c             	jmp    FWORD PTR [edi+0x6c]
 804b62d:	85 04 08             	test   DWORD PTR [eax+ecx*1],eax
	...

Disassembly of section .bss:

0804b640 <stdout@@GLIBC_2.0>:
 804b640:	00 00                	add    BYTE PTR [eax],al
	...

0804b644 <__ctype_b@@GLIBC_2.0>:
 804b644:	00 00                	add    BYTE PTR [eax],al
	...

0804b648 <stdin@@GLIBC_2.0>:
 804b648:	00 00                	add    BYTE PTR [eax],al
	...

0804b64c <object.11>:
	...

0804b664 <infile>:
	...

0804b680 <input_strings>:
	...

0804bcc0 <scratch>:
	...

Disassembly of section .stab:

00000000 <.stab>:
   0:	01 00                	add    DWORD PTR [eax],eax
   2:	00 00                	add    BYTE PTR [eax],al
   4:	00 00                	add    BYTE PTR [eax],al
   6:	9b                   	fwait
   7:	00 4f 13             	add    BYTE PTR [edi+0x13],cl
   a:	00 00                	add    BYTE PTR [eax],al
   c:	08 00                	or     BYTE PTR [eax],al
   e:	00 00                	add    BYTE PTR [eax],al
  10:	64 00 00             	add    BYTE PTR fs:[eax],al
  13:	00 04 89             	add    BYTE PTR [ecx+ecx*4],al
  16:	04 08                	add    al,0x8
  18:	01 00                	add    DWORD PTR [eax],eax
  1a:	00 00                	add    BYTE PTR [eax],al
  1c:	64 00 00             	add    BYTE PTR fs:[eax],al
  1f:	00 04 89             	add    BYTE PTR [ecx+ecx*4],al
  22:	04 08                	add    al,0x8
  24:	2b 00                	sub    eax,DWORD PTR [eax]
  26:	00 00                	add    BYTE PTR [eax],al
  28:	3c 00                	cmp    al,0x0
  2a:	00 00                	add    BYTE PTR [eax],al
  2c:	00 00                	add    BYTE PTR [eax],al
  2e:	00 00                	add    BYTE PTR [eax],al
  30:	3a 00                	cmp    al,BYTE PTR [eax]
  32:	00 00                	add    BYTE PTR [eax],al
  34:	80 00 00             	add    BYTE PTR [eax],0x0
  37:	00 00                	add    BYTE PTR [eax],al
  39:	00 00                	add    BYTE PTR [eax],al
  3b:	00 69 00             	add    BYTE PTR [ecx+0x0],ch
  3e:	00 00                	add    BYTE PTR [eax],al
  40:	80 00 00             	add    BYTE PTR [eax],0x0
  43:	00 00                	add    BYTE PTR [eax],al
  45:	00 00                	add    BYTE PTR [eax],al
  47:	00 83 00 00 00 80    	add    BYTE PTR [ebx-0x80000000],al
  4d:	00 00                	add    BYTE PTR [eax],al
  4f:	00 00                	add    BYTE PTR [eax],al
  51:	00 00                	add    BYTE PTR [eax],al
  53:	00 b7 00 00 00 80    	add    BYTE PTR [edi-0x80000000],dh
  59:	00 00                	add    BYTE PTR [eax],al
  5b:	00 00                	add    BYTE PTR [eax],al
  5d:	00 00                	add    BYTE PTR [eax],al
  5f:	00 ef                	add    bh,ch
  61:	00 00                	add    BYTE PTR [eax],al
  63:	00 80 00 00 00 00    	add    BYTE PTR [eax+0x0],al
  69:	00 00                	add    BYTE PTR [eax],al
  6b:	00 2c 01             	add    BYTE PTR [ecx+eax*1],ch
  6e:	00 00                	add    BYTE PTR [eax],al
  70:	80 00 00             	add    BYTE PTR [eax],0x0
  73:	00 00                	add    BYTE PTR [eax],al
  75:	00 00                	add    BYTE PTR [eax],al
  77:	00 78 01             	add    BYTE PTR [eax+0x1],bh
  7a:	00 00                	add    BYTE PTR [eax],al
  7c:	80 00 00             	add    BYTE PTR [eax],0x0
  7f:	00 00                	add    BYTE PTR [eax],al
  81:	00 00                	add    BYTE PTR [eax],al
  83:	00 c4                	add    ah,al
  85:	01 00                	add    DWORD PTR [eax],eax
  87:	00 80 00 00 00 00    	add    BYTE PTR [eax+0x0],al
  8d:	00 00                	add    BYTE PTR [eax],al
  8f:	00 ea                	add    dl,ch
  91:	01 00                	add    DWORD PTR [eax],eax
  93:	00 80 00 00 00 00    	add    BYTE PTR [eax+0x0],al
  99:	00 00                	add    BYTE PTR [eax],al
  9b:	00 14 02             	add    BYTE PTR [edx+eax*1],dl
  9e:	00 00                	add    BYTE PTR [eax],al
  a0:	80 00 00             	add    BYTE PTR [eax],0x0
  a3:	00 00                	add    BYTE PTR [eax],al
  a5:	00 00                	add    BYTE PTR [eax],al
  a7:	00 3a                	add    BYTE PTR [edx],bh
  a9:	02 00                	add    al,BYTE PTR [eax]
  ab:	00 80 00 00 00 00    	add    BYTE PTR [eax+0x0],al
  b1:	00 00                	add    BYTE PTR [eax],al
  b3:	00 5f 02             	add    BYTE PTR [edi+0x2],bl
  b6:	00 00                	add    BYTE PTR [eax],al
  b8:	80 00 00             	add    BYTE PTR [eax],0x0
  bb:	00 00                	add    BYTE PTR [eax],al
  bd:	00 00                	add    BYTE PTR [eax],al
  bf:	00 79 02             	add    BYTE PTR [ecx+0x2],bh
  c2:	00 00                	add    BYTE PTR [eax],al
  c4:	80 00 00             	add    BYTE PTR [eax],0x0
  c7:	00 00                	add    BYTE PTR [eax],al
  c9:	00 00                	add    BYTE PTR [eax],al
  cb:	00 94 02 00 00 80 00 	add    BYTE PTR [edx+eax*1+0x800000],dl
  d2:	00 00                	add    BYTE PTR [eax],al
  d4:	00 00                	add    BYTE PTR [eax],al
  d6:	00 00                	add    BYTE PTR [eax],al
  d8:	b5 02                	mov    ch,0x2
  da:	00 00                	add    BYTE PTR [eax],al
  dc:	80 00 00             	add    BYTE PTR [eax],0x0
  df:	00 00                	add    BYTE PTR [eax],al
  e1:	00 00                	add    BYTE PTR [eax],al
  e3:	00 ee                	add    dh,ch
  e5:	02 00                	add    al,BYTE PTR [eax]
  e7:	00 80 00 00 00 00    	add    BYTE PTR [eax+0x0],al
  ed:	00 00                	add    BYTE PTR [eax],al
  ef:	00 11                	add    BYTE PTR [ecx],dl
  f1:	03 00                	add    eax,DWORD PTR [eax]
  f3:	00 80 00 00 00 00    	add    BYTE PTR [eax+0x0],al
  f9:	00 00                	add    BYTE PTR [eax],al
  fb:	00 35 03 00 00 80    	add    BYTE PTR ds:0x80000003,dh
 101:	00 00                	add    BYTE PTR [eax],al
 103:	00 00                	add    BYTE PTR [eax],al
 105:	00 00                	add    BYTE PTR [eax],al
 107:	00 5f 03             	add    BYTE PTR [edi+0x3],bl
 10a:	00 00                	add    BYTE PTR [eax],al
 10c:	80 00 00             	add    BYTE PTR [eax],0x0
 10f:	00 00                	add    BYTE PTR [eax],al
 111:	00 00                	add    BYTE PTR [eax],al
 113:	00 73 03             	add    BYTE PTR [ebx+0x3],dh
 116:	00 00                	add    BYTE PTR [eax],al
 118:	82                   	(bad)  
 119:	00 00                	add    BYTE PTR [eax],al
 11b:	00 00                	add    BYTE PTR [eax],al
 11d:	00 00                	add    BYTE PTR [eax],al
 11f:	00 8d 03 00 00 82    	add    BYTE PTR [ebp-0x7dfffffd],cl
	...
 12d:	00 00                	add    BYTE PTR [eax],al
 12f:	00 a2 00 00 00 00    	add    BYTE PTR [edx+0x0],ah
 135:	00 00                	add    BYTE PTR [eax],al
 137:	00 c5                	add    ch,al
 139:	03 00                	add    eax,DWORD PTR [eax]
 13b:	00 82 00 00 00 00    	add    BYTE PTR [edx+0x0],al
 141:	00 00                	add    BYTE PTR [eax],al
 143:	00 da                	add    dl,bl
 145:	03 00                	add    eax,DWORD PTR [eax]
 147:	00 82 00 00 00 00    	add    BYTE PTR [edx+0x0],al
 14d:	00 00                	add    BYTE PTR [eax],al
 14f:	00 ec                	add    ah,ch
 151:	03 00                	add    eax,DWORD PTR [eax]
 153:	00 82 00 00 00 00    	add    BYTE PTR [edx+0x0],al
 159:	00 00                	add    BYTE PTR [eax],al
 15b:	00 02                	add    BYTE PTR [edx],al
 15d:	04 00                	add    al,0x0
 15f:	00 82 00 00 00 00    	add    BYTE PTR [edx+0x0],al
 165:	00 00                	add    BYTE PTR [eax],al
 167:	00 19                	add    BYTE PTR [ecx],bl
 169:	04 00                	add    al,0x0
 16b:	00 82 00 00 00 00    	add    BYTE PTR [edx+0x0],al
 171:	00 00                	add    BYTE PTR [eax],al
 173:	00 00                	add    BYTE PTR [eax],al
 175:	00 00                	add    BYTE PTR [eax],al
 177:	00 a2 00 00 00 00    	add    BYTE PTR [edx+0x0],ah
 17d:	00 00                	add    BYTE PTR [eax],al
 17f:	00 00                	add    BYTE PTR [eax],al
 181:	00 00                	add    BYTE PTR [eax],al
 183:	00 a2 00 00 00 00    	add    BYTE PTR [edx+0x0],ah
 189:	00 00                	add    BYTE PTR [eax],al
 18b:	00 00                	add    BYTE PTR [eax],al
 18d:	00 00                	add    BYTE PTR [eax],al
 18f:	00 a2 00 00 00 00    	add    BYTE PTR [edx+0x0],ah
 195:	00 00                	add    BYTE PTR [eax],al
 197:	00 2d 04 00 00 82    	add    BYTE PTR ds:0x82000004,ch
	...
 1a5:	00 00                	add    BYTE PTR [eax],al
 1a7:	00 a2 00 00 00 00    	add    BYTE PTR [edx+0x0],ah
 1ad:	00 00                	add    BYTE PTR [eax],al
 1af:	00 6e 04             	add    BYTE PTR [esi+0x4],ch
 1b2:	00 00                	add    BYTE PTR [eax],al
 1b4:	82                   	(bad)  
 1b5:	00 00                	add    BYTE PTR [eax],al
 1b7:	00 00                	add    BYTE PTR [eax],al
 1b9:	00 00                	add    BYTE PTR [eax],al
 1bb:	00 82 04 00 00 82    	add    BYTE PTR [edx-0x7dfffffc],al
 1c1:	00 00                	add    BYTE PTR [eax],al
 1c3:	00 1d 96 00 00 2d    	add    BYTE PTR ds:0x2d000096,bl
 1c9:	04 00                	add    al,0x0
 1cb:	00 c2                	add    dl,al
 1cd:	00 00                	add    BYTE PTR [eax],al
 1cf:	00 00                	add    BYTE PTR [eax],al
 1d1:	00 00                	add    BYTE PTR [eax],al
 1d3:	00 95 04 00 00 80    	add    BYTE PTR [ebp-0x7ffffffc],dl
 1d9:	00 00                	add    BYTE PTR [eax],al
 1db:	00 00                	add    BYTE PTR [eax],al
 1dd:	00 00                	add    BYTE PTR [eax],al
 1df:	00 e4                	add    ah,ah
 1e1:	04 00                	add    al,0x0
 1e3:	00 80 00 00 00 00    	add    BYTE PTR [eax+0x0],al
 1e9:	00 00                	add    BYTE PTR [eax],al
 1eb:	00 19                	add    BYTE PTR [ecx],bl
 1ed:	05 00 00 80 00       	add    eax,0x800000
 1f2:	00 00                	add    BYTE PTR [eax],al
 1f4:	00 00                	add    BYTE PTR [eax],al
 1f6:	00 00                	add    BYTE PTR [eax],al
 1f8:	59                   	pop    ecx
 1f9:	05 00 00 80 00       	add    eax,0x800000
 1fe:	00 00                	add    BYTE PTR [eax],al
 200:	00 00                	add    BYTE PTR [eax],al
 202:	00 00                	add    BYTE PTR [eax],al
 204:	96                   	xchg   esi,eax
 205:	05 00 00 80 00       	add    eax,0x800000
 20a:	00 00                	add    BYTE PTR [eax],al
 20c:	00 00                	add    BYTE PTR [eax],al
 20e:	00 00                	add    BYTE PTR [eax],al
 210:	d0 05 00 00 80 00    	rol    BYTE PTR ds:0x800000,1
 216:	00 00                	add    BYTE PTR [eax],al
 218:	00 00                	add    BYTE PTR [eax],al
 21a:	00 00                	add    BYTE PTR [eax],al
 21c:	06                   	push   es
 21d:	06                   	push   es
 21e:	00 00                	add    BYTE PTR [eax],al
 220:	80 00 00             	add    BYTE PTR [eax],0x0
 223:	00 00                	add    BYTE PTR [eax],al
 225:	00 00                	add    BYTE PTR [eax],al
 227:	00 3d 06 00 00 80    	add    BYTE PTR ds:0x80000006,bh
 22d:	00 00                	add    BYTE PTR [eax],al
 22f:	00 00                	add    BYTE PTR [eax],al
 231:	00 00                	add    BYTE PTR [eax],al
 233:	00 74 06 00          	add    BYTE PTR [esi+eax*1+0x0],dh
 237:	00 80 00 00 00 00    	add    BYTE PTR [eax+0x0],al
 23d:	00 00                	add    BYTE PTR [eax],al
 23f:	00 a6 06 00 00 82    	add    BYTE PTR [esi-0x7dfffffa],ah
 245:	00 00                	add    BYTE PTR [eax],al
 247:	00 00                	add    BYTE PTR [eax],al
 249:	00 00                	add    BYTE PTR [eax],al
 24b:	00 bb 06 00 00 82    	add    BYTE PTR [ebx-0x7dfffffa],bh
 251:	00 00                	add    BYTE PTR [eax],al
 253:	00 28                	add    BYTE PTR [eax],ch
 255:	3b 00                	cmp    eax,DWORD PTR [eax]
 257:	00 cf                	add    bh,cl
 259:	06                   	push   es
 25a:	00 00                	add    BYTE PTR [eax],al
 25c:	80 00 00             	add    BYTE PTR [eax],0x0
 25f:	00 00                	add    BYTE PTR [eax],al
 261:	00 00                	add    BYTE PTR [eax],al
 263:	00 2d 07 00 00 80    	add    BYTE PTR ds:0x80000007,ch
 269:	00 00                	add    BYTE PTR [eax],al
 26b:	00 00                	add    BYTE PTR [eax],al
 26d:	00 00                	add    BYTE PTR [eax],al
 26f:	00 73 07             	add    BYTE PTR [ebx+0x7],dh
 272:	00 00                	add    BYTE PTR [eax],al
 274:	80 00 00             	add    BYTE PTR [eax],0x0
 277:	00 00                	add    BYTE PTR [eax],al
 279:	00 00                	add    BYTE PTR [eax],al
 27b:	00 93 07 00 00 80    	add    BYTE PTR [ebx-0x7ffffff9],dl
 281:	00 24 00             	add    BYTE PTR [eax+eax*1],ah
	...
 28c:	a2 00 00 00 00       	mov    ds:0x0,al
 291:	00 00                	add    BYTE PTR [eax],al
 293:	00 00                	add    BYTE PTR [eax],al
 295:	00 00                	add    BYTE PTR [eax],al
 297:	00 a2 00 00 00 00    	add    BYTE PTR [edx+0x0],ah
 29d:	00 00                	add    BYTE PTR [eax],al
 29f:	00 00                	add    BYTE PTR [eax],al
 2a1:	00 00                	add    BYTE PTR [eax],al
 2a3:	00 a2 00 00 00 00    	add    BYTE PTR [edx+0x0],ah
 2a9:	00 00                	add    BYTE PTR [eax],al
 2ab:	00 00                	add    BYTE PTR [eax],al
 2ad:	00 00                	add    BYTE PTR [eax],al
 2af:	00 a2 00 00 00 00    	add    BYTE PTR [edx+0x0],ah
 2b5:	00 00                	add    BYTE PTR [eax],al
 2b7:	00 00                	add    BYTE PTR [eax],al
 2b9:	00 00                	add    BYTE PTR [eax],al
 2bb:	00 a2 00 00 00 00    	add    BYTE PTR [edx+0x0],ah
 2c1:	00 00                	add    BYTE PTR [eax],al
 2c3:	00 00                	add    BYTE PTR [eax],al
 2c5:	00 00                	add    BYTE PTR [eax],al
 2c7:	00 a2 00 00 00 00    	add    BYTE PTR [edx+0x0],ah
 2cd:	00 00                	add    BYTE PTR [eax],al
 2cf:	00 00                	add    BYTE PTR [eax],al
 2d1:	00 00                	add    BYTE PTR [eax],al
 2d3:	00 a2 00 00 00 00    	add    BYTE PTR [edx+0x0],ah
 2d9:	00 00                	add    BYTE PTR [eax],al
 2db:	00 b5 07 00 00 82    	add    BYTE PTR [ebp-0x7dfffff9],dh
 2e1:	00 00                	add    BYTE PTR [eax],al
 2e3:	00 42 18             	add    BYTE PTR [edx+0x18],al
 2e6:	00 00                	add    BYTE PTR [eax],al
 2e8:	dc 07                	fadd   QWORD PTR [edi]
 2ea:	00 00                	add    BYTE PTR [eax],al
 2ec:	82                   	(bad)  
 2ed:	00 00                	add    BYTE PTR [eax],al
 2ef:	00 da                	add    dl,bl
 2f1:	3f                   	aas    
 2f2:	01 00                	add    DWORD PTR [eax],eax
 2f4:	2d 04 00 00 82       	sub    eax,0x82000004
 2f9:	00 00                	add    BYTE PTR [eax],al
 2fb:	00 d8                	add    al,bl
 2fd:	04 00                	add    al,0x0
 2ff:	00 04 08             	add    BYTE PTR [eax+ecx*1],al
 302:	00 00                	add    BYTE PTR [eax],al
 304:	80 00 aa             	add    BYTE PTR [eax],0xaa
	...
 30f:	00 a2 00 00 00 00    	add    BYTE PTR [edx+0x0],ah
 315:	00 00                	add    BYTE PTR [eax],al
 317:	00 19                	add    BYTE PTR [ecx],bl
 319:	08 00                	or     BYTE PTR [eax],al
 31b:	00 80 00 20 00 00    	add    BYTE PTR [eax+0x2000],al
 321:	00 00                	add    BYTE PTR [eax],al
 323:	00 31                	add    BYTE PTR [ecx],dh
 325:	08 00                	or     BYTE PTR [eax],al
 327:	00 80 00 21 00 00    	add    BYTE PTR [eax+0x2100],al
 32d:	00 00                	add    BYTE PTR [eax],al
 32f:	00 49 08             	add    BYTE PTR [ecx+0x8],cl
 332:	00 00                	add    BYTE PTR [eax],al
 334:	80 00 22             	add    BYTE PTR [eax],0x22
 337:	00 00                	add    BYTE PTR [eax],al
 339:	00 00                	add    BYTE PTR [eax],al
 33b:	00 5f 08             	add    BYTE PTR [edi+0x8],bl
 33e:	00 00                	add    BYTE PTR [eax],al
 340:	80 00 23             	add    BYTE PTR [eax],0x23
 343:	00 00                	add    BYTE PTR [eax],al
 345:	00 00                	add    BYTE PTR [eax],al
 347:	00 76 08             	add    BYTE PTR [esi+0x8],dh
 34a:	00 00                	add    BYTE PTR [eax],al
 34c:	80 00 25             	add    BYTE PTR [eax],0x25
 34f:	00 00                	add    BYTE PTR [eax],al
 351:	00 00                	add    BYTE PTR [eax],al
 353:	00 8f 08 00 00 80    	add    BYTE PTR [edi-0x7ffffff8],cl
 359:	00 26                	add    BYTE PTR [esi],ah
 35b:	00 00                	add    BYTE PTR [eax],al
 35d:	00 00                	add    BYTE PTR [eax],al
 35f:	00 a6 08 00 00 80    	add    BYTE PTR [esi-0x7ffffff8],ah
 365:	00 31                	add    BYTE PTR [ecx],dh
 367:	00 00                	add    BYTE PTR [eax],al
 369:	00 00                	add    BYTE PTR [eax],al
 36b:	00 be 08 00 00 80    	add    BYTE PTR [esi-0x7ffffff8],bh
 371:	00 32                	add    BYTE PTR [edx],dh
 373:	00 00                	add    BYTE PTR [eax],al
 375:	00 00                	add    BYTE PTR [eax],al
 377:	00 d7                	add    bh,dl
 379:	08 00                	or     BYTE PTR [eax],al
 37b:	00 80 00 33 00 00    	add    BYTE PTR [eax+0x3300],al
 381:	00 00                	add    BYTE PTR [eax],al
 383:	00 ef                	add    bh,ch
 385:	08 00                	or     BYTE PTR [eax],al
 387:	00 80 00 34 00 00    	add    BYTE PTR [eax+0x3400],al
 38d:	00 00                	add    BYTE PTR [eax],al
 38f:	00 09                	add    BYTE PTR [ecx],cl
 391:	09 00                	or     DWORD PTR [eax],eax
 393:	00 80 00 35 00 00    	add    BYTE PTR [eax+0x3500],al
 399:	00 00                	add    BYTE PTR [eax],al
 39b:	00 22                	add    BYTE PTR [edx],ah
 39d:	09 00                	or     DWORD PTR [eax],eax
 39f:	00 80 00 36 00 00    	add    BYTE PTR [eax+0x3600],al
 3a5:	00 00                	add    BYTE PTR [eax],al
 3a7:	00 3c 09             	add    BYTE PTR [ecx+ecx*1],bh
 3aa:	00 00                	add    BYTE PTR [eax],al
 3ac:	80 00 38             	add    BYTE PTR [eax],0x38
 3af:	00 00                	add    BYTE PTR [eax],al
 3b1:	00 00                	add    BYTE PTR [eax],al
 3b3:	00 55 09             	add    BYTE PTR [ebp+0x9],dl
 3b6:	00 00                	add    BYTE PTR [eax],al
 3b8:	80 00 39             	add    BYTE PTR [eax],0x39
 3bb:	00 00                	add    BYTE PTR [eax],al
 3bd:	00 00                	add    BYTE PTR [eax],al
 3bf:	00 6f 09             	add    BYTE PTR [edi+0x9],ch
 3c2:	00 00                	add    BYTE PTR [eax],al
 3c4:	80 00 3b             	add    BYTE PTR [eax],0x3b
 3c7:	00 00                	add    BYTE PTR [eax],al
 3c9:	00 00                	add    BYTE PTR [eax],al
 3cb:	00 92 09 00 00 80    	add    BYTE PTR [edx-0x7ffffff7],dl
 3d1:	00 3d 00 00 00 00    	add    BYTE PTR ds:0x0,bh
 3d7:	00 aa 09 00 00 80    	add    BYTE PTR [edx-0x7ffffff7],ch
 3dd:	00 3e                	add    BYTE PTR [esi],bh
 3df:	00 00                	add    BYTE PTR [eax],al
 3e1:	00 00                	add    BYTE PTR [eax],al
 3e3:	00 c2                	add    dl,al
 3e5:	09 00                	or     DWORD PTR [eax],eax
 3e7:	00 80 00 3f 00 00    	add    BYTE PTR [eax+0x3f00],al
 3ed:	00 00                	add    BYTE PTR [eax],al
 3ef:	00 da                	add    dl,bl
 3f1:	09 00                	or     DWORD PTR [eax],eax
 3f3:	00 80 00 40 00 00    	add    BYTE PTR [eax+0x4000],al
 3f9:	00 00                	add    BYTE PTR [eax],al
 3fb:	00 f2                	add    dl,dh
 3fd:	09 00                	or     DWORD PTR [eax],eax
 3ff:	00 80 00 41 00 00    	add    BYTE PTR [eax+0x4100],al
 405:	00 00                	add    BYTE PTR [eax],al
 407:	00 0b                	add    BYTE PTR [ebx],cl
 409:	0a 00                	or     al,BYTE PTR [eax]
 40b:	00 80 00 42 00 00    	add    BYTE PTR [eax+0x4200],al
 411:	00 00                	add    BYTE PTR [eax],al
 413:	00 25 0a 00 00 80    	add    BYTE PTR ds:0x8000000a,ah
 419:	00 43 00             	add    BYTE PTR [ebx+0x0],al
 41c:	00 00                	add    BYTE PTR [eax],al
 41e:	00 00                	add    BYTE PTR [eax],al
 420:	3c 0a                	cmp    al,0xa
 422:	00 00                	add    BYTE PTR [eax],al
 424:	80 00 44             	add    BYTE PTR [eax],0x44
 427:	00 00                	add    BYTE PTR [eax],al
 429:	00 00                	add    BYTE PTR [eax],al
 42b:	00 55 0a             	add    BYTE PTR [ebp+0xa],dl
 42e:	00 00                	add    BYTE PTR [eax],al
 430:	80 00 45             	add    BYTE PTR [eax],0x45
 433:	00 00                	add    BYTE PTR [eax],al
 435:	00 00                	add    BYTE PTR [eax],al
 437:	00 6c 0a 00          	add    BYTE PTR [edx+ecx*1+0x0],ch
 43b:	00 80 00 46 00 00    	add    BYTE PTR [eax+0x4600],al
 441:	00 00                	add    BYTE PTR [eax],al
 443:	00 85 0a 00 00 80    	add    BYTE PTR [ebp-0x7ffffff6],al
 449:	00 47 00             	add    BYTE PTR [edi+0x0],al
 44c:	00 00                	add    BYTE PTR [eax],al
 44e:	00 00                	add    BYTE PTR [eax],al
 450:	9d                   	popf   
 451:	0a 00                	or     al,BYTE PTR [eax]
 453:	00 80 00 48 00 00    	add    BYTE PTR [eax+0x4800],al
 459:	00 00                	add    BYTE PTR [eax],al
 45b:	00 b8 0a 00 00 80    	add    BYTE PTR [eax-0x7ffffff6],bh
 461:	00 49 00             	add    BYTE PTR [ecx+0x0],cl
 464:	00 00                	add    BYTE PTR [eax],al
 466:	00 00                	add    BYTE PTR [eax],al
 468:	cf                   	iret   
 469:	0a 00                	or     al,BYTE PTR [eax]
 46b:	00 80 00 4e 00 00    	add    BYTE PTR [eax+0x4e00],al
 471:	00 00                	add    BYTE PTR [eax],al
 473:	00 12                	add    BYTE PTR [edx],dl
 475:	0b 00                	or     eax,DWORD PTR [eax]
 477:	00 80 00 51 00 00    	add    BYTE PTR [eax+0x5100],al
 47d:	00 00                	add    BYTE PTR [eax],al
 47f:	00 2b                	add    BYTE PTR [ebx],ch
 481:	0b 00                	or     eax,DWORD PTR [eax]
 483:	00 80 00 52 00 00    	add    BYTE PTR [eax+0x5200],al
 489:	00 00                	add    BYTE PTR [eax],al
 48b:	00 45 0b             	add    BYTE PTR [ebp+0xb],al
 48e:	00 00                	add    BYTE PTR [eax],al
 490:	80 00 53             	add    BYTE PTR [eax],0x53
 493:	00 00                	add    BYTE PTR [eax],al
 495:	00 00                	add    BYTE PTR [eax],al
 497:	00 5d 0b             	add    BYTE PTR [ebp+0xb],bl
 49a:	00 00                	add    BYTE PTR [eax],al
 49c:	80 00 54             	add    BYTE PTR [eax],0x54
 49f:	00 00                	add    BYTE PTR [eax],al
 4a1:	00 00                	add    BYTE PTR [eax],al
 4a3:	00 76 0b             	add    BYTE PTR [esi+0xb],dh
 4a6:	00 00                	add    BYTE PTR [eax],al
 4a8:	80 00 56             	add    BYTE PTR [eax],0x56
 4ab:	00 00                	add    BYTE PTR [eax],al
 4ad:	00 00                	add    BYTE PTR [eax],al
 4af:	00 8f 0b 00 00 80    	add    BYTE PTR [edi-0x7ffffff5],cl
 4b5:	00 59 00             	add    BYTE PTR [ecx+0x0],bl
 4b8:	00 00                	add    BYTE PTR [eax],al
 4ba:	00 00                	add    BYTE PTR [eax],al
 4bc:	a8 0b                	test   al,0xb
 4be:	00 00                	add    BYTE PTR [eax],al
 4c0:	80 00 6f             	add    BYTE PTR [eax],0x6f
 4c3:	00 00                	add    BYTE PTR [eax],al
 4c5:	00 00                	add    BYTE PTR [eax],al
 4c7:	00 f5                	add    ch,dh
 4c9:	0b 00                	or     eax,DWORD PTR [eax]
 4cb:	00 80 00 72 00 00    	add    BYTE PTR [eax+0x7200],al
 4d1:	00 00                	add    BYTE PTR [eax],al
 4d3:	00 0c 0c             	add    BYTE PTR [esp+ecx*1],cl
 4d6:	00 00                	add    BYTE PTR [eax],al
 4d8:	80 00 75             	add    BYTE PTR [eax],0x75
 4db:	00 00                	add    BYTE PTR [eax],al
 4dd:	00 00                	add    BYTE PTR [eax],al
 4df:	00 27                	add    BYTE PTR [edi],ah
 4e1:	0c 00                	or     al,0x0
 4e3:	00 80 00 7b 00 00    	add    BYTE PTR [eax+0x7b00],al
 4e9:	00 00                	add    BYTE PTR [eax],al
 4eb:	00 41 0c             	add    BYTE PTR [ecx+0xc],al
 4ee:	00 00                	add    BYTE PTR [eax],al
 4f0:	80 00 7c             	add    BYTE PTR [eax],0x7c
 4f3:	00 00                	add    BYTE PTR [eax],al
 4f5:	00 00                	add    BYTE PTR [eax],al
 4f7:	00 5e 0c             	add    BYTE PTR [esi+0xc],bl
 4fa:	00 00                	add    BYTE PTR [eax],al
 4fc:	80 00 7f             	add    BYTE PTR [eax],0x7f
 4ff:	00 00                	add    BYTE PTR [eax],al
 501:	00 00                	add    BYTE PTR [eax],al
 503:	00 7b 0c             	add    BYTE PTR [ebx+0xc],bh
 506:	00 00                	add    BYTE PTR [eax],al
 508:	80 00 80             	add    BYTE PTR [eax],0x80
 50b:	00 00                	add    BYTE PTR [eax],al
 50d:	00 00                	add    BYTE PTR [eax],al
 50f:	00 9a 0c 00 00 80    	add    BYTE PTR [edx-0x7ffffff4],bl
 515:	00 83 00 00 00 00    	add    BYTE PTR [ebx+0x0],al
 51b:	00 b7 0c 00 00 80    	add    BYTE PTR [edi-0x7ffffff4],dh
 521:	00 84 00 00 00 00 00 	add    BYTE PTR [eax+eax*1+0x0],al
 528:	d6                   	(bad)  
 529:	0c 00                	or     al,0x0
 52b:	00 80 00 87 00 00    	add    BYTE PTR [eax+0x8700],al
 531:	00 00                	add    BYTE PTR [eax],al
 533:	00 f0                	add    al,dh
 535:	0c 00                	or     al,0x0
 537:	00 80 00 8a 00 00    	add    BYTE PTR [eax+0x8a00],al
 53d:	00 00                	add    BYTE PTR [eax],al
 53f:	00 0b                	add    BYTE PTR [ebx],cl
 541:	0d 00 00 80 00       	or     eax,0x800000
 546:	8d 00                	lea    eax,[eax]
 548:	00 00                	add    BYTE PTR [eax],al
 54a:	00 00                	add    BYTE PTR [eax],al
 54c:	27                   	daa    
 54d:	0d 00 00 80 00       	or     eax,0x800000
 552:	8e 00                	mov    es,WORD PTR [eax]
 554:	00 00                	add    BYTE PTR [eax],al
 556:	00 00                	add    BYTE PTR [eax],al
 558:	44                   	inc    esp
 559:	0d 00 00 80 00       	or     eax,0x800000
 55e:	91                   	xchg   ecx,eax
 55f:	00 00                	add    BYTE PTR [eax],al
 561:	00 00                	add    BYTE PTR [eax],al
 563:	00 5e 0d             	add    BYTE PTR [esi+0xd],bl
 566:	00 00                	add    BYTE PTR [eax],al
 568:	82                   	(bad)  
 569:	00 00                	add    BYTE PTR [eax],al
 56b:	00 55 4f             	add    BYTE PTR [ebp+0x4f],dl
 56e:	01 00                	add    DWORD PTR [eax],eax
 570:	92                   	xchg   edx,eax
 571:	0d 00 00 82 00       	or     eax,0x820000
 576:	00 00                	add    BYTE PTR [eax],al
 578:	88 0f                	mov    BYTE PTR [edi],cl
 57a:	00 00                	add    BYTE PTR [eax],al
 57c:	ba 0d 00 00 80       	mov    edx,0x8000000d
	...
 589:	00 00                	add    BYTE PTR [eax],al
 58b:	00 a2 00 00 00 00    	add    BYTE PTR [edx+0x0],ah
 591:	00 00                	add    BYTE PTR [eax],al
 593:	00 ee                	add    dh,ch
 595:	0d 00 00 80 00       	or     eax,0x800000
 59a:	00 00                	add    BYTE PTR [eax],al
 59c:	00 00                	add    BYTE PTR [eax],al
 59e:	00 00                	add    BYTE PTR [eax],al
 5a0:	37                   	aaa    
 5a1:	0e                   	push   cs
 5a2:	00 00                	add    BYTE PTR [eax],al
 5a4:	80 00 22             	add    BYTE PTR [eax],0x22
 5a7:	00 00                	add    BYTE PTR [eax],al
 5a9:	00 00                	add    BYTE PTR [eax],al
 5ab:	00 76 0e             	add    BYTE PTR [esi+0xe],dh
 5ae:	00 00                	add    BYTE PTR [eax],al
 5b0:	80 00 00             	add    BYTE PTR [eax],0x0
 5b3:	00 00                	add    BYTE PTR [eax],al
 5b5:	00 00                	add    BYTE PTR [eax],al
 5b7:	00 b2 0e 00 00 80    	add    BYTE PTR [edx-0x7ffffff2],dh
 5bd:	00 00                	add    BYTE PTR [eax],al
 5bf:	00 00                	add    BYTE PTR [eax],al
 5c1:	00 00                	add    BYTE PTR [eax],al
 5c3:	00 e8                	add    al,ch
 5c5:	0e                   	push   cs
 5c6:	00 00                	add    BYTE PTR [eax],al
 5c8:	80 00 00             	add    BYTE PTR [eax],0x0
 5cb:	00 00                	add    BYTE PTR [eax],al
 5cd:	00 00                	add    BYTE PTR [eax],al
 5cf:	00 1a                	add    BYTE PTR [edx],bl
 5d1:	0f 00 00             	sldt   WORD PTR [eax]
 5d4:	80 00 00             	add    BYTE PTR [eax],0x0
 5d7:	00 00                	add    BYTE PTR [eax],al
 5d9:	00 00                	add    BYTE PTR [eax],al
 5db:	00 53 0f             	add    BYTE PTR [ebx+0xf],dl
 5de:	00 00                	add    BYTE PTR [eax],al
 5e0:	80 00 33             	add    BYTE PTR [eax],0x33
 5e3:	00 00                	add    BYTE PTR [eax],al
 5e5:	00 00                	add    BYTE PTR [eax],al
 5e7:	00 91 0f 00 00 80    	add    BYTE PTR [ecx-0x7ffffff1],dl
 5ed:	00 00                	add    BYTE PTR [eax],al
 5ef:	00 00                	add    BYTE PTR [eax],al
 5f1:	00 00                	add    BYTE PTR [eax],al
 5f3:	00 c9                	add    cl,cl
 5f5:	0f 00 00             	sldt   WORD PTR [eax]
 5f8:	80 00 3b             	add    BYTE PTR [eax],0x3b
 5fb:	00 00                	add    BYTE PTR [eax],al
 5fd:	00 00                	add    BYTE PTR [eax],al
 5ff:	00 e4                	add    ah,ah
 601:	0f 00 00             	sldt   WORD PTR [eax]
 604:	80 00 42             	add    BYTE PTR [eax],0x42
 607:	00 00                	add    BYTE PTR [eax],al
 609:	00 00                	add    BYTE PTR [eax],al
 60b:	00 1f                	add    BYTE PTR [edi],bl
 60d:	10 00                	adc    BYTE PTR [eax],al
 60f:	00 80 00 45 00 00    	add    BYTE PTR [eax+0x4500],al
 615:	00 00                	add    BYTE PTR [eax],al
 617:	00 3c 10             	add    BYTE PTR [eax+edx*1],bh
 61a:	00 00                	add    BYTE PTR [eax],al
 61c:	80 00 00             	add    BYTE PTR [eax],0x0
 61f:	00 00                	add    BYTE PTR [eax],al
 621:	00 00                	add    BYTE PTR [eax],al
 623:	00 7a 10             	add    BYTE PTR [edx+0x10],bh
 626:	00 00                	add    BYTE PTR [eax],al
 628:	80 00 00             	add    BYTE PTR [eax],0x0
 62b:	00 00                	add    BYTE PTR [eax],al
 62d:	00 00                	add    BYTE PTR [eax],al
 62f:	00 a9 10 00 00 80    	add    BYTE PTR [ecx-0x7ffffff0],ch
 635:	00 52 00             	add    BYTE PTR [edx+0x0],dl
 638:	00 00                	add    BYTE PTR [eax],al
 63a:	00 00                	add    BYTE PTR [eax],al
 63c:	d7                   	xlat   BYTE PTR ds:[ebx]
 63d:	10 00                	adc    BYTE PTR [eax],al
 63f:	00 80 00 59 00 00    	add    BYTE PTR [eax+0x5900],al
 645:	00 00                	add    BYTE PTR [eax],al
 647:	00 17                	add    BYTE PTR [edi],dl
 649:	11 00                	adc    DWORD PTR [eax],eax
 64b:	00 80 00 5d 00 00    	add    BYTE PTR [eax+0x5d00],al
 651:	00 00                	add    BYTE PTR [eax],al
 653:	00 35 11 00 00 80    	add    BYTE PTR ds:0x80000011,dh
 659:	00 00                	add    BYTE PTR [eax],al
 65b:	00 00                	add    BYTE PTR [eax],al
 65d:	00 00                	add    BYTE PTR [eax],al
 65f:	00 84 11 00 00 80 00 	add    BYTE PTR [ecx+edx*1+0x800000],al
 666:	00 00                	add    BYTE PTR [eax],al
 668:	00 00                	add    BYTE PTR [eax],al
 66a:	00 00                	add    BYTE PTR [eax],al
 66c:	bf 11 00 00 80       	mov    edi,0x80000011
 671:	00 00                	add    BYTE PTR [eax],al
 673:	00 00                	add    BYTE PTR [eax],al
 675:	00 00                	add    BYTE PTR [eax],al
 677:	00 f9                	add    cl,bh
 679:	11 00                	adc    DWORD PTR [eax],eax
 67b:	00 80 00 00 00 00    	add    BYTE PTR [eax+0x0],al
 681:	00 00                	add    BYTE PTR [eax],al
 683:	00 15 12 00 00 80    	add    BYTE PTR ds:0x80000012,dl
 689:	00 6b 00             	add    BYTE PTR [ebx+0x0],ch
 68c:	00 00                	add    BYTE PTR [eax],al
 68e:	00 00                	add    BYTE PTR [eax],al
 690:	37                   	aaa    
 691:	12 00                	adc    al,BYTE PTR [eax]
 693:	00 80 00 00 00 00    	add    BYTE PTR [eax+0x0],al
 699:	00 00                	add    BYTE PTR [eax],al
 69b:	00 77 12             	add    BYTE PTR [edi+0x12],dh
 69e:	00 00                	add    BYTE PTR [eax],al
 6a0:	80 00 73             	add    BYTE PTR [eax],0x73
 6a3:	00 00                	add    BYTE PTR [eax],al
 6a5:	00 00                	add    BYTE PTR [eax],al
 6a7:	00 8f 12 00 00 80    	add    BYTE PTR [edi-0x7fffffee],cl
 6ad:	00 78 00             	add    BYTE PTR [eax+0x0],bh
	...
 6b8:	a2 00 00 00 00       	mov    ds:0x0,al
 6bd:	00 00                	add    BYTE PTR [eax],al
 6bf:	00 00                	add    BYTE PTR [eax],al
 6c1:	00 00                	add    BYTE PTR [eax],al
 6c3:	00 a2 00 00 00 00    	add    BYTE PTR [edx+0x0],ah
 6c9:	00 00                	add    BYTE PTR [eax],al
 6cb:	00 2d 04 00 00 82    	add    BYTE PTR ds:0x82000004,ch
 6d1:	00 00                	add    BYTE PTR [eax],al
 6d3:	00 11                	add    BYTE PTR [ecx],dl
 6d5:	0a 00                	or     al,BYTE PTR [eax]
 6d7:	00 a8 12 00 00 80    	add    BYTE PTR [eax-0x7fffffee],ch
 6dd:	00 ff                	add    bh,bh
 6df:	00 00                	add    BYTE PTR [eax],al
 6e1:	00 00                	add    BYTE PTR [eax],al
 6e3:	00 be 12 00 00 80    	add    BYTE PTR [esi-0x7fffffee],bh
 6e9:	00 18                	add    BYTE PTR [eax],bl
 6eb:	01 00                	add    DWORD PTR [eax],eax
 6ed:	00 00                	add    BYTE PTR [eax],al
 6ef:	00 00                	add    BYTE PTR [eax],al
 6f1:	00 00                	add    BYTE PTR [eax],al
 6f3:	00 a2 00 00 00 00    	add    BYTE PTR [edx+0x0],ah
 6f9:	00 00                	add    BYTE PTR [eax],al
 6fb:	00 d3                	add    bl,dl
 6fd:	12 00                	adc    al,BYTE PTR [eax]
 6ff:	00 80 00 23 00 00    	add    BYTE PTR [eax+0x2300],al
 705:	00 00                	add    BYTE PTR [eax],al
 707:	00 ec                	add    ah,ch
 709:	12 00                	adc    al,BYTE PTR [eax]
 70b:	00 80 00 24 00 00    	add    BYTE PTR [eax+0x2400],al
 711:	00 00                	add    BYTE PTR [eax],al
 713:	00 05 13 00 00 80    	add    BYTE PTR ds:0x80000013,al
 719:	00 25 00 00 00 00    	add    BYTE PTR ds:0x0,ah
 71f:	00 1f                	add    BYTE PTR [edi],bl
 721:	13 00                	adc    eax,DWORD PTR [eax]
 723:	00 80 00 26 00 00    	add    BYTE PTR [eax+0x2600],al
 729:	00 00                	add    BYTE PTR [eax],al
 72b:	00 00                	add    BYTE PTR [eax],al
 72d:	00 00                	add    BYTE PTR [eax],al
 72f:	00 a2 00 00 00 00    	add    BYTE PTR [edx+0x0],ah
 735:	00 00                	add    BYTE PTR [eax],al
 737:	00 39                	add    BYTE PTR [ecx],bh
 739:	13 00                	adc    eax,DWORD PTR [eax]
 73b:	00 20                	add    BYTE PTR [eax],ah
 73d:	00 22                	add    BYTE PTR [edx],ah
	...
 747:	00 64 00 00          	add    BYTE PTR [eax+eax*1+0x0],ah
 74b:	00 04 89             	add    BYTE PTR [ecx+ecx*4],al
 74e:	04 08                	add    al,0x8

Disassembly of section .stabstr:

00000000 <.stabstr>:
       0:	00 69 6e             	add    BYTE PTR [ecx+0x6e],ch
       3:	69 74 2e 63 00 2f 75 	imul   esi,DWORD PTR [esi+ebp*1+0x63],0x73752f00
       a:	73 
       b:	72 2f                	jb     3c <_init-0x80486a4>
       d:	73 72                	jae    81 <_init-0x804865f>
       f:	63 2f                	arpl   WORD PTR [edi],bp
      11:	62 73 2f             	bound  esi,QWORD PTR [ebx+0x2f]
      14:	42                   	inc    edx
      15:	55                   	push   ebp
      16:	49                   	dec    ecx
      17:	4c                   	dec    esp
      18:	44                   	inc    esp
      19:	2f                   	das    
      1a:	67 6c                	ins    BYTE PTR es:[di],dx
      1c:	69 62 63 2d 32 2e 31 	imul   esp,DWORD PTR [edx+0x63],0x312e322d
      23:	2e 33 2f             	xor    ebp,DWORD PTR cs:[edi]
      26:	63 73 75             	arpl   WORD PTR [ebx+0x75],si
      29:	2f                   	das    
      2a:	00 67 63             	add    BYTE PTR [edi+0x63],ah
      2d:	63 32                	arpl   WORD PTR [edx],si
      2f:	5f                   	pop    edi
      30:	63 6f 6d             	arpl   WORD PTR [edi+0x6d],bp
      33:	70 69                	jo     9e <_init-0x8048642>
      35:	6c                   	ins    BYTE PTR es:[edi],dx
      36:	65 64 2e 00 69 6e    	gs fs add BYTE PTR cs:fs:gs:[ecx+0x6e],ch
      3c:	74 3a                	je     78 <_init-0x8048668>
      3e:	74 28                	je     68 <_init-0x8048678>
      40:	30 2c 31             	xor    BYTE PTR [ecx+esi*1],ch
      43:	29 3d 72 28 30 2c    	sub    DWORD PTR ds:0x2c302872,edi
      49:	31 29                	xor    DWORD PTR [ecx],ebp
      4b:	3b 30                	cmp    esi,DWORD PTR [eax]
      4d:	30 32                	xor    BYTE PTR [edx],dh
      4f:	30 30                	xor    BYTE PTR [eax],dh
      51:	30 30                	xor    BYTE PTR [eax],dh
      53:	30 30                	xor    BYTE PTR [eax],dh
      55:	30 30                	xor    BYTE PTR [eax],dh
      57:	30 30                	xor    BYTE PTR [eax],dh
      59:	3b 30                	cmp    esi,DWORD PTR [eax]
      5b:	30 31                	xor    BYTE PTR [ecx],dh
      5d:	37                   	aaa    
      5e:	37                   	aaa    
      5f:	37                   	aaa    
      60:	37                   	aaa    
      61:	37                   	aaa    
      62:	37                   	aaa    
      63:	37                   	aaa    
      64:	37                   	aaa    
      65:	37                   	aaa    
      66:	37                   	aaa    
      67:	3b 00                	cmp    eax,DWORD PTR [eax]
      69:	63 68 61             	arpl   WORD PTR [eax+0x61],bp
      6c:	72 3a                	jb     a8 <_init-0x8048638>
      6e:	74 28                	je     98 <_init-0x8048648>
      70:	30 2c 32             	xor    BYTE PTR [edx+esi*1],ch
      73:	29 3d 72 28 30 2c    	sub    DWORD PTR ds:0x2c302872,edi
      79:	32 29                	xor    ch,BYTE PTR [ecx]
      7b:	3b 30                	cmp    esi,DWORD PTR [eax]
      7d:	3b 31                	cmp    esi,DWORD PTR [ecx]
      7f:	32 37                	xor    dh,BYTE PTR [edi]
      81:	3b 00                	cmp    eax,DWORD PTR [eax]
      83:	6c                   	ins    BYTE PTR es:[edi],dx
      84:	6f                   	outs   dx,DWORD PTR ds:[esi]
      85:	6e                   	outs   dx,BYTE PTR ds:[esi]
      86:	67 20 69 6e          	and    BYTE PTR [bx+di+0x6e],ch
      8a:	74 3a                	je     c6 <_init-0x804861a>
      8c:	74 28                	je     b6 <_init-0x804862a>
      8e:	30 2c 33             	xor    BYTE PTR [ebx+esi*1],ch
      91:	29 3d 72 28 30 2c    	sub    DWORD PTR ds:0x2c302872,edi
      97:	31 29                	xor    DWORD PTR [ecx],ebp
      99:	3b 30                	cmp    esi,DWORD PTR [eax]
      9b:	30 32                	xor    BYTE PTR [edx],dh
      9d:	30 30                	xor    BYTE PTR [eax],dh
      9f:	30 30                	xor    BYTE PTR [eax],dh
      a1:	30 30                	xor    BYTE PTR [eax],dh
      a3:	30 30                	xor    BYTE PTR [eax],dh
      a5:	30 30                	xor    BYTE PTR [eax],dh
      a7:	3b 30                	cmp    esi,DWORD PTR [eax]
      a9:	30 31                	xor    BYTE PTR [ecx],dh
      ab:	37                   	aaa    
      ac:	37                   	aaa    
      ad:	37                   	aaa    
      ae:	37                   	aaa    
      af:	37                   	aaa    
      b0:	37                   	aaa    
      b1:	37                   	aaa    
      b2:	37                   	aaa    
      b3:	37                   	aaa    
      b4:	37                   	aaa    
      b5:	3b 00                	cmp    eax,DWORD PTR [eax]
      b7:	75 6e                	jne    127 <_init-0x80485b9>
      b9:	73 69                	jae    124 <_init-0x80485bc>
      bb:	67 6e                	outs   dx,BYTE PTR ds:[si]
      bd:	65 64 20 69 6e       	gs and BYTE PTR fs:gs:[ecx+0x6e],ch
      c2:	74 3a                	je     fe <_init-0x80485e2>
      c4:	74 28                	je     ee <_init-0x80485f2>
      c6:	30 2c 34             	xor    BYTE PTR [esp+esi*1],ch
      c9:	29 3d 72 28 30 2c    	sub    DWORD PTR ds:0x2c302872,edi
      cf:	31 29                	xor    DWORD PTR [ecx],ebp
      d1:	3b 30                	cmp    esi,DWORD PTR [eax]
      d3:	30 30                	xor    BYTE PTR [eax],dh
      d5:	30 30                	xor    BYTE PTR [eax],dh
      d7:	30 30                	xor    BYTE PTR [eax],dh
      d9:	30 30                	xor    BYTE PTR [eax],dh
      db:	30 30                	xor    BYTE PTR [eax],dh
      dd:	30 30                	xor    BYTE PTR [eax],dh
      df:	3b 30                	cmp    esi,DWORD PTR [eax]
      e1:	30 33                	xor    BYTE PTR [ebx],dh
      e3:	37                   	aaa    
      e4:	37                   	aaa    
      e5:	37                   	aaa    
      e6:	37                   	aaa    
      e7:	37                   	aaa    
      e8:	37                   	aaa    
      e9:	37                   	aaa    
      ea:	37                   	aaa    
      eb:	37                   	aaa    
      ec:	37                   	aaa    
      ed:	3b 00                	cmp    eax,DWORD PTR [eax]
      ef:	6c                   	ins    BYTE PTR es:[edi],dx
      f0:	6f                   	outs   dx,DWORD PTR ds:[esi]
      f1:	6e                   	outs   dx,BYTE PTR ds:[esi]
      f2:	67 20 75 6e          	and    BYTE PTR [di+0x6e],dh
      f6:	73 69                	jae    161 <_init-0x804857f>
      f8:	67 6e                	outs   dx,BYTE PTR ds:[si]
      fa:	65 64 20 69 6e       	gs and BYTE PTR fs:gs:[ecx+0x6e],ch
      ff:	74 3a                	je     13b <_init-0x80485a5>
     101:	74 28                	je     12b <_init-0x80485b5>
     103:	30 2c 35 29 3d 72 28 	xor    BYTE PTR [esi*1+0x28723d29],ch
     10a:	30 2c 31             	xor    BYTE PTR [ecx+esi*1],ch
     10d:	29 3b                	sub    DWORD PTR [ebx],edi
     10f:	30 30                	xor    BYTE PTR [eax],dh
     111:	30 30                	xor    BYTE PTR [eax],dh
     113:	30 30                	xor    BYTE PTR [eax],dh
     115:	30 30                	xor    BYTE PTR [eax],dh
     117:	30 30                	xor    BYTE PTR [eax],dh
     119:	30 30                	xor    BYTE PTR [eax],dh
     11b:	30 3b                	xor    BYTE PTR [ebx],bh
     11d:	30 30                	xor    BYTE PTR [eax],dh
     11f:	33 37                	xor    esi,DWORD PTR [edi]
     121:	37                   	aaa    
     122:	37                   	aaa    
     123:	37                   	aaa    
     124:	37                   	aaa    
     125:	37                   	aaa    
     126:	37                   	aaa    
     127:	37                   	aaa    
     128:	37                   	aaa    
     129:	37                   	aaa    
     12a:	3b 00                	cmp    eax,DWORD PTR [eax]
     12c:	6c                   	ins    BYTE PTR es:[edi],dx
     12d:	6f                   	outs   dx,DWORD PTR ds:[esi]
     12e:	6e                   	outs   dx,BYTE PTR ds:[esi]
     12f:	67 20 6c 6f          	and    BYTE PTR [si+0x6f],ch
     133:	6e                   	outs   dx,BYTE PTR ds:[esi]
     134:	67 20 69 6e          	and    BYTE PTR [bx+di+0x6e],ch
     138:	74 3a                	je     174 <_init-0x804856c>
     13a:	74 28                	je     164 <_init-0x804857c>
     13c:	30 2c 36             	xor    BYTE PTR [esi+esi*1],ch
     13f:	29 3d 72 28 30 2c    	sub    DWORD PTR ds:0x2c302872,edi
     145:	31 29                	xor    DWORD PTR [ecx],ebp
     147:	3b 30                	cmp    esi,DWORD PTR [eax]
     149:	31 30                	xor    DWORD PTR [eax],esi
     14b:	30 30                	xor    BYTE PTR [eax],dh
     14d:	30 30                	xor    BYTE PTR [eax],dh
     14f:	30 30                	xor    BYTE PTR [eax],dh
     151:	30 30                	xor    BYTE PTR [eax],dh
     153:	30 30                	xor    BYTE PTR [eax],dh
     155:	30 30                	xor    BYTE PTR [eax],dh
     157:	30 30                	xor    BYTE PTR [eax],dh
     159:	30 30                	xor    BYTE PTR [eax],dh
     15b:	30 30                	xor    BYTE PTR [eax],dh
     15d:	30 30                	xor    BYTE PTR [eax],dh
     15f:	3b 30                	cmp    esi,DWORD PTR [eax]
     161:	37                   	aaa    
     162:	37                   	aaa    
     163:	37                   	aaa    
     164:	37                   	aaa    
     165:	37                   	aaa    
     166:	37                   	aaa    
     167:	37                   	aaa    
     168:	37                   	aaa    
     169:	37                   	aaa    
     16a:	37                   	aaa    
     16b:	37                   	aaa    
     16c:	37                   	aaa    
     16d:	37                   	aaa    
     16e:	37                   	aaa    
     16f:	37                   	aaa    
     170:	37                   	aaa    
     171:	37                   	aaa    
     172:	37                   	aaa    
     173:	37                   	aaa    
     174:	37                   	aaa    
     175:	37                   	aaa    
     176:	3b 00                	cmp    eax,DWORD PTR [eax]
     178:	6c                   	ins    BYTE PTR es:[edi],dx
     179:	6f                   	outs   dx,DWORD PTR ds:[esi]
     17a:	6e                   	outs   dx,BYTE PTR ds:[esi]
     17b:	67 20 6c 6f          	and    BYTE PTR [si+0x6f],ch
     17f:	6e                   	outs   dx,BYTE PTR ds:[esi]
     180:	67 20 75 6e          	and    BYTE PTR [di+0x6e],dh
     184:	73 69                	jae    1ef <_init-0x80484f1>
     186:	67 6e                	outs   dx,BYTE PTR ds:[si]
     188:	65 64 20 69 6e       	gs and BYTE PTR fs:gs:[ecx+0x6e],ch
     18d:	74 3a                	je     1c9 <_init-0x8048517>
     18f:	74 28                	je     1b9 <_init-0x8048527>
     191:	30 2c 37             	xor    BYTE PTR [edi+esi*1],ch
     194:	29 3d 72 28 30 2c    	sub    DWORD PTR ds:0x2c302872,edi
     19a:	31 29                	xor    DWORD PTR [ecx],ebp
     19c:	3b 30                	cmp    esi,DWORD PTR [eax]
     19e:	30 30                	xor    BYTE PTR [eax],dh
     1a0:	30 30                	xor    BYTE PTR [eax],dh
     1a2:	30 30                	xor    BYTE PTR [eax],dh
     1a4:	30 30                	xor    BYTE PTR [eax],dh
     1a6:	30 30                	xor    BYTE PTR [eax],dh
     1a8:	30 30                	xor    BYTE PTR [eax],dh
     1aa:	3b 30                	cmp    esi,DWORD PTR [eax]
     1ac:	31 37                	xor    DWORD PTR [edi],esi
     1ae:	37                   	aaa    
     1af:	37                   	aaa    
     1b0:	37                   	aaa    
     1b1:	37                   	aaa    
     1b2:	37                   	aaa    
     1b3:	37                   	aaa    
     1b4:	37                   	aaa    
     1b5:	37                   	aaa    
     1b6:	37                   	aaa    
     1b7:	37                   	aaa    
     1b8:	37                   	aaa    
     1b9:	37                   	aaa    
     1ba:	37                   	aaa    
     1bb:	37                   	aaa    
     1bc:	37                   	aaa    
     1bd:	37                   	aaa    
     1be:	37                   	aaa    
     1bf:	37                   	aaa    
     1c0:	37                   	aaa    
     1c1:	37                   	aaa    
     1c2:	3b 00                	cmp    eax,DWORD PTR [eax]
     1c4:	73 68                	jae    22e <_init-0x80484b2>
     1c6:	6f                   	outs   dx,DWORD PTR ds:[esi]
     1c7:	72 74                	jb     23d <_init-0x80484a3>
     1c9:	20 69 6e             	and    BYTE PTR [ecx+0x6e],ch
     1cc:	74 3a                	je     208 <_init-0x80484d8>
     1ce:	74 28                	je     1f8 <_init-0x80484e8>
     1d0:	30 2c 38             	xor    BYTE PTR [eax+edi*1],ch
     1d3:	29 3d 72 28 30 2c    	sub    DWORD PTR ds:0x2c302872,edi
     1d9:	38 29                	cmp    BYTE PTR [ecx],ch
     1db:	3b 2d 33 32 37 36    	cmp    ebp,DWORD PTR ds:0x36373233
     1e1:	38 3b                	cmp    BYTE PTR [ebx],bh
     1e3:	33 32                	xor    esi,DWORD PTR [edx]
     1e5:	37                   	aaa    
     1e6:	36                   	ss
     1e7:	37                   	aaa    
     1e8:	3b 00                	cmp    eax,DWORD PTR [eax]
     1ea:	73 68                	jae    254 <_init-0x804848c>
     1ec:	6f                   	outs   dx,DWORD PTR ds:[esi]
     1ed:	72 74                	jb     263 <_init-0x804847d>
     1ef:	20 75 6e             	and    BYTE PTR [ebp+0x6e],dh
     1f2:	73 69                	jae    25d <_init-0x8048483>
     1f4:	67 6e                	outs   dx,BYTE PTR ds:[si]
     1f6:	65 64 20 69 6e       	gs and BYTE PTR fs:gs:[ecx+0x6e],ch
     1fb:	74 3a                	je     237 <_init-0x80484a9>
     1fd:	74 28                	je     227 <_init-0x80484b9>
     1ff:	30 2c 39             	xor    BYTE PTR [ecx+edi*1],ch
     202:	29 3d 72 28 30 2c    	sub    DWORD PTR ds:0x2c302872,edi
     208:	39 29                	cmp    DWORD PTR [ecx],ebp
     20a:	3b 30                	cmp    esi,DWORD PTR [eax]
     20c:	3b 36                	cmp    esi,DWORD PTR [esi]
     20e:	35 35 33 35 3b       	xor    eax,0x3b353335
     213:	00 73 69             	add    BYTE PTR [ebx+0x69],dh
     216:	67 6e                	outs   dx,BYTE PTR ds:[si]
     218:	65 64 20 63 68       	gs and BYTE PTR fs:gs:[ebx+0x68],ah
     21d:	61                   	popa   
     21e:	72 3a                	jb     25a <_init-0x8048486>
     220:	74 28                	je     24a <_init-0x8048496>
     222:	30 2c 31             	xor    BYTE PTR [ecx+esi*1],ch
     225:	30 29                	xor    BYTE PTR [ecx],ch
     227:	3d 72 28 30 2c       	cmp    eax,0x2c302872
     22c:	31 30                	xor    DWORD PTR [eax],esi
     22e:	29 3b                	sub    DWORD PTR [ebx],edi
     230:	2d 31 32 38 3b       	sub    eax,0x3b383231
     235:	31 32                	xor    DWORD PTR [edx],esi
     237:	37                   	aaa    
     238:	3b 00                	cmp    eax,DWORD PTR [eax]
     23a:	75 6e                	jne    2aa <_init-0x8048436>
     23c:	73 69                	jae    2a7 <_init-0x8048439>
     23e:	67 6e                	outs   dx,BYTE PTR ds:[si]
     240:	65 64 20 63 68       	gs and BYTE PTR fs:gs:[ebx+0x68],ah
     245:	61                   	popa   
     246:	72 3a                	jb     282 <_init-0x804845e>
     248:	74 28                	je     272 <_init-0x804846e>
     24a:	30 2c 31             	xor    BYTE PTR [ecx+esi*1],ch
     24d:	31 29                	xor    DWORD PTR [ecx],ebp
     24f:	3d 72 28 30 2c       	cmp    eax,0x2c302872
     254:	31 31                	xor    DWORD PTR [ecx],esi
     256:	29 3b                	sub    DWORD PTR [ebx],edi
     258:	30 3b                	xor    BYTE PTR [ebx],bh
     25a:	32 35 35 3b 00 66    	xor    dh,BYTE PTR ds:0x66003b35
     260:	6c                   	ins    BYTE PTR es:[edi],dx
     261:	6f                   	outs   dx,DWORD PTR ds:[esi]
     262:	61                   	popa   
     263:	74 3a                	je     29f <_init-0x8048441>
     265:	74 28                	je     28f <_init-0x8048451>
     267:	30 2c 31             	xor    BYTE PTR [ecx+esi*1],ch
     26a:	32 29                	xor    ch,BYTE PTR [ecx]
     26c:	3d 72 28 30 2c       	cmp    eax,0x2c302872
     271:	31 29                	xor    DWORD PTR [ecx],ebp
     273:	3b 34 3b             	cmp    esi,DWORD PTR [ebx+edi*1]
     276:	30 3b                	xor    BYTE PTR [ebx],bh
     278:	00 64 6f 75          	add    BYTE PTR [edi+ebp*2+0x75],ah
     27c:	62 6c 65 3a          	bound  ebp,QWORD PTR [ebp+eiz*2+0x3a]
     280:	74 28                	je     2aa <_init-0x8048436>
     282:	30 2c 31             	xor    BYTE PTR [ecx+esi*1],ch
     285:	33 29                	xor    ebp,DWORD PTR [ecx]
     287:	3d 72 28 30 2c       	cmp    eax,0x2c302872
     28c:	31 29                	xor    DWORD PTR [ecx],ebp
     28e:	3b 38                	cmp    edi,DWORD PTR [eax]
     290:	3b 30                	cmp    esi,DWORD PTR [eax]
     292:	3b 00                	cmp    eax,DWORD PTR [eax]
     294:	6c                   	ins    BYTE PTR es:[edi],dx
     295:	6f                   	outs   dx,DWORD PTR ds:[esi]
     296:	6e                   	outs   dx,BYTE PTR ds:[esi]
     297:	67 20 64 6f          	and    BYTE PTR [si+0x6f],ah
     29b:	75 62                	jne    2ff <_init-0x80483e1>
     29d:	6c                   	ins    BYTE PTR es:[edi],dx
     29e:	65 3a 74 28 30       	cmp    dh,BYTE PTR gs:[eax+ebp*1+0x30]
     2a3:	2c 31                	sub    al,0x31
     2a5:	34 29                	xor    al,0x29
     2a7:	3d 72 28 30 2c       	cmp    eax,0x2c302872
     2ac:	31 29                	xor    DWORD PTR [ecx],ebp
     2ae:	3b 31                	cmp    esi,DWORD PTR [ecx]
     2b0:	32 3b                	xor    bh,BYTE PTR [ebx]
     2b2:	30 3b                	xor    BYTE PTR [ebx],bh
     2b4:	00 63 6f             	add    BYTE PTR [ebx+0x6f],ah
     2b7:	6d                   	ins    DWORD PTR es:[edi],dx
     2b8:	70 6c                	jo     326 <_init-0x80483ba>
     2ba:	65                   	gs
     2bb:	78 20                	js     2dd <_init-0x8048403>
     2bd:	69 6e 74 3a 74 28 30 	imul   ebp,DWORD PTR [esi+0x74],0x3028743a
     2c4:	2c 31                	sub    al,0x31
     2c6:	35 29 3d 73 38       	xor    eax,0x38733d29
     2cb:	72 65                	jb     332 <_init-0x80483ae>
     2cd:	61                   	popa   
     2ce:	6c                   	ins    BYTE PTR es:[edi],dx
     2cf:	3a 28                	cmp    ch,BYTE PTR [eax]
     2d1:	30 2c 31             	xor    BYTE PTR [ecx+esi*1],ch
     2d4:	29 2c 30             	sub    DWORD PTR [eax+esi*1],ebp
     2d7:	2c 33                	sub    al,0x33
     2d9:	32 3b                	xor    bh,BYTE PTR [ebx]
     2db:	69 6d 61 67 3a 28 30 	imul   ebp,DWORD PTR [ebp+0x61],0x30283a67
     2e2:	2c 31                	sub    al,0x31
     2e4:	29 2c 33             	sub    DWORD PTR [ebx+esi*1],ebp
     2e7:	32 2c 33             	xor    ch,BYTE PTR [ebx+esi*1]
     2ea:	32 3b                	xor    bh,BYTE PTR [ebx]
     2ec:	3b 00                	cmp    eax,DWORD PTR [eax]
     2ee:	63 6f 6d             	arpl   WORD PTR [edi+0x6d],bp
     2f1:	70 6c                	jo     35f <_init-0x8048381>
     2f3:	65                   	gs
     2f4:	78 20                	js     316 <_init-0x80483ca>
     2f6:	66                   	data16
     2f7:	6c                   	ins    BYTE PTR es:[edi],dx
     2f8:	6f                   	outs   dx,DWORD PTR ds:[esi]
     2f9:	61                   	popa   
     2fa:	74 3a                	je     336 <_init-0x80483aa>
     2fc:	74 28                	je     326 <_init-0x80483ba>
     2fe:	30 2c 31             	xor    BYTE PTR [ecx+esi*1],ch
     301:	36 29 3d 72 28 30 2c 	sub    DWORD PTR ss:0x2c302872,edi
     308:	31 36                	xor    DWORD PTR [esi],esi
     30a:	29 3b                	sub    DWORD PTR [ebx],edi
     30c:	34 3b                	xor    al,0x3b
     30e:	30 3b                	xor    BYTE PTR [ebx],bh
     310:	00 63 6f             	add    BYTE PTR [ebx+0x6f],ah
     313:	6d                   	ins    DWORD PTR es:[edi],dx
     314:	70 6c                	jo     382 <_init-0x804835e>
     316:	65                   	gs
     317:	78 20                	js     339 <_init-0x80483a7>
     319:	64 6f                	outs   dx,DWORD PTR fs:[esi]
     31b:	75 62                	jne    37f <_init-0x8048361>
     31d:	6c                   	ins    BYTE PTR es:[edi],dx
     31e:	65 3a 74 28 30       	cmp    dh,BYTE PTR gs:[eax+ebp*1+0x30]
     323:	2c 31                	sub    al,0x31
     325:	37                   	aaa    
     326:	29 3d 72 28 30 2c    	sub    DWORD PTR ds:0x2c302872,edi
     32c:	31 37                	xor    DWORD PTR [edi],esi
     32e:	29 3b                	sub    DWORD PTR [ebx],edi
     330:	38 3b                	cmp    BYTE PTR [ebx],bh
     332:	30 3b                	xor    BYTE PTR [ebx],bh
     334:	00 63 6f             	add    BYTE PTR [ebx+0x6f],ah
     337:	6d                   	ins    DWORD PTR es:[edi],dx
     338:	70 6c                	jo     3a6 <_init-0x804833a>
     33a:	65                   	gs
     33b:	78 20                	js     35d <_init-0x8048383>
     33d:	6c                   	ins    BYTE PTR es:[edi],dx
     33e:	6f                   	outs   dx,DWORD PTR ds:[esi]
     33f:	6e                   	outs   dx,BYTE PTR ds:[esi]
     340:	67 20 64 6f          	and    BYTE PTR [si+0x6f],ah
     344:	75 62                	jne    3a8 <_init-0x8048338>
     346:	6c                   	ins    BYTE PTR es:[edi],dx
     347:	65 3a 74 28 30       	cmp    dh,BYTE PTR gs:[eax+ebp*1+0x30]
     34c:	2c 31                	sub    al,0x31
     34e:	38 29                	cmp    BYTE PTR [ecx],ch
     350:	3d 72 28 30 2c       	cmp    eax,0x2c302872
     355:	31 38                	xor    DWORD PTR [eax],edi
     357:	29 3b                	sub    DWORD PTR [ebx],edi
     359:	31 32                	xor    DWORD PTR [edx],esi
     35b:	3b 30                	cmp    esi,DWORD PTR [eax]
     35d:	3b 00                	cmp    eax,DWORD PTR [eax]
     35f:	76 6f                	jbe    3d0 <_init-0x8048310>
     361:	69 64 3a 74 28 30 2c 	imul   esp,DWORD PTR [edx+edi*1+0x74],0x312c3028
     368:	31 
     369:	39 29                	cmp    DWORD PTR [ecx],ebp
     36b:	3d 28 30 2c 31       	cmp    eax,0x312c3028
     370:	39 29                	cmp    DWORD PTR [ecx],ebp
     372:	00 2e                	add    BYTE PTR [esi],ch
     374:	2e                   	cs
     375:	2f                   	das    
     376:	69 6e 63 6c 75 64 65 	imul   ebp,DWORD PTR [esi+0x63],0x6564756c
     37d:	2f                   	das    
     37e:	6c                   	ins    BYTE PTR es:[edi],dx
     37f:	69 62 63 2d 73 79 6d 	imul   esp,DWORD PTR [edx+0x63],0x6d79732d
     386:	62 6f 6c             	bound  ebp,QWORD PTR [edi+0x6c]
     389:	73 2e                	jae    3b9 <_init-0x8048327>
     38b:	68 00 2f 75 73       	push   0x73752f00
     390:	72 2f                	jb     3c1 <_init-0x804831f>
     392:	73 72                	jae    406 <_init-0x80482da>
     394:	63 2f                	arpl   WORD PTR [edi],bp
     396:	62 73 2f             	bound  esi,QWORD PTR [ebx+0x2f]
     399:	42                   	inc    edx
     39a:	55                   	push   ebp
     39b:	49                   	dec    ecx
     39c:	4c                   	dec    esp
     39d:	44                   	inc    esp
     39e:	2f                   	das    
     39f:	67 6c                	ins    BYTE PTR es:[di],dx
     3a1:	69 62 63 2d 32 2e 31 	imul   esp,DWORD PTR [edx+0x63],0x312e322d
     3a8:	2e 33 2f             	xor    ebp,DWORD PTR cs:[edi]
     3ab:	62 75 69             	bound  esi,QWORD PTR [ebp+0x69]
     3ae:	6c                   	ins    BYTE PTR es:[edi],dx
     3af:	64                   	fs
     3b0:	2d 69 33 38 36       	sub    eax,0x36383369
     3b5:	2d 6c 69 6e 75       	sub    eax,0x756e696c
     3ba:	78 2f                	js     3eb <_init-0x80482f5>
     3bc:	63 6f 6e             	arpl   WORD PTR [edi+0x6e],bp
     3bf:	66 69 67 2e 68 00    	imul   sp,WORD PTR [edi+0x2e],0x68
     3c5:	2e                   	cs
     3c6:	2e                   	cs
     3c7:	2f                   	das    
     3c8:	69 6e 63 6c 75 64 65 	imul   ebp,DWORD PTR [esi+0x63],0x6564756c
     3cf:	2f                   	das    
     3d0:	6c                   	ins    BYTE PTR es:[edi],dx
     3d1:	69 62 69 6e 74 6c 2e 	imul   esp,DWORD PTR [edx+0x69],0x2e6c746e
     3d8:	68 00 2e 2e 2f       	push   0x2f2e2e00
     3dd:	69 6e 74 6c 2f 6c 69 	imul   ebp,DWORD PTR [esi+0x74],0x696c2f6c
     3e4:	62 69 6e             	bound  ebp,QWORD PTR [ecx+0x6e]
     3e7:	74 6c                	je     455 <_init-0x804828b>
     3e9:	2e                   	cs
     3ea:	68 00 2e 2e 2f       	push   0x2f2e2e00
     3ef:	69 6e 63 6c 75 64 65 	imul   ebp,DWORD PTR [esi+0x63],0x6564756c
     3f6:	2f                   	das    
     3f7:	66                   	data16
     3f8:	65                   	gs
     3f9:	61                   	popa   
     3fa:	74 75                	je     471 <_init-0x804826f>
     3fc:	72 65                	jb     463 <_init-0x804827d>
     3fe:	73 2e                	jae    42e <_init-0x80482b2>
     400:	68 00 2e 2e 2f       	push   0x2f2e2e00
     405:	69 6e 63 6c 75 64 65 	imul   ebp,DWORD PTR [esi+0x63],0x6564756c
     40c:	2f                   	das    
     40d:	73 79                	jae    488 <_init-0x8048258>
     40f:	73 2f                	jae    440 <_init-0x80482a0>
     411:	63 64 65 66          	arpl   WORD PTR [ebp+eiz*2+0x66],sp
     415:	73 2e                	jae    445 <_init-0x804829b>
     417:	68 00 2e 2e 2f       	push   0x2f2e2e00
     41c:	6d                   	ins    DWORD PTR es:[edi],dx
     41d:	69 73 63 2f 73 79 73 	imul   esi,DWORD PTR [ebx+0x63],0x7379732f
     424:	2f                   	das    
     425:	63 64 65 66          	arpl   WORD PTR [ebp+eiz*2+0x66],sp
     429:	73 2e                	jae    459 <_init-0x8048287>
     42b:	68 00 2f 75 73       	push   0x73752f00
     430:	72 2f                	jb     461 <_init-0x804827f>
     432:	6c                   	ins    BYTE PTR es:[edi],dx
     433:	69 62 2f 67 63 63 2d 	imul   esp,DWORD PTR [edx+0x2f],0x2d636367
     43a:	6c                   	ins    BYTE PTR es:[edi],dx
     43b:	69 62 2f 69 33 38 36 	imul   esp,DWORD PTR [edx+0x2f],0x36383369
     442:	2d 72 65 64 68       	sub    eax,0x68646572
     447:	61                   	popa   
     448:	74 2d                	je     477 <_init-0x8048269>
     44a:	6c                   	ins    BYTE PTR es:[edi],dx
     44b:	69 6e 75 78 2f 65 67 	imul   ebp,DWORD PTR [esi+0x75],0x67652f78
     452:	63 73 2d             	arpl   WORD PTR [ebx+0x2d],si
     455:	32 2e                	xor    ch,BYTE PTR [esi]
     457:	39 31                	cmp    DWORD PTR [ecx],esi
     459:	2e                   	cs
     45a:	36                   	ss
     45b:	36                   	ss
     45c:	2f                   	das    
     45d:	69 6e 63 6c 75 64 65 	imul   ebp,DWORD PTR [esi+0x63],0x6564756c
     464:	2f                   	das    
     465:	73 74                	jae    4db <_init-0x8048205>
     467:	64                   	fs
     468:	64                   	fs
     469:	65                   	gs
     46a:	66                   	data16
     46b:	2e                   	cs
     46c:	68 00 2e 2e 2f       	push   0x2f2e2e00
     471:	69 6e 63 6c 75 64 65 	imul   ebp,DWORD PTR [esi+0x63],0x6564756c
     478:	2f                   	das    
     479:	6c                   	ins    BYTE PTR es:[edi],dx
     47a:	6f                   	outs   dx,DWORD PTR ds:[esi]
     47b:	63 61 6c             	arpl   WORD PTR [ecx+0x6c],sp
     47e:	65                   	gs
     47f:	2e                   	cs
     480:	68 00 2e 2e 2f       	push   0x2f2e2e00
     485:	6c                   	ins    BYTE PTR es:[edi],dx
     486:	6f                   	outs   dx,DWORD PTR ds:[esi]
     487:	63 61 6c             	arpl   WORD PTR [ecx+0x6c],sp
     48a:	65                   	gs
     48b:	2f                   	das    
     48c:	6c                   	ins    BYTE PTR es:[edi],dx
     48d:	6f                   	outs   dx,DWORD PTR ds:[esi]
     48e:	63 61 6c             	arpl   WORD PTR [ecx+0x6c],sp
     491:	65                   	gs
     492:	2e                   	cs
     493:	68 00 6c 63 6f       	push   0x6f636c00
     498:	6e                   	outs   dx,BYTE PTR ds:[esi]
     499:	76 3a                	jbe    4d5 <_init-0x804820b>
     49b:	54                   	push   esp
     49c:	28 31                	sub    BYTE PTR [ecx],dh
     49e:	30 2c 31             	xor    BYTE PTR [ecx+esi*1],ch
     4a1:	29 3d 73 34 38 64    	sub    DWORD PTR ds:0x64383473,edi
     4a7:	65 63 69 6d          	arpl   WORD PTR gs:[ecx+0x6d],bp
     4ab:	61                   	popa   
     4ac:	6c                   	ins    BYTE PTR es:[edi],dx
     4ad:	5f                   	pop    edi
     4ae:	70 6f                	jo     51f <_init-0x80481c1>
     4b0:	69 6e 74 3a 28 31 30 	imul   ebp,DWORD PTR [esi+0x74],0x3031283a
     4b7:	2c 32                	sub    al,0x32
     4b9:	29 3d 2a 28 30 2c    	sub    DWORD PTR ds:0x2c30282a,edi
     4bf:	32 29                	xor    ch,BYTE PTR [ecx]
     4c1:	2c 30                	sub    al,0x30
     4c3:	2c 33                	sub    al,0x33
     4c5:	32 3b                	xor    bh,BYTE PTR [ebx]
     4c7:	74 68                	je     531 <_init-0x80481af>
     4c9:	6f                   	outs   dx,DWORD PTR ds:[esi]
     4ca:	75 73                	jne    53f <_init-0x80481a1>
     4cc:	61                   	popa   
     4cd:	6e                   	outs   dx,BYTE PTR ds:[esi]
     4ce:	64                   	fs
     4cf:	73 5f                	jae    530 <_init-0x80481b0>
     4d1:	73 65                	jae    538 <_init-0x80481a8>
     4d3:	70 3a                	jo     50f <_init-0x80481d1>
     4d5:	28 31                	sub    BYTE PTR [ecx],dh
     4d7:	30 2c 32             	xor    BYTE PTR [edx+esi*1],ch
     4da:	29 2c 33             	sub    DWORD PTR [ebx+esi*1],ebp
     4dd:	32 2c 33             	xor    ch,BYTE PTR [ebx+esi*1]
     4e0:	32 3b                	xor    bh,BYTE PTR [ebx]
     4e2:	5c                   	pop    esp
     4e3:	00 67 72             	add    BYTE PTR [edi+0x72],ah
     4e6:	6f                   	outs   dx,DWORD PTR ds:[esi]
     4e7:	75 70                	jne    559 <_init-0x8048187>
     4e9:	69 6e 67 3a 28 31 30 	imul   ebp,DWORD PTR [esi+0x67],0x3031283a
     4f0:	2c 32                	sub    al,0x32
     4f2:	29 2c 36             	sub    DWORD PTR [esi+esi*1],ebp
     4f5:	34 2c                	xor    al,0x2c
     4f7:	33 32                	xor    esi,DWORD PTR [edx]
     4f9:	3b 69 6e             	cmp    ebp,DWORD PTR [ecx+0x6e]
     4fc:	74 5f                	je     55d <_init-0x8048183>
     4fe:	63 75 72             	arpl   WORD PTR [ebp+0x72],si
     501:	72 5f                	jb     562 <_init-0x804817e>
     503:	73 79                	jae    57e <_init-0x8048162>
     505:	6d                   	ins    DWORD PTR es:[edi],dx
     506:	62 6f 6c             	bound  ebp,QWORD PTR [edi+0x6c]
     509:	3a 28                	cmp    ch,BYTE PTR [eax]
     50b:	31 30                	xor    DWORD PTR [eax],esi
     50d:	2c 32                	sub    al,0x32
     50f:	29 2c 39             	sub    DWORD PTR [ecx+edi*1],ebp
     512:	36                   	ss
     513:	2c 33                	sub    al,0x33
     515:	32 3b                	xor    bh,BYTE PTR [ebx]
     517:	5c                   	pop    esp
     518:	00 63 75             	add    BYTE PTR [ebx+0x75],ah
     51b:	72 72                	jb     58f <_init-0x8048151>
     51d:	65 6e                	outs   dx,BYTE PTR gs:[esi]
     51f:	63 79 5f             	arpl   WORD PTR [ecx+0x5f],di
     522:	73 79                	jae    59d <_init-0x8048143>
     524:	6d                   	ins    DWORD PTR es:[edi],dx
     525:	62 6f 6c             	bound  ebp,QWORD PTR [edi+0x6c]
     528:	3a 28                	cmp    ch,BYTE PTR [eax]
     52a:	31 30                	xor    DWORD PTR [eax],esi
     52c:	2c 32                	sub    al,0x32
     52e:	29 2c 31             	sub    DWORD PTR [ecx+esi*1],ebp
     531:	32 38                	xor    bh,BYTE PTR [eax]
     533:	2c 33                	sub    al,0x33
     535:	32 3b                	xor    bh,BYTE PTR [ebx]
     537:	6d                   	ins    DWORD PTR es:[edi],dx
     538:	6f                   	outs   dx,DWORD PTR ds:[esi]
     539:	6e                   	outs   dx,BYTE PTR ds:[esi]
     53a:	5f                   	pop    edi
     53b:	64 65 63 69 6d       	fs arpl WORD PTR fs:gs:[ecx+0x6d],bp
     540:	61                   	popa   
     541:	6c                   	ins    BYTE PTR es:[edi],dx
     542:	5f                   	pop    edi
     543:	70 6f                	jo     5b4 <_init-0x804812c>
     545:	69 6e 74 3a 28 31 30 	imul   ebp,DWORD PTR [esi+0x74],0x3031283a
     54c:	2c 32                	sub    al,0x32
     54e:	29 2c 31             	sub    DWORD PTR [ecx+esi*1],ebp
     551:	36 30 2c 33          	xor    BYTE PTR ss:[ebx+esi*1],ch
     555:	32 3b                	xor    bh,BYTE PTR [ebx]
     557:	5c                   	pop    esp
     558:	00 6d 6f             	add    BYTE PTR [ebp+0x6f],ch
     55b:	6e                   	outs   dx,BYTE PTR ds:[esi]
     55c:	5f                   	pop    edi
     55d:	74 68                	je     5c7 <_init-0x8048119>
     55f:	6f                   	outs   dx,DWORD PTR ds:[esi]
     560:	75 73                	jne    5d5 <_init-0x804810b>
     562:	61                   	popa   
     563:	6e                   	outs   dx,BYTE PTR ds:[esi]
     564:	64                   	fs
     565:	73 5f                	jae    5c6 <_init-0x804811a>
     567:	73 65                	jae    5ce <_init-0x8048112>
     569:	70 3a                	jo     5a5 <_init-0x804813b>
     56b:	28 31                	sub    BYTE PTR [ecx],dh
     56d:	30 2c 32             	xor    BYTE PTR [edx+esi*1],ch
     570:	29 2c 31             	sub    DWORD PTR [ecx+esi*1],ebp
     573:	39 32                	cmp    DWORD PTR [edx],esi
     575:	2c 33                	sub    al,0x33
     577:	32 3b                	xor    bh,BYTE PTR [ebx]
     579:	6d                   	ins    DWORD PTR es:[edi],dx
     57a:	6f                   	outs   dx,DWORD PTR ds:[esi]
     57b:	6e                   	outs   dx,BYTE PTR ds:[esi]
     57c:	5f                   	pop    edi
     57d:	67 72 6f             	addr16 jb 5ef <_init-0x80480f1>
     580:	75 70                	jne    5f2 <_init-0x80480ee>
     582:	69 6e 67 3a 28 31 30 	imul   ebp,DWORD PTR [esi+0x67],0x3031283a
     589:	2c 32                	sub    al,0x32
     58b:	29 2c 32             	sub    DWORD PTR [edx+esi*1],ebp
     58e:	32 34 2c             	xor    dh,BYTE PTR [esp+ebp*1]
     591:	33 32                	xor    esi,DWORD PTR [edx]
     593:	3b 5c 00 70          	cmp    ebx,DWORD PTR [eax+eax*1+0x70]
     597:	6f                   	outs   dx,DWORD PTR ds:[esi]
     598:	73 69                	jae    603 <_init-0x80480dd>
     59a:	74 69                	je     605 <_init-0x80480db>
     59c:	76 65                	jbe    603 <_init-0x80480dd>
     59e:	5f                   	pop    edi
     59f:	73 69                	jae    60a <_init-0x80480d6>
     5a1:	67 6e                	outs   dx,BYTE PTR ds:[si]
     5a3:	3a 28                	cmp    ch,BYTE PTR [eax]
     5a5:	31 30                	xor    DWORD PTR [eax],esi
     5a7:	2c 32                	sub    al,0x32
     5a9:	29 2c 32             	sub    DWORD PTR [edx+esi*1],ebp
     5ac:	35 36 2c 33 32       	xor    eax,0x32332c36
     5b1:	3b 6e 65             	cmp    ebp,DWORD PTR [esi+0x65]
     5b4:	67 61                	addr16 popa 
     5b6:	74 69                	je     621 <_init-0x80480bf>
     5b8:	76 65                	jbe    61f <_init-0x80480c1>
     5ba:	5f                   	pop    edi
     5bb:	73 69                	jae    626 <_init-0x80480ba>
     5bd:	67 6e                	outs   dx,BYTE PTR ds:[si]
     5bf:	3a 28                	cmp    ch,BYTE PTR [eax]
     5c1:	31 30                	xor    DWORD PTR [eax],esi
     5c3:	2c 32                	sub    al,0x32
     5c5:	29 2c 32             	sub    DWORD PTR [edx+esi*1],ebp
     5c8:	38 38                	cmp    BYTE PTR [eax],bh
     5ca:	2c 33                	sub    al,0x33
     5cc:	32 3b                	xor    bh,BYTE PTR [ebx]
     5ce:	5c                   	pop    esp
     5cf:	00 69 6e             	add    BYTE PTR [ecx+0x6e],ch
     5d2:	74 5f                	je     633 <_init-0x80480ad>
     5d4:	66                   	data16
     5d5:	72 61                	jb     638 <_init-0x80480a8>
     5d7:	63 5f 64             	arpl   WORD PTR [edi+0x64],bx
     5da:	69 67 69 74 73 3a 28 	imul   esp,DWORD PTR [edi+0x69],0x283a7374
     5e1:	30 2c 32             	xor    BYTE PTR [edx+esi*1],ch
     5e4:	29 2c 33             	sub    DWORD PTR [ebx+esi*1],ebp
     5e7:	32 30                	xor    dh,BYTE PTR [eax]
     5e9:	2c 38                	sub    al,0x38
     5eb:	3b 66 72             	cmp    esp,DWORD PTR [esi+0x72]
     5ee:	61                   	popa   
     5ef:	63 5f 64             	arpl   WORD PTR [edi+0x64],bx
     5f2:	69 67 69 74 73 3a 28 	imul   esp,DWORD PTR [edi+0x69],0x283a7374
     5f9:	30 2c 32             	xor    BYTE PTR [edx+esi*1],ch
     5fc:	29 2c 33             	sub    DWORD PTR [ebx+esi*1],ebp
     5ff:	32 38                	xor    bh,BYTE PTR [eax]
     601:	2c 38                	sub    al,0x38
     603:	3b 5c 00 70          	cmp    ebx,DWORD PTR [eax+eax*1+0x70]
     607:	5f                   	pop    edi
     608:	63 73 5f             	arpl   WORD PTR [ebx+0x5f],si
     60b:	70 72                	jo     67f <_init-0x8048061>
     60d:	65 63 65 64          	arpl   WORD PTR gs:[ebp+0x64],sp
     611:	65                   	gs
     612:	73 3a                	jae    64e <_init-0x8048092>
     614:	28 30                	sub    BYTE PTR [eax],dh
     616:	2c 32                	sub    al,0x32
     618:	29 2c 33             	sub    DWORD PTR [ebx+esi*1],ebp
     61b:	33 36                	xor    esi,DWORD PTR [esi]
     61d:	2c 38                	sub    al,0x38
     61f:	3b 70 5f             	cmp    esi,DWORD PTR [eax+0x5f]
     622:	73 65                	jae    689 <_init-0x8048057>
     624:	70 5f                	jo     685 <_init-0x804805b>
     626:	62 79 5f             	bound  edi,QWORD PTR [ecx+0x5f]
     629:	73 70                	jae    69b <_init-0x8048045>
     62b:	61                   	popa   
     62c:	63 65 3a             	arpl   WORD PTR [ebp+0x3a],sp
     62f:	28 30                	sub    BYTE PTR [eax],dh
     631:	2c 32                	sub    al,0x32
     633:	29 2c 33             	sub    DWORD PTR [ebx+esi*1],ebp
     636:	34 34                	xor    al,0x34
     638:	2c 38                	sub    al,0x38
     63a:	3b 5c 00 6e          	cmp    ebx,DWORD PTR [eax+eax*1+0x6e]
     63e:	5f                   	pop    edi
     63f:	63 73 5f             	arpl   WORD PTR [ebx+0x5f],si
     642:	70 72                	jo     6b6 <_init-0x804802a>
     644:	65 63 65 64          	arpl   WORD PTR gs:[ebp+0x64],sp
     648:	65                   	gs
     649:	73 3a                	jae    685 <_init-0x804805b>
     64b:	28 30                	sub    BYTE PTR [eax],dh
     64d:	2c 32                	sub    al,0x32
     64f:	29 2c 33             	sub    DWORD PTR [ebx+esi*1],ebp
     652:	35 32 2c 38 3b       	xor    eax,0x3b382c32
     657:	6e                   	outs   dx,BYTE PTR ds:[esi]
     658:	5f                   	pop    edi
     659:	73 65                	jae    6c0 <_init-0x8048020>
     65b:	70 5f                	jo     6bc <_init-0x8048024>
     65d:	62 79 5f             	bound  edi,QWORD PTR [ecx+0x5f]
     660:	73 70                	jae    6d2 <_init-0x804800e>
     662:	61                   	popa   
     663:	63 65 3a             	arpl   WORD PTR [ebp+0x3a],sp
     666:	28 30                	sub    BYTE PTR [eax],dh
     668:	2c 32                	sub    al,0x32
     66a:	29 2c 33             	sub    DWORD PTR [ebx+esi*1],ebp
     66d:	36 30 2c 38          	xor    BYTE PTR ss:[eax+edi*1],ch
     671:	3b 5c 00 70          	cmp    ebx,DWORD PTR [eax+eax*1+0x70]
     675:	5f                   	pop    edi
     676:	73 69                	jae    6e1 <_init-0x8047fff>
     678:	67 6e                	outs   dx,BYTE PTR ds:[si]
     67a:	5f                   	pop    edi
     67b:	70 6f                	jo     6ec <_init-0x8047ff4>
     67d:	73 6e                	jae    6ed <_init-0x8047ff3>
     67f:	3a 28                	cmp    ch,BYTE PTR [eax]
     681:	30 2c 32             	xor    BYTE PTR [edx+esi*1],ch
     684:	29 2c 33             	sub    DWORD PTR [ebx+esi*1],ebp
     687:	36 38 2c 38          	cmp    BYTE PTR ss:[eax+edi*1],ch
     68b:	3b 6e 5f             	cmp    ebp,DWORD PTR [esi+0x5f]
     68e:	73 69                	jae    6f9 <_init-0x8047fe7>
     690:	67 6e                	outs   dx,BYTE PTR ds:[si]
     692:	5f                   	pop    edi
     693:	70 6f                	jo     704 <_init-0x8047fdc>
     695:	73 6e                	jae    705 <_init-0x8047fdb>
     697:	3a 28                	cmp    ch,BYTE PTR [eax]
     699:	30 2c 32             	xor    BYTE PTR [edx+esi*1],ch
     69c:	29 2c 33             	sub    DWORD PTR [ebx+esi*1],ebp
     69f:	37                   	aaa    
     6a0:	36                   	ss
     6a1:	2c 38                	sub    al,0x38
     6a3:	3b 3b                	cmp    edi,DWORD PTR [ebx]
     6a5:	00 2e                	add    BYTE PTR [esi],ch
     6a7:	2e                   	cs
     6a8:	2f                   	das    
     6a9:	69 6e 63 6c 75 64 65 	imul   ebp,DWORD PTR [esi+0x63],0x6564756c
     6b0:	2f                   	das    
     6b1:	78 6c                	js     71f <_init-0x8047fc1>
     6b3:	6f                   	outs   dx,DWORD PTR ds:[esi]
     6b4:	63 61 6c             	arpl   WORD PTR [ecx+0x6c],sp
     6b7:	65                   	gs
     6b8:	2e                   	cs
     6b9:	68 00 2e 2e 2f       	push   0x2f2e2e00
     6be:	6c                   	ins    BYTE PTR es:[edi],dx
     6bf:	6f                   	outs   dx,DWORD PTR ds:[esi]
     6c0:	63 61 6c             	arpl   WORD PTR [ecx+0x6c],sp
     6c3:	65                   	gs
     6c4:	2f                   	das    
     6c5:	78 6c                	js     733 <_init-0x8047fad>
     6c7:	6f                   	outs   dx,DWORD PTR ds:[esi]
     6c8:	63 61 6c             	arpl   WORD PTR [ecx+0x6c],sp
     6cb:	65                   	gs
     6cc:	2e                   	cs
     6cd:	68 00 5f 5f 6c       	push   0x6c5f5f00
     6d2:	6f                   	outs   dx,DWORD PTR ds:[esi]
     6d3:	63 61 6c             	arpl   WORD PTR [ecx+0x6c],sp
     6d6:	65                   	gs
     6d7:	5f                   	pop    edi
     6d8:	73 74                	jae    74e <_init-0x8047f92>
     6da:	72 75                	jb     751 <_init-0x8047f8f>
     6dc:	63 74 3a 54          	arpl   WORD PTR [edx+edi*1+0x54],si
     6e0:	28 31                	sub    BYTE PTR [ecx],dh
     6e2:	33 2c 31             	xor    ebp,DWORD PTR [ecx+esi*1]
     6e5:	29 3d 73 33 36 5f    	sub    DWORD PTR ds:0x5f363373,edi
     6eb:	5f                   	pop    edi
     6ec:	6c                   	ins    BYTE PTR es:[edi],dx
     6ed:	6f                   	outs   dx,DWORD PTR ds:[esi]
     6ee:	63 61 6c             	arpl   WORD PTR [ecx+0x6c],sp
     6f1:	65                   	gs
     6f2:	73 3a                	jae    72e <_init-0x8047fb2>
     6f4:	28 31                	sub    BYTE PTR [ecx],dh
     6f6:	33 2c 32             	xor    ebp,DWORD PTR [edx+esi*1]
     6f9:	29 3d 61 72 28 30    	sub    DWORD PTR ds:0x30287261,edi
     6ff:	2c 31                	sub    al,0x31
     701:	29 3b                	sub    DWORD PTR [ebx],edi
     703:	30 3b                	xor    BYTE PTR [ebx],bh
     705:	35 3b 28 31 33       	xor    eax,0x3331283b
     70a:	2c 33                	sub    al,0x33
     70c:	29 3d 2a 28 31 33    	sub    DWORD PTR ds:0x3331282a,edi
     712:	2c 34                	sub    al,0x34
     714:	29 3d 78 73 6c 6f    	sub    DWORD PTR ds:0x6f6c7378,edi
     71a:	63 61 6c             	arpl   WORD PTR [ecx+0x6c],sp
     71d:	65                   	gs
     71e:	5f                   	pop    edi
     71f:	64                   	fs
     720:	61                   	popa   
     721:	74 61                	je     784 <_init-0x8047f5c>
     723:	3a 2c 30             	cmp    ch,BYTE PTR [eax+esi*1]
     726:	2c 31                	sub    al,0x31
     728:	39 32                	cmp    DWORD PTR [edx],esi
     72a:	3b 5c 00 5f          	cmp    ebx,DWORD PTR [eax+eax*1+0x5f]
     72e:	5f                   	pop    edi
     72f:	63 74 79 70          	arpl   WORD PTR [ecx+edi*2+0x70],si
     733:	65                   	gs
     734:	5f                   	pop    edi
     735:	62 3a                	bound  edi,QWORD PTR [edx]
     737:	28 31                	sub    BYTE PTR [ecx],dh
     739:	33 2c 35 29 3d 2a 28 	xor    ebp,DWORD PTR [esi*1+0x282a3d29]
     740:	30 2c 39             	xor    BYTE PTR [ecx+edi*1],ch
     743:	29 2c 31             	sub    DWORD PTR [ecx+esi*1],ebp
     746:	39 32                	cmp    DWORD PTR [edx],esi
     748:	2c 33                	sub    al,0x33
     74a:	32 3b                	xor    bh,BYTE PTR [ebx]
     74c:	5f                   	pop    edi
     74d:	5f                   	pop    edi
     74e:	63 74 79 70          	arpl   WORD PTR [ecx+edi*2+0x70],si
     752:	65                   	gs
     753:	5f                   	pop    edi
     754:	74 6f                	je     7c5 <_init-0x8047f1b>
     756:	6c                   	ins    BYTE PTR es:[edi],dx
     757:	6f                   	outs   dx,DWORD PTR ds:[esi]
     758:	77 65                	ja     7bf <_init-0x8047f21>
     75a:	72 3a                	jb     796 <_init-0x8047f4a>
     75c:	28 31                	sub    BYTE PTR [ecx],dh
     75e:	33 2c 36             	xor    ebp,DWORD PTR [esi+esi*1]
     761:	29 3d 2a 28 30 2c    	sub    DWORD PTR ds:0x2c30282a,edi
     767:	31 29                	xor    DWORD PTR [ecx],ebp
     769:	2c 32                	sub    al,0x32
     76b:	32 34 2c             	xor    dh,BYTE PTR [esp+ebp*1]
     76e:	33 32                	xor    esi,DWORD PTR [edx]
     770:	3b 5c 00 5f          	cmp    ebx,DWORD PTR [eax+eax*1+0x5f]
     774:	5f                   	pop    edi
     775:	63 74 79 70          	arpl   WORD PTR [ecx+edi*2+0x70],si
     779:	65                   	gs
     77a:	5f                   	pop    edi
     77b:	74 6f                	je     7ec <_init-0x8047ef4>
     77d:	75 70                	jne    7ef <_init-0x8047ef1>
     77f:	70 65                	jo     7e6 <_init-0x8047efa>
     781:	72 3a                	jb     7bd <_init-0x8047f23>
     783:	28 31                	sub    BYTE PTR [ecx],dh
     785:	33 2c 36             	xor    ebp,DWORD PTR [esi+esi*1]
     788:	29 2c 32             	sub    DWORD PTR [edx+esi*1],ebp
     78b:	35 36 2c 33 32       	xor    eax,0x32332c36
     790:	3b 3b                	cmp    edi,DWORD PTR [ebx]
     792:	00 5f 5f             	add    BYTE PTR [edi+0x5f],bl
     795:	6c                   	ins    BYTE PTR es:[edi],dx
     796:	6f                   	outs   dx,DWORD PTR ds:[esi]
     797:	63 61 6c             	arpl   WORD PTR [ecx+0x6c],sp
     79a:	65                   	gs
     79b:	5f                   	pop    edi
     79c:	74 3a                	je     7d8 <_init-0x8047f08>
     79e:	74 28                	je     7c8 <_init-0x8047f18>
     7a0:	31 33                	xor    DWORD PTR [ebx],esi
     7a2:	2c 37                	sub    al,0x37
     7a4:	29 3d 28 31 33 2c    	sub    DWORD PTR ds:0x2c333128,edi
     7aa:	38 29                	cmp    BYTE PTR [ecx],ch
     7ac:	3d 2a 28 31 33       	cmp    eax,0x3331282a
     7b1:	2c 31                	sub    al,0x31
     7b3:	29 00                	sub    DWORD PTR [eax],eax
     7b5:	2e                   	cs
     7b6:	2e                   	cs
     7b7:	2f                   	das    
     7b8:	73 79                	jae    833 <_init-0x8047ead>
     7ba:	73 64                	jae    820 <_init-0x8047ec0>
     7bc:	65                   	gs
     7bd:	70 73                	jo     832 <_init-0x8047eae>
     7bf:	2f                   	das    
     7c0:	75 6e                	jne    830 <_init-0x8047eb0>
     7c2:	69 78 2f 73 79 73 76 	imul   edi,DWORD PTR [eax+0x2f],0x76737973
     7c9:	2f                   	das    
     7ca:	6c                   	ins    BYTE PTR es:[edi],dx
     7cb:	69 6e 75 78 2f 5f 47 	imul   ebp,DWORD PTR [esi+0x75],0x475f2f78
     7d2:	5f                   	pop    edi
     7d3:	63 6f 6e             	arpl   WORD PTR [edi+0x6e],bp
     7d6:	66 69 67 2e 68 00    	imul   sp,WORD PTR [edi+0x2e],0x68
     7dc:	2e                   	cs
     7dd:	2e                   	cs
     7de:	2f                   	das    
     7df:	73 79                	jae    85a <_init-0x8047e86>
     7e1:	73 64                	jae    847 <_init-0x8047e99>
     7e3:	65                   	gs
     7e4:	70 73                	jo     859 <_init-0x8047e87>
     7e6:	2f                   	das    
     7e7:	75 6e                	jne    857 <_init-0x8047e89>
     7e9:	69 78 2f 73 79 73 76 	imul   edi,DWORD PTR [eax+0x2f],0x76737973
     7f0:	2f                   	das    
     7f1:	6c                   	ins    BYTE PTR es:[edi],dx
     7f2:	69 6e 75 78 2f 62 69 	imul   ebp,DWORD PTR [esi+0x75],0x69622f78
     7f9:	74 73                	je     86e <_init-0x8047e72>
     7fb:	2f                   	das    
     7fc:	74 79                	je     877 <_init-0x8047e69>
     7fe:	70 65                	jo     865 <_init-0x8047e7b>
     800:	73 2e                	jae    830 <_init-0x8047eb0>
     802:	68 00 73 69 7a       	push   0x7a697300
     807:	65                   	gs
     808:	5f                   	pop    edi
     809:	74 3a                	je     845 <_init-0x8047e9b>
     80b:	74 28                	je     835 <_init-0x8047eab>
     80d:	31 36                	xor    DWORD PTR [esi],esi
     80f:	2c 31                	sub    al,0x31
     811:	29 3d 28 30 2c 34    	sub    DWORD PTR ds:0x342c3028,edi
     817:	29 00                	sub    DWORD PTR [eax],eax
     819:	5f                   	pop    edi
     81a:	5f                   	pop    edi
     81b:	75 5f                	jne    87c <_init-0x8047e64>
     81d:	63 68 61             	arpl   WORD PTR [eax+0x61],bp
     820:	72 3a                	jb     85c <_init-0x8047e84>
     822:	74 28                	je     84c <_init-0x8047e94>
     824:	31 35 2c 31 29 3d    	xor    DWORD PTR ds:0x3d29312c,esi
     82a:	28 30                	sub    BYTE PTR [eax],dh
     82c:	2c 31                	sub    al,0x31
     82e:	31 29                	xor    DWORD PTR [ecx],ebp
     830:	00 5f 5f             	add    BYTE PTR [edi+0x5f],bl
     833:	75 5f                	jne    894 <_init-0x8047e4c>
     835:	73 68                	jae    89f <_init-0x8047e41>
     837:	6f                   	outs   dx,DWORD PTR ds:[esi]
     838:	72 74                	jb     8ae <_init-0x8047e32>
     83a:	3a 74 28 31          	cmp    dh,BYTE PTR [eax+ebp*1+0x31]
     83e:	35 2c 32 29 3d       	xor    eax,0x3d29322c
     843:	28 30                	sub    BYTE PTR [eax],dh
     845:	2c 39                	sub    al,0x39
     847:	29 00                	sub    DWORD PTR [eax],eax
     849:	5f                   	pop    edi
     84a:	5f                   	pop    edi
     84b:	75 5f                	jne    8ac <_init-0x8047e34>
     84d:	69 6e 74 3a 74 28 31 	imul   ebp,DWORD PTR [esi+0x74],0x3128743a
     854:	35 2c 33 29 3d       	xor    eax,0x3d29332c
     859:	28 30                	sub    BYTE PTR [eax],dh
     85b:	2c 34                	sub    al,0x34
     85d:	29 00                	sub    DWORD PTR [eax],eax
     85f:	5f                   	pop    edi
     860:	5f                   	pop    edi
     861:	75 5f                	jne    8c2 <_init-0x8047e1e>
     863:	6c                   	ins    BYTE PTR es:[edi],dx
     864:	6f                   	outs   dx,DWORD PTR ds:[esi]
     865:	6e                   	outs   dx,BYTE PTR ds:[esi]
     866:	67 3a 74 28          	cmp    dh,BYTE PTR [si+0x28]
     86a:	31 35 2c 34 29 3d    	xor    DWORD PTR ds:0x3d29342c,esi
     870:	28 30                	sub    BYTE PTR [eax],dh
     872:	2c 35                	sub    al,0x35
     874:	29 00                	sub    DWORD PTR [eax],eax
     876:	5f                   	pop    edi
     877:	5f                   	pop    edi
     878:	75 5f                	jne    8d9 <_init-0x8047e07>
     87a:	71 75                	jno    8f1 <_init-0x8047def>
     87c:	61                   	popa   
     87d:	64                   	fs
     87e:	5f                   	pop    edi
     87f:	74 3a                	je     8bb <_init-0x8047e25>
     881:	74 28                	je     8ab <_init-0x8047e35>
     883:	31 35 2c 35 29 3d    	xor    DWORD PTR ds:0x3d29352c,esi
     889:	28 30                	sub    BYTE PTR [eax],dh
     88b:	2c 37                	sub    al,0x37
     88d:	29 00                	sub    DWORD PTR [eax],eax
     88f:	5f                   	pop    edi
     890:	5f                   	pop    edi
     891:	71 75                	jno    908 <_init-0x8047dd8>
     893:	61                   	popa   
     894:	64                   	fs
     895:	5f                   	pop    edi
     896:	74 3a                	je     8d2 <_init-0x8047e0e>
     898:	74 28                	je     8c2 <_init-0x8047e1e>
     89a:	31 35 2c 36 29 3d    	xor    DWORD PTR ds:0x3d29362c,esi
     8a0:	28 30                	sub    BYTE PTR [eax],dh
     8a2:	2c 36                	sub    al,0x36
     8a4:	29 00                	sub    DWORD PTR [eax],eax
     8a6:	5f                   	pop    edi
     8a7:	5f                   	pop    edi
     8a8:	69 6e 74 38 5f 74 3a 	imul   ebp,DWORD PTR [esi+0x74],0x3a745f38
     8af:	74 28                	je     8d9 <_init-0x8047e07>
     8b1:	31 35 2c 37 29 3d    	xor    DWORD PTR ds:0x3d29372c,esi
     8b7:	28 30                	sub    BYTE PTR [eax],dh
     8b9:	2c 31                	sub    al,0x31
     8bb:	30 29                	xor    BYTE PTR [ecx],ch
     8bd:	00 5f 5f             	add    BYTE PTR [edi+0x5f],bl
     8c0:	75 69                	jne    92b <_init-0x8047db5>
     8c2:	6e                   	outs   dx,BYTE PTR ds:[esi]
     8c3:	74 38                	je     8fd <_init-0x8047de3>
     8c5:	5f                   	pop    edi
     8c6:	74 3a                	je     902 <_init-0x8047dde>
     8c8:	74 28                	je     8f2 <_init-0x8047dee>
     8ca:	31 35 2c 38 29 3d    	xor    DWORD PTR ds:0x3d29382c,esi
     8d0:	28 30                	sub    BYTE PTR [eax],dh
     8d2:	2c 31                	sub    al,0x31
     8d4:	31 29                	xor    DWORD PTR [ecx],ebp
     8d6:	00 5f 5f             	add    BYTE PTR [edi+0x5f],bl
     8d9:	69 6e 74 31 36 5f 74 	imul   ebp,DWORD PTR [esi+0x74],0x745f3631
     8e0:	3a 74 28 31          	cmp    dh,BYTE PTR [eax+ebp*1+0x31]
     8e4:	35 2c 39 29 3d       	xor    eax,0x3d29392c
     8e9:	28 30                	sub    BYTE PTR [eax],dh
     8eb:	2c 38                	sub    al,0x38
     8ed:	29 00                	sub    DWORD PTR [eax],eax
     8ef:	5f                   	pop    edi
     8f0:	5f                   	pop    edi
     8f1:	75 69                	jne    95c <_init-0x8047d84>
     8f3:	6e                   	outs   dx,BYTE PTR ds:[esi]
     8f4:	74 31                	je     927 <_init-0x8047db9>
     8f6:	36                   	ss
     8f7:	5f                   	pop    edi
     8f8:	74 3a                	je     934 <_init-0x8047dac>
     8fa:	74 28                	je     924 <_init-0x8047dbc>
     8fc:	31 35 2c 31 30 29    	xor    DWORD PTR ds:0x2930312c,esi
     902:	3d 28 30 2c 39       	cmp    eax,0x392c3028
     907:	29 00                	sub    DWORD PTR [eax],eax
     909:	5f                   	pop    edi
     90a:	5f                   	pop    edi
     90b:	69 6e 74 33 32 5f 74 	imul   ebp,DWORD PTR [esi+0x74],0x745f3233
     912:	3a 74 28 31          	cmp    dh,BYTE PTR [eax+ebp*1+0x31]
     916:	35 2c 31 31 29       	xor    eax,0x2931312c
     91b:	3d 28 30 2c 31       	cmp    eax,0x312c3028
     920:	29 00                	sub    DWORD PTR [eax],eax
     922:	5f                   	pop    edi
     923:	5f                   	pop    edi
     924:	75 69                	jne    98f <_init-0x8047d51>
     926:	6e                   	outs   dx,BYTE PTR ds:[esi]
     927:	74 33                	je     95c <_init-0x8047d84>
     929:	32 5f 74             	xor    bl,BYTE PTR [edi+0x74]
     92c:	3a 74 28 31          	cmp    dh,BYTE PTR [eax+ebp*1+0x31]
     930:	35 2c 31 32 29       	xor    eax,0x2932312c
     935:	3d 28 30 2c 34       	cmp    eax,0x342c3028
     93a:	29 00                	sub    DWORD PTR [eax],eax
     93c:	5f                   	pop    edi
     93d:	5f                   	pop    edi
     93e:	69 6e 74 36 34 5f 74 	imul   ebp,DWORD PTR [esi+0x74],0x745f3436
     945:	3a 74 28 31          	cmp    dh,BYTE PTR [eax+ebp*1+0x31]
     949:	35 2c 31 33 29       	xor    eax,0x2933312c
     94e:	3d 28 30 2c 36       	cmp    eax,0x362c3028
     953:	29 00                	sub    DWORD PTR [eax],eax
     955:	5f                   	pop    edi
     956:	5f                   	pop    edi
     957:	75 69                	jne    9c2 <_init-0x8047d1e>
     959:	6e                   	outs   dx,BYTE PTR ds:[esi]
     95a:	74 36                	je     992 <_init-0x8047d4e>
     95c:	34 5f                	xor    al,0x5f
     95e:	74 3a                	je     99a <_init-0x8047d46>
     960:	74 28                	je     98a <_init-0x8047d56>
     962:	31 35 2c 31 34 29    	xor    DWORD PTR ds:0x2934312c,esi
     968:	3d 28 30 2c 37       	cmp    eax,0x372c3028
     96d:	29 00                	sub    DWORD PTR [eax],eax
     96f:	5f                   	pop    edi
     970:	5f                   	pop    edi
     971:	71 61                	jno    9d4 <_init-0x8047d0c>
     973:	64                   	fs
     974:	64                   	fs
     975:	72 5f                	jb     9d6 <_init-0x8047d0a>
     977:	74 3a                	je     9b3 <_init-0x8047d2d>
     979:	74 28                	je     9a3 <_init-0x8047d3d>
     97b:	31 35 2c 31 35 29    	xor    DWORD PTR ds:0x2935312c,esi
     981:	3d 28 31 35 2c       	cmp    eax,0x2c353128
     986:	31 36                	xor    DWORD PTR [esi],esi
     988:	29 3d 2a 28 31 35    	sub    DWORD PTR ds:0x3531282a,edi
     98e:	2c 36                	sub    al,0x36
     990:	29 00                	sub    DWORD PTR [eax],eax
     992:	5f                   	pop    edi
     993:	5f                   	pop    edi
     994:	64                   	fs
     995:	65                   	gs
     996:	76 5f                	jbe    9f7 <_init-0x8047ce9>
     998:	74 3a                	je     9d4 <_init-0x8047d0c>
     99a:	74 28                	je     9c4 <_init-0x8047d1c>
     99c:	31 35 2c 31 37 29    	xor    DWORD PTR ds:0x2937312c,esi
     9a2:	3d 28 31 35 2c       	cmp    eax,0x2c353128
     9a7:	35 29 00 5f 5f       	xor    eax,0x5f5f0029
     9ac:	75 69                	jne    a17 <_init-0x8047cc9>
     9ae:	64                   	fs
     9af:	5f                   	pop    edi
     9b0:	74 3a                	je     9ec <_init-0x8047cf4>
     9b2:	74 28                	je     9dc <_init-0x8047d04>
     9b4:	31 35 2c 31 38 29    	xor    DWORD PTR ds:0x2938312c,esi
     9ba:	3d 28 31 35 2c       	cmp    eax,0x2c353128
     9bf:	33 29                	xor    ebp,DWORD PTR [ecx]
     9c1:	00 5f 5f             	add    BYTE PTR [edi+0x5f],bl
     9c4:	67 69 64 5f 74 3a 74 	imul   esp,DWORD PTR [si+0x5f],0x28743a74
     9cb:	28 
     9cc:	31 35 2c 31 39 29    	xor    DWORD PTR ds:0x2939312c,esi
     9d2:	3d 28 31 35 2c       	cmp    eax,0x2c353128
     9d7:	33 29                	xor    ebp,DWORD PTR [ecx]
     9d9:	00 5f 5f             	add    BYTE PTR [edi+0x5f],bl
     9dc:	69 6e 6f 5f 74 3a 74 	imul   ebp,DWORD PTR [esi+0x6f],0x743a745f
     9e3:	28 31                	sub    BYTE PTR [ecx],dh
     9e5:	35 2c 32 30 29       	xor    eax,0x2930322c
     9ea:	3d 28 31 35 2c       	cmp    eax,0x2c353128
     9ef:	34 29                	xor    al,0x29
     9f1:	00 5f 5f             	add    BYTE PTR [edi+0x5f],bl
     9f4:	6d                   	ins    DWORD PTR es:[edi],dx
     9f5:	6f                   	outs   dx,DWORD PTR ds:[esi]
     9f6:	64                   	fs
     9f7:	65                   	gs
     9f8:	5f                   	pop    edi
     9f9:	74 3a                	je     a35 <_init-0x8047cab>
     9fb:	74 28                	je     a25 <_init-0x8047cbb>
     9fd:	31 35 2c 32 31 29    	xor    DWORD PTR ds:0x2931322c,esi
     a03:	3d 28 31 35 2c       	cmp    eax,0x2c353128
     a08:	33 29                	xor    ebp,DWORD PTR [ecx]
     a0a:	00 5f 5f             	add    BYTE PTR [edi+0x5f],bl
     a0d:	6e                   	outs   dx,BYTE PTR ds:[esi]
     a0e:	6c                   	ins    BYTE PTR es:[edi],dx
     a0f:	69 6e 6b 5f 74 3a 74 	imul   ebp,DWORD PTR [esi+0x6b],0x743a745f
     a16:	28 31                	sub    BYTE PTR [ecx],dh
     a18:	35 2c 32 32 29       	xor    eax,0x2932322c
     a1d:	3d 28 31 35 2c       	cmp    eax,0x2c353128
     a22:	33 29                	xor    ebp,DWORD PTR [ecx]
     a24:	00 5f 5f             	add    BYTE PTR [edi+0x5f],bl
     a27:	6f                   	outs   dx,DWORD PTR ds:[esi]
     a28:	66 66 5f             	data32 pop di
     a2b:	74 3a                	je     a67 <_init-0x8047c79>
     a2d:	74 28                	je     a57 <_init-0x8047c89>
     a2f:	31 35 2c 32 33 29    	xor    DWORD PTR ds:0x2933322c,esi
     a35:	3d 28 30 2c 33       	cmp    eax,0x332c3028
     a3a:	29 00                	sub    DWORD PTR [eax],eax
     a3c:	5f                   	pop    edi
     a3d:	5f                   	pop    edi
     a3e:	6c                   	ins    BYTE PTR es:[edi],dx
     a3f:	6f                   	outs   dx,DWORD PTR ds:[esi]
     a40:	66 66 5f             	data32 pop di
     a43:	74 3a                	je     a7f <_init-0x8047c61>
     a45:	74 28                	je     a6f <_init-0x8047c71>
     a47:	31 35 2c 32 34 29    	xor    DWORD PTR ds:0x2934322c,esi
     a4d:	3d 28 31 35 2c       	cmp    eax,0x2c353128
     a52:	36 29 00             	sub    DWORD PTR ss:[eax],eax
     a55:	5f                   	pop    edi
     a56:	5f                   	pop    edi
     a57:	70 69                	jo     ac2 <_init-0x8047c1e>
     a59:	64                   	fs
     a5a:	5f                   	pop    edi
     a5b:	74 3a                	je     a97 <_init-0x8047c49>
     a5d:	74 28                	je     a87 <_init-0x8047c59>
     a5f:	31 35 2c 32 35 29    	xor    DWORD PTR ds:0x2935322c,esi
     a65:	3d 28 30 2c 31       	cmp    eax,0x312c3028
     a6a:	29 00                	sub    DWORD PTR [eax],eax
     a6c:	5f                   	pop    edi
     a6d:	5f                   	pop    edi
     a6e:	73 73                	jae    ae3 <_init-0x8047bfd>
     a70:	69 7a 65 5f 74 3a 74 	imul   edi,DWORD PTR [edx+0x65],0x743a745f
     a77:	28 31                	sub    BYTE PTR [ecx],dh
     a79:	35 2c 32 36 29       	xor    eax,0x2936322c
     a7e:	3d 28 30 2c 31       	cmp    eax,0x312c3028
     a83:	29 00                	sub    DWORD PTR [eax],eax
     a85:	5f                   	pop    edi
     a86:	5f                   	pop    edi
     a87:	72 6c                	jb     af5 <_init-0x8047beb>
     a89:	69 6d 5f 74 3a 74 28 	imul   ebp,DWORD PTR [ebp+0x5f],0x28743a74
     a90:	31 35 2c 32 37 29    	xor    DWORD PTR ds:0x2937322c,esi
     a96:	3d 28 30 2c 33       	cmp    eax,0x332c3028
     a9b:	29 00                	sub    DWORD PTR [eax],eax
     a9d:	5f                   	pop    edi
     a9e:	5f                   	pop    edi
     a9f:	72 6c                	jb     b0d <_init-0x8047bd3>
     aa1:	69 6d 36 34 5f 74 3a 	imul   ebp,DWORD PTR [ebp+0x36],0x3a745f34
     aa8:	74 28                	je     ad2 <_init-0x8047c0e>
     aaa:	31 35 2c 32 38 29    	xor    DWORD PTR ds:0x2938322c,esi
     ab0:	3d 28 31 35 2c       	cmp    eax,0x2c353128
     ab5:	36 29 00             	sub    DWORD PTR ss:[eax],eax
     ab8:	5f                   	pop    edi
     ab9:	5f                   	pop    edi
     aba:	69 64 5f 74 3a 74 28 	imul   esp,DWORD PTR [edi+ebx*2+0x74],0x3128743a
     ac1:	31 
     ac2:	35 2c 32 39 29       	xor    eax,0x2939322c
     ac7:	3d 28 31 35 2c       	cmp    eax,0x2c353128
     acc:	33 29                	xor    ebp,DWORD PTR [ecx]
     ace:	00 5f 5f             	add    BYTE PTR [edi+0x5f],bl
     ad1:	66                   	data16
     ad2:	73 69                	jae    b3d <_init-0x8047ba3>
     ad4:	64                   	fs
     ad5:	5f                   	pop    edi
     ad6:	74 3a                	je     b12 <_init-0x8047bce>
     ad8:	74 28                	je     b02 <_init-0x8047bde>
     ada:	31 35 2c 33 30 29    	xor    DWORD PTR ds:0x2930332c,esi
     ae0:	3d 28 31 35 2c       	cmp    eax,0x2c353128
     ae5:	33 31                	xor    esi,DWORD PTR [ecx]
     ae7:	29 3d 73 38 5f 5f    	sub    DWORD PTR ds:0x5f5f3873,edi
     aed:	76 61                	jbe    b50 <_init-0x8047b90>
     aef:	6c                   	ins    BYTE PTR es:[edi],dx
     af0:	3a 28                	cmp    ch,BYTE PTR [eax]
     af2:	31 35 2c 33 32 29    	xor    DWORD PTR ds:0x2932332c,esi
     af8:	3d 61 72 28 30       	cmp    eax,0x30287261
     afd:	2c 31                	sub    al,0x31
     aff:	29 3b                	sub    DWORD PTR [ebx],edi
     b01:	30 3b                	xor    BYTE PTR [ebx],bh
     b03:	31 3b                	xor    DWORD PTR [ebx],edi
     b05:	28 30                	sub    BYTE PTR [eax],dh
     b07:	2c 31                	sub    al,0x31
     b09:	29 2c 30             	sub    DWORD PTR [eax+esi*1],ebp
     b0c:	2c 36                	sub    al,0x36
     b0e:	34 3b                	xor    al,0x3b
     b10:	3b 00                	cmp    eax,DWORD PTR [eax]
     b12:	5f                   	pop    edi
     b13:	5f                   	pop    edi
     b14:	64                   	fs
     b15:	61                   	popa   
     b16:	64                   	fs
     b17:	64                   	fs
     b18:	72 5f                	jb     b79 <_init-0x8047b67>
     b1a:	74 3a                	je     b56 <_init-0x8047b8a>
     b1c:	74 28                	je     b46 <_init-0x8047b9a>
     b1e:	31 35 2c 33 33 29    	xor    DWORD PTR ds:0x2933332c,esi
     b24:	3d 28 30 2c 31       	cmp    eax,0x312c3028
     b29:	29 00                	sub    DWORD PTR [eax],eax
     b2b:	5f                   	pop    edi
     b2c:	5f                   	pop    edi
     b2d:	63 61 64             	arpl   WORD PTR [ecx+0x64],sp
     b30:	64                   	fs
     b31:	72 5f                	jb     b92 <_init-0x8047b4e>
     b33:	74 3a                	je     b6f <_init-0x8047b71>
     b35:	74 28                	je     b5f <_init-0x8047b81>
     b37:	31 35 2c 33 34 29    	xor    DWORD PTR ds:0x2934332c,esi
     b3d:	3d 28 31 30 2c       	cmp    eax,0x2c303128
     b42:	32 29                	xor    ch,BYTE PTR [ecx]
     b44:	00 5f 5f             	add    BYTE PTR [edi+0x5f],bl
     b47:	74 69                	je     bb2 <_init-0x8047b2e>
     b49:	6d                   	ins    DWORD PTR es:[edi],dx
     b4a:	65                   	gs
     b4b:	5f                   	pop    edi
     b4c:	74 3a                	je     b88 <_init-0x8047b58>
     b4e:	74 28                	je     b78 <_init-0x8047b68>
     b50:	31 35 2c 33 35 29    	xor    DWORD PTR ds:0x2935332c,esi
     b56:	3d 28 30 2c 33       	cmp    eax,0x332c3028
     b5b:	29 00                	sub    DWORD PTR [eax],eax
     b5d:	5f                   	pop    edi
     b5e:	5f                   	pop    edi
     b5f:	73 77                	jae    bd8 <_init-0x8047b08>
     b61:	62 6c 6b 5f          	bound  ebp,QWORD PTR [ebx+ebp*2+0x5f]
     b65:	74 3a                	je     ba1 <_init-0x8047b3f>
     b67:	74 28                	je     b91 <_init-0x8047b4f>
     b69:	31 35 2c 33 36 29    	xor    DWORD PTR ds:0x2936332c,esi
     b6f:	3d 28 30 2c 33       	cmp    eax,0x332c3028
     b74:	29 00                	sub    DWORD PTR [eax],eax
     b76:	5f                   	pop    edi
     b77:	5f                   	pop    edi
     b78:	63 6c 6f 63          	arpl   WORD PTR [edi+ebp*2+0x63],bp
     b7c:	6b 5f 74 3a          	imul   ebx,DWORD PTR [edi+0x74],0x3a
     b80:	74 28                	je     baa <_init-0x8047b36>
     b82:	31 35 2c 33 37 29    	xor    DWORD PTR ds:0x2937332c,esi
     b88:	3d 28 30 2c 33       	cmp    eax,0x332c3028
     b8d:	29 00                	sub    DWORD PTR [eax],eax
     b8f:	5f                   	pop    edi
     b90:	5f                   	pop    edi
     b91:	66                   	data16
     b92:	64                   	fs
     b93:	5f                   	pop    edi
     b94:	6d                   	ins    DWORD PTR es:[edi],dx
     b95:	61                   	popa   
     b96:	73 6b                	jae    c03 <_init-0x8047add>
     b98:	3a 74 28 31          	cmp    dh,BYTE PTR [eax+ebp*1+0x31]
     b9c:	35 2c 33 38 29       	xor    eax,0x2938332c
     ba1:	3d 28 30 2c 35       	cmp    eax,0x352c3028
     ba6:	29 00                	sub    DWORD PTR [eax],eax
     ba8:	5f                   	pop    edi
     ba9:	5f                   	pop    edi
     baa:	66                   	data16
     bab:	64                   	fs
     bac:	5f                   	pop    edi
     bad:	73 65                	jae    c14 <_init-0x8047acc>
     baf:	74 3a                	je     beb <_init-0x8047af5>
     bb1:	74 28                	je     bdb <_init-0x8047b05>
     bb3:	31 35 2c 33 39 29    	xor    DWORD PTR ds:0x2939332c,esi
     bb9:	3d 28 31 35 2c       	cmp    eax,0x2c353128
     bbe:	34 30                	xor    al,0x30
     bc0:	29 3d 73 31 32 38    	sub    DWORD PTR ds:0x38323173,edi
     bc6:	66                   	data16
     bc7:	64                   	fs
     bc8:	73 5f                	jae    c29 <_init-0x8047ab7>
     bca:	62 69 74             	bound  ebp,QWORD PTR [ecx+0x74]
     bcd:	73 3a                	jae    c09 <_init-0x8047ad7>
     bcf:	28 31                	sub    BYTE PTR [ecx],dh
     bd1:	35 2c 34 31 29       	xor    eax,0x2931342c
     bd6:	3d 61 72 28 30       	cmp    eax,0x30287261
     bdb:	2c 31                	sub    al,0x31
     bdd:	29 3b                	sub    DWORD PTR [ebx],edi
     bdf:	30 3b                	xor    BYTE PTR [ebx],bh
     be1:	33 31                	xor    esi,DWORD PTR [ecx]
     be3:	3b 28                	cmp    ebp,DWORD PTR [eax]
     be5:	31 35 2c 33 38 29    	xor    DWORD PTR ds:0x2938332c,esi
     beb:	2c 30                	sub    al,0x30
     bed:	2c 31                	sub    al,0x31
     bef:	30 32                	xor    BYTE PTR [edx],dh
     bf1:	34 3b                	xor    al,0x3b
     bf3:	3b 00                	cmp    eax,DWORD PTR [eax]
     bf5:	5f                   	pop    edi
     bf6:	5f                   	pop    edi
     bf7:	6b 65 79 5f          	imul   esp,DWORD PTR [ebp+0x79],0x5f
     bfb:	74 3a                	je     c37 <_init-0x8047aa9>
     bfd:	74 28                	je     c27 <_init-0x8047ab9>
     bff:	31 35 2c 34 32 29    	xor    DWORD PTR ds:0x2932342c,esi
     c05:	3d 28 30 2c 31       	cmp    eax,0x312c3028
     c0a:	29 00                	sub    DWORD PTR [eax],eax
     c0c:	5f                   	pop    edi
     c0d:	5f                   	pop    edi
     c0e:	69 70 63 5f 70 69 64 	imul   esi,DWORD PTR [eax+0x63],0x6469705f
     c15:	5f                   	pop    edi
     c16:	74 3a                	je     c52 <_init-0x8047a8e>
     c18:	74 28                	je     c42 <_init-0x8047a9e>
     c1a:	31 35 2c 34 33 29    	xor    DWORD PTR ds:0x2933342c,esi
     c20:	3d 28 30 2c 39       	cmp    eax,0x392c3028
     c25:	29 00                	sub    DWORD PTR [eax],eax
     c27:	5f                   	pop    edi
     c28:	5f                   	pop    edi
     c29:	62 6c 6b 63          	bound  ebp,QWORD PTR [ebx+ebp*2+0x63]
     c2d:	6e                   	outs   dx,BYTE PTR ds:[esi]
     c2e:	74 5f                	je     c8f <_init-0x8047a51>
     c30:	74 3a                	je     c6c <_init-0x8047a74>
     c32:	74 28                	je     c5c <_init-0x8047a84>
     c34:	31 35 2c 34 34 29    	xor    DWORD PTR ds:0x2934342c,esi
     c3a:	3d 28 30 2c 33       	cmp    eax,0x332c3028
     c3f:	29 00                	sub    DWORD PTR [eax],eax
     c41:	5f                   	pop    edi
     c42:	5f                   	pop    edi
     c43:	62 6c 6b 63          	bound  ebp,QWORD PTR [ebx+ebp*2+0x63]
     c47:	6e                   	outs   dx,BYTE PTR ds:[esi]
     c48:	74 36                	je     c80 <_init-0x8047a60>
     c4a:	34 5f                	xor    al,0x5f
     c4c:	74 3a                	je     c88 <_init-0x8047a58>
     c4e:	74 28                	je     c78 <_init-0x8047a68>
     c50:	31 35 2c 34 35 29    	xor    DWORD PTR ds:0x2935342c,esi
     c56:	3d 28 31 35 2c       	cmp    eax,0x2c353128
     c5b:	36 29 00             	sub    DWORD PTR ss:[eax],eax
     c5e:	5f                   	pop    edi
     c5f:	5f                   	pop    edi
     c60:	66                   	data16
     c61:	73 62                	jae    cc5 <_init-0x8047a1b>
     c63:	6c                   	ins    BYTE PTR es:[edi],dx
     c64:	6b 63 6e 74          	imul   esp,DWORD PTR [ebx+0x6e],0x74
     c68:	5f                   	pop    edi
     c69:	74 3a                	je     ca5 <_init-0x8047a3b>
     c6b:	74 28                	je     c95 <_init-0x8047a4b>
     c6d:	31 35 2c 34 36 29    	xor    DWORD PTR ds:0x2936342c,esi
     c73:	3d 28 31 35 2c       	cmp    eax,0x2c353128
     c78:	34 29                	xor    al,0x29
     c7a:	00 5f 5f             	add    BYTE PTR [edi+0x5f],bl
     c7d:	66                   	data16
     c7e:	73 62                	jae    ce2 <_init-0x80479fe>
     c80:	6c                   	ins    BYTE PTR es:[edi],dx
     c81:	6b 63 6e 74          	imul   esp,DWORD PTR [ebx+0x6e],0x74
     c85:	36                   	ss
     c86:	34 5f                	xor    al,0x5f
     c88:	74 3a                	je     cc4 <_init-0x8047a1c>
     c8a:	74 28                	je     cb4 <_init-0x8047a2c>
     c8c:	31 35 2c 34 37 29    	xor    DWORD PTR ds:0x2937342c,esi
     c92:	3d 28 31 35 2c       	cmp    eax,0x2c353128
     c97:	35 29 00 5f 5f       	xor    eax,0x5f5f0029
     c9c:	66                   	data16
     c9d:	73 66                	jae    d05 <_init-0x80479db>
     c9f:	69 6c 63 6e 74 5f 74 	imul   ebp,DWORD PTR [ebx+eiz*2+0x6e],0x3a745f74
     ca6:	3a 
     ca7:	74 28                	je     cd1 <_init-0x8047a0f>
     ca9:	31 35 2c 34 38 29    	xor    DWORD PTR ds:0x2938342c,esi
     caf:	3d 28 31 35 2c       	cmp    eax,0x2c353128
     cb4:	34 29                	xor    al,0x29
     cb6:	00 5f 5f             	add    BYTE PTR [edi+0x5f],bl
     cb9:	66                   	data16
     cba:	73 66                	jae    d22 <_init-0x80479be>
     cbc:	69 6c 63 6e 74 36 34 	imul   ebp,DWORD PTR [ebx+eiz*2+0x6e],0x5f343674
     cc3:	5f 
     cc4:	74 3a                	je     d00 <_init-0x80479e0>
     cc6:	74 28                	je     cf0 <_init-0x80479f0>
     cc8:	31 35 2c 34 39 29    	xor    DWORD PTR ds:0x2939342c,esi
     cce:	3d 28 31 35 2c       	cmp    eax,0x2c353128
     cd3:	35 29 00 5f 5f       	xor    eax,0x5f5f0029
     cd8:	69 6e 6f 36 34 5f 74 	imul   ebp,DWORD PTR [esi+0x6f],0x745f3436
     cdf:	3a 74 28 31          	cmp    dh,BYTE PTR [eax+ebp*1+0x31]
     ce3:	35 2c 35 30 29       	xor    eax,0x2930352c
     ce8:	3d 28 31 35 2c       	cmp    eax,0x2c353128
     ced:	34 29                	xor    al,0x29
     cef:	00 5f 5f             	add    BYTE PTR [edi+0x5f],bl
     cf2:	6f                   	outs   dx,DWORD PTR ds:[esi]
     cf3:	66                   	data16
     cf4:	66                   	data16
     cf5:	36                   	ss
     cf6:	34 5f                	xor    al,0x5f
     cf8:	74 3a                	je     d34 <_init-0x80479ac>
     cfa:	74 28                	je     d24 <_init-0x80479bc>
     cfc:	31 35 2c 35 31 29    	xor    DWORD PTR ds:0x2931352c,esi
     d02:	3d 28 31 35 2c       	cmp    eax,0x2c353128
     d07:	32 34 29             	xor    dh,BYTE PTR [ecx+ebp*1]
     d0a:	00 5f 5f             	add    BYTE PTR [edi+0x5f],bl
     d0d:	74 5f                	je     d6e <_init-0x8047972>
     d0f:	73 63                	jae    d74 <_init-0x804796c>
     d11:	61                   	popa   
     d12:	6c                   	ins    BYTE PTR es:[edi],dx
     d13:	61                   	popa   
     d14:	72 5f                	jb     d75 <_init-0x804796b>
     d16:	74 3a                	je     d52 <_init-0x804798e>
     d18:	74 28                	je     d42 <_init-0x804799e>
     d1a:	31 35 2c 35 32 29    	xor    DWORD PTR ds:0x2932352c,esi
     d20:	3d 28 30 2c 33       	cmp    eax,0x332c3028
     d25:	29 00                	sub    DWORD PTR [eax],eax
     d27:	5f                   	pop    edi
     d28:	5f                   	pop    edi
     d29:	74 5f                	je     d8a <_init-0x8047956>
     d2b:	75 73                	jne    da0 <_init-0x8047940>
     d2d:	63 61 6c             	arpl   WORD PTR [ecx+0x6c],sp
     d30:	61                   	popa   
     d31:	72 5f                	jb     d92 <_init-0x804794e>
     d33:	74 3a                	je     d6f <_init-0x8047971>
     d35:	74 28                	je     d5f <_init-0x8047981>
     d37:	31 35 2c 35 33 29    	xor    DWORD PTR ds:0x2933352c,esi
     d3d:	3d 28 30 2c 35       	cmp    eax,0x352c3028
     d42:	29 00                	sub    DWORD PTR [eax],eax
     d44:	5f                   	pop    edi
     d45:	5f                   	pop    edi
     d46:	69 6e 74 70 74 72 5f 	imul   ebp,DWORD PTR [esi+0x74],0x5f727470
     d4d:	74 3a                	je     d89 <_init-0x8047957>
     d4f:	74 28                	je     d79 <_init-0x8047967>
     d51:	31 35 2c 35 34 29    	xor    DWORD PTR ds:0x2934352c,esi
     d57:	3d 28 30 2c 31       	cmp    eax,0x312c3028
     d5c:	29 00                	sub    DWORD PTR [eax],eax
     d5e:	2e                   	cs
     d5f:	2e                   	cs
     d60:	2f                   	das    
     d61:	6c                   	ins    BYTE PTR es:[edi],dx
     d62:	69 6e 75 78 74 68 72 	imul   ebp,DWORD PTR [esi+0x75],0x72687478
     d69:	65                   	gs
     d6a:	61                   	popa   
     d6b:	64                   	fs
     d6c:	73 2f                	jae    d9d <_init-0x8047943>
     d6e:	73 79                	jae    de9 <_init-0x80478f7>
     d70:	73 64                	jae    dd6 <_init-0x804790a>
     d72:	65                   	gs
     d73:	70 73                	jo     de8 <_init-0x80478f8>
     d75:	2f                   	das    
     d76:	70 74                	jo     dec <_init-0x80478f4>
     d78:	68 72 65 61 64       	push   0x64616572
     d7d:	2f                   	das    
     d7e:	62 69 74             	bound  ebp,QWORD PTR [ecx+0x74]
     d81:	73 2f                	jae    db2 <_init-0x804792e>
     d83:	70 74                	jo     df9 <_init-0x80478e7>
     d85:	68 72 65 61 64       	push   0x64616572
     d8a:	74 79                	je     e05 <_init-0x80478db>
     d8c:	70 65                	jo     df3 <_init-0x80478ed>
     d8e:	73 2e                	jae    dbe <_init-0x8047922>
     d90:	68 00 2e 2e 2f       	push   0x2f2e2e00
     d95:	73 79                	jae    e10 <_init-0x80478d0>
     d97:	73 64                	jae    dfd <_init-0x80478e3>
     d99:	65                   	gs
     d9a:	70 73                	jo     e0f <_init-0x80478d1>
     d9c:	2f                   	das    
     d9d:	75 6e                	jne    e0d <_init-0x80478d3>
     d9f:	69 78 2f 73 79 73 76 	imul   edi,DWORD PTR [eax+0x2f],0x76737973
     da6:	2f                   	das    
     da7:	6c                   	ins    BYTE PTR es:[edi],dx
     da8:	69 6e 75 78 2f 62 69 	imul   ebp,DWORD PTR [esi+0x75],0x69622f78
     daf:	74 73                	je     e24 <_init-0x80478bc>
     db1:	2f                   	das    
     db2:	73 63                	jae    e17 <_init-0x80478c9>
     db4:	68 65 64 2e 68       	push   0x682e6465
     db9:	00 5f 5f             	add    BYTE PTR [edi+0x5f],bl
     dbc:	73 63                	jae    e21 <_init-0x80478bf>
     dbe:	68 65 64 5f 70       	push   0x705f6465
     dc3:	61                   	popa   
     dc4:	72 61                	jb     e27 <_init-0x80478b9>
     dc6:	6d                   	ins    DWORD PTR es:[edi],dx
     dc7:	3a 54 28 31          	cmp    dl,BYTE PTR [eax+ebp*1+0x31]
     dcb:	38 2c 31             	cmp    BYTE PTR [ecx+esi*1],ch
     dce:	29 3d 73 34 73 63    	sub    DWORD PTR ds:0x63733473,edi
     dd4:	68 65 64 5f 70       	push   0x705f6465
     dd9:	72 69                	jb     e44 <_init-0x804789c>
     ddb:	6f                   	outs   dx,DWORD PTR ds:[esi]
     ddc:	72 69                	jb     e47 <_init-0x8047899>
     dde:	74 79                	je     e59 <_init-0x8047887>
     de0:	3a 28                	cmp    ch,BYTE PTR [eax]
     de2:	30 2c 31             	xor    BYTE PTR [ecx+esi*1],ch
     de5:	29 2c 30             	sub    DWORD PTR [eax+esi*1],ebp
     de8:	2c 33                	sub    al,0x33
     dea:	32 3b                	xor    bh,BYTE PTR [ebx]
     dec:	3b 00                	cmp    eax,DWORD PTR [eax]
     dee:	5f                   	pop    edi
     def:	70 74                	jo     e65 <_init-0x804787b>
     df1:	68 72 65 61 64       	push   0x64616572
     df6:	5f                   	pop    edi
     df7:	66 61                	popaw  
     df9:	73 74                	jae    e6f <_init-0x8047871>
     dfb:	6c                   	ins    BYTE PTR es:[edi],dx
     dfc:	6f                   	outs   dx,DWORD PTR ds:[esi]
     dfd:	63 6b 3a             	arpl   WORD PTR [ebx+0x3a],bp
     e00:	54                   	push   esp
     e01:	28 31                	sub    BYTE PTR [ecx],dh
     e03:	37                   	aaa    
     e04:	2c 31                	sub    al,0x31
     e06:	29 3d 73 38 5f 5f    	sub    DWORD PTR ds:0x5f5f3873,edi
     e0c:	73 74                	jae    e82 <_init-0x804785e>
     e0e:	61                   	popa   
     e0f:	74 75                	je     e86 <_init-0x804785a>
     e11:	73 3a                	jae    e4d <_init-0x8047893>
     e13:	28 30                	sub    BYTE PTR [eax],dh
     e15:	2c 33                	sub    al,0x33
     e17:	29 2c 30             	sub    DWORD PTR [eax+esi*1],ebp
     e1a:	2c 33                	sub    al,0x33
     e1c:	32 3b                	xor    bh,BYTE PTR [ebx]
     e1e:	5f                   	pop    edi
     e1f:	5f                   	pop    edi
     e20:	73 70                	jae    e92 <_init-0x804784e>
     e22:	69 6e 6c 6f 63 6b 3a 	imul   ebp,DWORD PTR [esi+0x6c],0x3a6b636f
     e29:	28 30                	sub    BYTE PTR [eax],dh
     e2b:	2c 31                	sub    al,0x31
     e2d:	29 2c 33             	sub    DWORD PTR [ebx+esi*1],ebp
     e30:	32 2c 33             	xor    ch,BYTE PTR [ebx+esi*1]
     e33:	32 3b                	xor    bh,BYTE PTR [ebx]
     e35:	3b 00                	cmp    eax,DWORD PTR [eax]
     e37:	5f                   	pop    edi
     e38:	70 74                	jo     eae <_init-0x8047832>
     e3a:	68 72 65 61 64       	push   0x64616572
     e3f:	5f                   	pop    edi
     e40:	64                   	fs
     e41:	65                   	gs
     e42:	73 63                	jae    ea7 <_init-0x8047839>
     e44:	72 3a                	jb     e80 <_init-0x8047860>
     e46:	74 28                	je     e70 <_init-0x8047870>
     e48:	31 37                	xor    DWORD PTR [edi],esi
     e4a:	2c 32                	sub    al,0x32
     e4c:	29 3d 28 31 37 2c    	sub    DWORD PTR ds:0x2c373128,edi
     e52:	33 29                	xor    ebp,DWORD PTR [ecx]
     e54:	3d 2a 28 31 37       	cmp    eax,0x3731282a
     e59:	2c 34                	sub    al,0x34
     e5b:	29 3d 78 73 5f 70    	sub    DWORD PTR ds:0x705f7378,edi
     e61:	74 68                	je     ecb <_init-0x8047815>
     e63:	72 65                	jb     eca <_init-0x8047816>
     e65:	61                   	popa   
     e66:	64                   	fs
     e67:	5f                   	pop    edi
     e68:	64                   	fs
     e69:	65                   	gs
     e6a:	73 63                	jae    ecf <_init-0x8047811>
     e6c:	72 5f                	jb     ecd <_init-0x8047813>
     e6e:	73 74                	jae    ee4 <_init-0x80477fc>
     e70:	72 75                	jb     ee7 <_init-0x80477f9>
     e72:	63 74 3a 00          	arpl   WORD PTR [edx+edi*1+0x0],si
     e76:	70 74                	jo     eec <_init-0x80477f4>
     e78:	68 72 65 61 64       	push   0x64616572
     e7d:	5f                   	pop    edi
     e7e:	61                   	popa   
     e7f:	74 74                	je     ef5 <_init-0x80477eb>
     e81:	72 5f                	jb     ee2 <_init-0x80477fe>
     e83:	74 3a                	je     ebf <_init-0x8047821>
     e85:	74 28                	je     eaf <_init-0x8047831>
     e87:	31 37                	xor    DWORD PTR [edi],esi
     e89:	2c 35                	sub    al,0x35
     e8b:	29 3d 28 31 37 2c    	sub    DWORD PTR ds:0x2c373128,edi
     e91:	36 29 3d 73 33 36 5f 	sub    DWORD PTR ss:0x5f363373,edi
     e98:	5f                   	pop    edi
     e99:	64                   	fs
     e9a:	65                   	gs
     e9b:	74 61                	je     efe <_init-0x80477e2>
     e9d:	63 68 73             	arpl   WORD PTR [eax+0x73],bp
     ea0:	74 61                	je     f03 <_init-0x80477dd>
     ea2:	74 65                	je     f09 <_init-0x80477d7>
     ea4:	3a 28                	cmp    ch,BYTE PTR [eax]
     ea6:	30 2c 31             	xor    BYTE PTR [ecx+esi*1],ch
     ea9:	29 2c 30             	sub    DWORD PTR [eax+esi*1],ebp
     eac:	2c 33                	sub    al,0x33
     eae:	32 3b                	xor    bh,BYTE PTR [ebx]
     eb0:	5c                   	pop    esp
     eb1:	00 5f 5f             	add    BYTE PTR [edi+0x5f],bl
     eb4:	73 63                	jae    f19 <_init-0x80477c7>
     eb6:	68 65 64 70 6f       	push   0x6f706465
     ebb:	6c                   	ins    BYTE PTR es:[edi],dx
     ebc:	69 63 79 3a 28 30 2c 	imul   esp,DWORD PTR [ebx+0x79],0x2c30283a
     ec3:	31 29                	xor    DWORD PTR [ecx],ebp
     ec5:	2c 33                	sub    al,0x33
     ec7:	32 2c 33             	xor    ch,BYTE PTR [ebx+esi*1]
     eca:	32 3b                	xor    bh,BYTE PTR [ebx]
     ecc:	5f                   	pop    edi
     ecd:	5f                   	pop    edi
     ece:	73 63                	jae    f33 <_init-0x80477ad>
     ed0:	68 65 64 70 61       	push   0x61706465
     ed5:	72 61                	jb     f38 <_init-0x80477a8>
     ed7:	6d                   	ins    DWORD PTR es:[edi],dx
     ed8:	3a 28                	cmp    ch,BYTE PTR [eax]
     eda:	31 38                	xor    DWORD PTR [eax],edi
     edc:	2c 31                	sub    al,0x31
     ede:	29 2c 36             	sub    DWORD PTR [esi+esi*1],ebp
     ee1:	34 2c                	xor    al,0x2c
     ee3:	33 32                	xor    esi,DWORD PTR [edx]
     ee5:	3b 5c 00 5f          	cmp    ebx,DWORD PTR [eax+eax*1+0x5f]
     ee9:	5f                   	pop    edi
     eea:	69 6e 68 65 72 69 74 	imul   ebp,DWORD PTR [esi+0x68],0x74697265
     ef1:	73 63                	jae    f56 <_init-0x804778a>
     ef3:	68 65 64 3a 28       	push   0x283a6465
     ef8:	30 2c 31             	xor    BYTE PTR [ecx+esi*1],ch
     efb:	29 2c 39             	sub    DWORD PTR [ecx+edi*1],ebp
     efe:	36                   	ss
     eff:	2c 33                	sub    al,0x33
     f01:	32 3b                	xor    bh,BYTE PTR [ebx]
     f03:	5f                   	pop    edi
     f04:	5f                   	pop    edi
     f05:	73 63                	jae    f6a <_init-0x8047776>
     f07:	6f                   	outs   dx,DWORD PTR ds:[esi]
     f08:	70 65                	jo     f6f <_init-0x8047771>
     f0a:	3a 28                	cmp    ch,BYTE PTR [eax]
     f0c:	30 2c 31             	xor    BYTE PTR [ecx+esi*1],ch
     f0f:	29 2c 31             	sub    DWORD PTR [ecx+esi*1],ebp
     f12:	32 38                	xor    bh,BYTE PTR [eax]
     f14:	2c 33                	sub    al,0x33
     f16:	32 3b                	xor    bh,BYTE PTR [ebx]
     f18:	5c                   	pop    esp
     f19:	00 5f 5f             	add    BYTE PTR [edi+0x5f],bl
     f1c:	67 75 61             	addr16 jne f80 <_init-0x8047760>
     f1f:	72 64                	jb     f85 <_init-0x804775b>
     f21:	73 69                	jae    f8c <_init-0x8047754>
     f23:	7a 65                	jp     f8a <_init-0x8047756>
     f25:	3a 28                	cmp    ch,BYTE PTR [eax]
     f27:	31 36                	xor    DWORD PTR [esi],esi
     f29:	2c 31                	sub    al,0x31
     f2b:	29 2c 31             	sub    DWORD PTR [ecx+esi*1],ebp
     f2e:	36 30 2c 33          	xor    BYTE PTR ss:[ebx+esi*1],ch
     f32:	32 3b                	xor    bh,BYTE PTR [ebx]
     f34:	5f                   	pop    edi
     f35:	5f                   	pop    edi
     f36:	73 74                	jae    fac <_init-0x8047734>
     f38:	61                   	popa   
     f39:	63 6b 61             	arpl   WORD PTR [ebx+0x61],bp
     f3c:	64                   	fs
     f3d:	64                   	fs
     f3e:	72 5f                	jb     f9f <_init-0x8047741>
     f40:	73 65                	jae    fa7 <_init-0x8047739>
     f42:	74 3a                	je     f7e <_init-0x8047762>
     f44:	28 30                	sub    BYTE PTR [eax],dh
     f46:	2c 31                	sub    al,0x31
     f48:	29 2c 31             	sub    DWORD PTR [ecx+esi*1],ebp
     f4b:	39 32                	cmp    DWORD PTR [edx],esi
     f4d:	2c 33                	sub    al,0x33
     f4f:	32 3b                	xor    bh,BYTE PTR [ebx]
     f51:	5c                   	pop    esp
     f52:	00 5f 5f             	add    BYTE PTR [edi+0x5f],bl
     f55:	73 74                	jae    fcb <_init-0x8047715>
     f57:	61                   	popa   
     f58:	63 6b 61             	arpl   WORD PTR [ebx+0x61],bp
     f5b:	64                   	fs
     f5c:	64                   	fs
     f5d:	72 3a                	jb     f99 <_init-0x8047747>
     f5f:	28 31                	sub    BYTE PTR [ecx],dh
     f61:	37                   	aaa    
     f62:	2c 37                	sub    al,0x37
     f64:	29 3d 2a 28 30 2c    	sub    DWORD PTR ds:0x2c30282a,edi
     f6a:	31 39                	xor    DWORD PTR [ecx],edi
     f6c:	29 2c 32             	sub    DWORD PTR [edx+esi*1],ebp
     f6f:	32 34 2c             	xor    dh,BYTE PTR [esp+ebp*1]
     f72:	33 32                	xor    esi,DWORD PTR [edx]
     f74:	3b 5f 5f             	cmp    ebx,DWORD PTR [edi+0x5f]
     f77:	73 74                	jae    fed <_init-0x80476f3>
     f79:	61                   	popa   
     f7a:	63 6b 73             	arpl   WORD PTR [ebx+0x73],bp
     f7d:	69 7a 65 3a 28 31 36 	imul   edi,DWORD PTR [edx+0x65],0x3631283a
     f84:	2c 31                	sub    al,0x31
     f86:	29 2c 32             	sub    DWORD PTR [edx+esi*1],ebp
     f89:	35 36 2c 33 32       	xor    eax,0x32332c36
     f8e:	3b 3b                	cmp    edi,DWORD PTR [ebx]
     f90:	00 70 74             	add    BYTE PTR [eax+0x74],dh
     f93:	68 72 65 61 64       	push   0x64616572
     f98:	5f                   	pop    edi
     f99:	63 6f 6e             	arpl   WORD PTR [edi+0x6e],bp
     f9c:	64                   	fs
     f9d:	5f                   	pop    edi
     f9e:	74 3a                	je     fda <_init-0x8047706>
     fa0:	74 28                	je     fca <_init-0x8047716>
     fa2:	31 37                	xor    DWORD PTR [edi],esi
     fa4:	2c 38                	sub    al,0x38
     fa6:	29 3d 28 31 37 2c    	sub    DWORD PTR ds:0x2c373128,edi
     fac:	39 29                	cmp    DWORD PTR [ecx],ebp
     fae:	3d 73 31 32 5f       	cmp    eax,0x5f323173
     fb3:	5f                   	pop    edi
     fb4:	63 5f 6c             	arpl   WORD PTR [edi+0x6c],bx
     fb7:	6f                   	outs   dx,DWORD PTR ds:[esi]
     fb8:	63 6b 3a             	arpl   WORD PTR [ebx+0x3a],bp
     fbb:	28 31                	sub    BYTE PTR [ecx],dh
     fbd:	37                   	aaa    
     fbe:	2c 31                	sub    al,0x31
     fc0:	29 2c 30             	sub    DWORD PTR [eax+esi*1],ebp
     fc3:	2c 36                	sub    al,0x36
     fc5:	34 3b                	xor    al,0x3b
     fc7:	5c                   	pop    esp
     fc8:	00 5f 5f             	add    BYTE PTR [edi+0x5f],bl
     fcb:	63 5f 77             	arpl   WORD PTR [edi+0x77],bx
     fce:	61                   	popa   
     fcf:	69 74 69 6e 67 3a 28 	imul   esi,DWORD PTR [ecx+ebp*2+0x6e],0x31283a67
     fd6:	31 
     fd7:	37                   	aaa    
     fd8:	2c 32                	sub    al,0x32
     fda:	29 2c 36             	sub    DWORD PTR [esi+esi*1],ebp
     fdd:	34 2c                	xor    al,0x2c
     fdf:	33 32                	xor    esi,DWORD PTR [edx]
     fe1:	3b 3b                	cmp    edi,DWORD PTR [ebx]
     fe3:	00 70 74             	add    BYTE PTR [eax+0x74],dh
     fe6:	68 72 65 61 64       	push   0x64616572
     feb:	5f                   	pop    edi
     fec:	63 6f 6e             	arpl   WORD PTR [edi+0x6e],bp
     fef:	64                   	fs
     ff0:	61                   	popa   
     ff1:	74 74                	je     1067 <_init-0x8047679>
     ff3:	72 5f                	jb     1054 <_init-0x804768c>
     ff5:	74 3a                	je     1031 <_init-0x80476af>
     ff7:	74 28                	je     1021 <_init-0x80476bf>
     ff9:	31 37                	xor    DWORD PTR [edi],esi
     ffb:	2c 31                	sub    al,0x31
     ffd:	30 29                	xor    BYTE PTR [ecx],ch
     fff:	3d 28 31 37 2c       	cmp    eax,0x2c373128
    1004:	31 31                	xor    DWORD PTR [ecx],esi
    1006:	29 3d 73 34 5f 5f    	sub    DWORD PTR ds:0x5f5f3473,edi
    100c:	64                   	fs
    100d:	75 6d                	jne    107c <_init-0x8047664>
    100f:	6d                   	ins    DWORD PTR es:[edi],dx
    1010:	79 3a                	jns    104c <_init-0x8047694>
    1012:	28 30                	sub    BYTE PTR [eax],dh
    1014:	2c 31                	sub    al,0x31
    1016:	29 2c 30             	sub    DWORD PTR [eax+esi*1],ebp
    1019:	2c 33                	sub    al,0x33
    101b:	32 3b                	xor    bh,BYTE PTR [ebx]
    101d:	3b 00                	cmp    eax,DWORD PTR [eax]
    101f:	70 74                	jo     1095 <_init-0x804764b>
    1021:	68 72 65 61 64       	push   0x64616572
    1026:	5f                   	pop    edi
    1027:	6b 65 79 5f          	imul   esp,DWORD PTR [ebp+0x79],0x5f
    102b:	74 3a                	je     1067 <_init-0x8047679>
    102d:	74 28                	je     1057 <_init-0x8047689>
    102f:	31 37                	xor    DWORD PTR [edi],esi
    1031:	2c 31                	sub    al,0x31
    1033:	32 29                	xor    ch,BYTE PTR [ecx]
    1035:	3d 28 30 2c 34       	cmp    eax,0x342c3028
    103a:	29 00                	sub    DWORD PTR [eax],eax
    103c:	70 74                	jo     10b2 <_init-0x804762e>
    103e:	68 72 65 61 64       	push   0x64616572
    1043:	5f                   	pop    edi
    1044:	6d                   	ins    DWORD PTR es:[edi],dx
    1045:	75 74                	jne    10bb <_init-0x8047625>
    1047:	65                   	gs
    1048:	78 5f                	js     10a9 <_init-0x8047637>
    104a:	74 3a                	je     1086 <_init-0x804765a>
    104c:	74 28                	je     1076 <_init-0x804766a>
    104e:	31 37                	xor    DWORD PTR [edi],esi
    1050:	2c 31                	sub    al,0x31
    1052:	33 29                	xor    ebp,DWORD PTR [ecx]
    1054:	3d 28 31 37 2c       	cmp    eax,0x2c373128
    1059:	31 34 29             	xor    DWORD PTR [ecx+ebp*1],esi
    105c:	3d 73 32 34 5f       	cmp    eax,0x5f343273
    1061:	5f                   	pop    edi
    1062:	6d                   	ins    DWORD PTR es:[edi],dx
    1063:	5f                   	pop    edi
    1064:	72 65                	jb     10cb <_init-0x8047615>
    1066:	73 65                	jae    10cd <_init-0x8047613>
    1068:	72 76                	jb     10e0 <_init-0x8047600>
    106a:	65 64 3a 28          	gs cmp ch,BYTE PTR fs:gs:[eax]
    106e:	30 2c 31             	xor    BYTE PTR [ecx+esi*1],ch
    1071:	29 2c 30             	sub    DWORD PTR [eax+esi*1],ebp
    1074:	2c 33                	sub    al,0x33
    1076:	32 3b                	xor    bh,BYTE PTR [ebx]
    1078:	5c                   	pop    esp
    1079:	00 5f 5f             	add    BYTE PTR [edi+0x5f],bl
    107c:	6d                   	ins    DWORD PTR es:[edi],dx
    107d:	5f                   	pop    edi
    107e:	63 6f 75             	arpl   WORD PTR [edi+0x75],bp
    1081:	6e                   	outs   dx,BYTE PTR ds:[esi]
    1082:	74 3a                	je     10be <_init-0x8047622>
    1084:	28 30                	sub    BYTE PTR [eax],dh
    1086:	2c 31                	sub    al,0x31
    1088:	29 2c 33             	sub    DWORD PTR [ebx+esi*1],ebp
    108b:	32 2c 33             	xor    ch,BYTE PTR [ebx+esi*1]
    108e:	32 3b                	xor    bh,BYTE PTR [ebx]
    1090:	5f                   	pop    edi
    1091:	5f                   	pop    edi
    1092:	6d                   	ins    DWORD PTR es:[edi],dx
    1093:	5f                   	pop    edi
    1094:	6f                   	outs   dx,DWORD PTR ds:[esi]
    1095:	77 6e                	ja     1105 <_init-0x80475db>
    1097:	65                   	gs
    1098:	72 3a                	jb     10d4 <_init-0x804760c>
    109a:	28 31                	sub    BYTE PTR [ecx],dh
    109c:	37                   	aaa    
    109d:	2c 32                	sub    al,0x32
    109f:	29 2c 36             	sub    DWORD PTR [esi+esi*1],ebp
    10a2:	34 2c                	xor    al,0x2c
    10a4:	33 32                	xor    esi,DWORD PTR [edx]
    10a6:	3b 5c 00 5f          	cmp    ebx,DWORD PTR [eax+eax*1+0x5f]
    10aa:	5f                   	pop    edi
    10ab:	6d                   	ins    DWORD PTR es:[edi],dx
    10ac:	5f                   	pop    edi
    10ad:	6b 69 6e 64          	imul   ebp,DWORD PTR [ecx+0x6e],0x64
    10b1:	3a 28                	cmp    ch,BYTE PTR [eax]
    10b3:	30 2c 31             	xor    BYTE PTR [ecx+esi*1],ch
    10b6:	29 2c 39             	sub    DWORD PTR [ecx+edi*1],ebp
    10b9:	36                   	ss
    10ba:	2c 33                	sub    al,0x33
    10bc:	32 3b                	xor    bh,BYTE PTR [ebx]
    10be:	5f                   	pop    edi
    10bf:	5f                   	pop    edi
    10c0:	6d                   	ins    DWORD PTR es:[edi],dx
    10c1:	5f                   	pop    edi
    10c2:	6c                   	ins    BYTE PTR es:[edi],dx
    10c3:	6f                   	outs   dx,DWORD PTR ds:[esi]
    10c4:	63 6b 3a             	arpl   WORD PTR [ebx+0x3a],bp
    10c7:	28 31                	sub    BYTE PTR [ecx],dh
    10c9:	37                   	aaa    
    10ca:	2c 31                	sub    al,0x31
    10cc:	29 2c 31             	sub    DWORD PTR [ecx+esi*1],ebp
    10cf:	32 38                	xor    bh,BYTE PTR [eax]
    10d1:	2c 36                	sub    al,0x36
    10d3:	34 3b                	xor    al,0x3b
    10d5:	3b 00                	cmp    eax,DWORD PTR [eax]
    10d7:	70 74                	jo     114d <_init-0x8047593>
    10d9:	68 72 65 61 64       	push   0x64616572
    10de:	5f                   	pop    edi
    10df:	6d                   	ins    DWORD PTR es:[edi],dx
    10e0:	75 74                	jne    1156 <_init-0x804758a>
    10e2:	65                   	gs
    10e3:	78 61                	js     1146 <_init-0x804759a>
    10e5:	74 74                	je     115b <_init-0x8047585>
    10e7:	72 5f                	jb     1148 <_init-0x8047598>
    10e9:	74 3a                	je     1125 <_init-0x80475bb>
    10eb:	74 28                	je     1115 <_init-0x80475cb>
    10ed:	31 37                	xor    DWORD PTR [edi],esi
    10ef:	2c 31                	sub    al,0x31
    10f1:	35 29 3d 28 31       	xor    eax,0x31283d29
    10f6:	37                   	aaa    
    10f7:	2c 31                	sub    al,0x31
    10f9:	36 29 3d 73 34 5f 5f 	sub    DWORD PTR ss:0x5f5f3473,edi
    1100:	6d                   	ins    DWORD PTR es:[edi],dx
    1101:	75 74                	jne    1177 <_init-0x8047569>
    1103:	65                   	gs
    1104:	78 6b                	js     1171 <_init-0x804756f>
    1106:	69 6e 64 3a 28 30 2c 	imul   ebp,DWORD PTR [esi+0x64],0x2c30283a
    110d:	31 29                	xor    DWORD PTR [ecx],ebp
    110f:	2c 30                	sub    al,0x30
    1111:	2c 33                	sub    al,0x33
    1113:	32 3b                	xor    bh,BYTE PTR [ebx]
    1115:	3b 00                	cmp    eax,DWORD PTR [eax]
    1117:	70 74                	jo     118d <_init-0x8047553>
    1119:	68 72 65 61 64       	push   0x64616572
    111e:	5f                   	pop    edi
    111f:	6f                   	outs   dx,DWORD PTR ds:[esi]
    1120:	6e                   	outs   dx,BYTE PTR ds:[esi]
    1121:	63 65 5f             	arpl   WORD PTR [ebp+0x5f],sp
    1124:	74 3a                	je     1160 <_init-0x8047580>
    1126:	74 28                	je     1150 <_init-0x8047590>
    1128:	31 37                	xor    DWORD PTR [edi],esi
    112a:	2c 31                	sub    al,0x31
    112c:	37                   	aaa    
    112d:	29 3d 28 30 2c 31    	sub    DWORD PTR ds:0x312c3028,edi
    1133:	29 00                	sub    DWORD PTR [eax],eax
    1135:	5f                   	pop    edi
    1136:	70 74                	jo     11ac <_init-0x8047534>
    1138:	68 72 65 61 64       	push   0x64616572
    113d:	5f                   	pop    edi
    113e:	72 77                	jb     11b7 <_init-0x8047529>
    1140:	6c                   	ins    BYTE PTR es:[edi],dx
    1141:	6f                   	outs   dx,DWORD PTR ds:[esi]
    1142:	63 6b 5f             	arpl   WORD PTR [ebx+0x5f],bp
    1145:	74 3a                	je     1181 <_init-0x804755f>
    1147:	54                   	push   esp
    1148:	28 31                	sub    BYTE PTR [ecx],dh
    114a:	37                   	aaa    
    114b:	2c 31                	sub    al,0x31
    114d:	38 29                	cmp    BYTE PTR [ecx],ch
    114f:	3d 73 33 32 5f       	cmp    eax,0x5f323373
    1154:	5f                   	pop    edi
    1155:	72 77                	jb     11ce <_init-0x8047512>
    1157:	5f                   	pop    edi
    1158:	6c                   	ins    BYTE PTR es:[edi],dx
    1159:	6f                   	outs   dx,DWORD PTR ds:[esi]
    115a:	63 6b 3a             	arpl   WORD PTR [ebx+0x3a],bp
    115d:	28 31                	sub    BYTE PTR [ecx],dh
    115f:	37                   	aaa    
    1160:	2c 31                	sub    al,0x31
    1162:	29 2c 30             	sub    DWORD PTR [eax+esi*1],ebp
    1165:	2c 36                	sub    al,0x36
    1167:	34 3b                	xor    al,0x3b
    1169:	5f                   	pop    edi
    116a:	5f                   	pop    edi
    116b:	72 77                	jb     11e4 <_init-0x80474fc>
    116d:	5f                   	pop    edi
    116e:	72 65                	jb     11d5 <_init-0x804750b>
    1170:	61                   	popa   
    1171:	64                   	fs
    1172:	65                   	gs
    1173:	72 73                	jb     11e8 <_init-0x80474f8>
    1175:	3a 28                	cmp    ch,BYTE PTR [eax]
    1177:	30 2c 31             	xor    BYTE PTR [ecx+esi*1],ch
    117a:	29 2c 36             	sub    DWORD PTR [esi+esi*1],ebp
    117d:	34 2c                	xor    al,0x2c
    117f:	33 32                	xor    esi,DWORD PTR [edx]
    1181:	3b 5c 00 5f          	cmp    ebx,DWORD PTR [eax+eax*1+0x5f]
    1185:	5f                   	pop    edi
    1186:	72 77                	jb     11ff <_init-0x80474e1>
    1188:	5f                   	pop    edi
    1189:	77 72                	ja     11fd <_init-0x80474e3>
    118b:	69 74 65 72 3a 28 31 	imul   esi,DWORD PTR [ebp+eiz*2+0x72],0x3731283a
    1192:	37 
    1193:	2c 32                	sub    al,0x32
    1195:	29 2c 39             	sub    DWORD PTR [ecx+edi*1],ebp
    1198:	36                   	ss
    1199:	2c 33                	sub    al,0x33
    119b:	32 3b                	xor    bh,BYTE PTR [ebx]
    119d:	5f                   	pop    edi
    119e:	5f                   	pop    edi
    119f:	72 77                	jb     1218 <_init-0x80474c8>
    11a1:	5f                   	pop    edi
    11a2:	72 65                	jb     1209 <_init-0x80474d7>
    11a4:	61                   	popa   
    11a5:	64                   	fs
    11a6:	5f                   	pop    edi
    11a7:	77 61                	ja     120a <_init-0x80474d6>
    11a9:	69 74 69 6e 67 3a 28 	imul   esi,DWORD PTR [ecx+ebp*2+0x6e],0x31283a67
    11b0:	31 
    11b1:	37                   	aaa    
    11b2:	2c 32                	sub    al,0x32
    11b4:	29 2c 31             	sub    DWORD PTR [ecx+esi*1],ebp
    11b7:	32 38                	xor    bh,BYTE PTR [eax]
    11b9:	2c 33                	sub    al,0x33
    11bb:	32 3b                	xor    bh,BYTE PTR [ebx]
    11bd:	5c                   	pop    esp
    11be:	00 5f 5f             	add    BYTE PTR [edi+0x5f],bl
    11c1:	72 77                	jb     123a <_init-0x80474a6>
    11c3:	5f                   	pop    edi
    11c4:	77 72                	ja     1238 <_init-0x80474a8>
    11c6:	69 74 65 5f 77 61 69 	imul   esi,DWORD PTR [ebp+eiz*2+0x5f],0x74696177
    11cd:	74 
    11ce:	69 6e 67 3a 28 31 37 	imul   ebp,DWORD PTR [esi+0x67],0x3731283a
    11d5:	2c 32                	sub    al,0x32
    11d7:	29 2c 31             	sub    DWORD PTR [ecx+esi*1],ebp
    11da:	36 30 2c 33          	xor    BYTE PTR ss:[ebx+esi*1],ch
    11de:	32 3b                	xor    bh,BYTE PTR [ebx]
    11e0:	5f                   	pop    edi
    11e1:	5f                   	pop    edi
    11e2:	72 77                	jb     125b <_init-0x8047485>
    11e4:	5f                   	pop    edi
    11e5:	6b 69 6e 64          	imul   ebp,DWORD PTR [ecx+0x6e],0x64
    11e9:	3a 28                	cmp    ch,BYTE PTR [eax]
    11eb:	30 2c 31             	xor    BYTE PTR [ecx+esi*1],ch
    11ee:	29 2c 31             	sub    DWORD PTR [ecx+esi*1],ebp
    11f1:	39 32                	cmp    DWORD PTR [edx],esi
    11f3:	2c 33                	sub    al,0x33
    11f5:	32 3b                	xor    bh,BYTE PTR [ebx]
    11f7:	5c                   	pop    esp
    11f8:	00 5f 5f             	add    BYTE PTR [edi+0x5f],bl
    11fb:	72 77                	jb     1274 <_init-0x804746c>
    11fd:	5f                   	pop    edi
    11fe:	70 73                	jo     1273 <_init-0x804746d>
    1200:	68 61 72 65 64       	push   0x64657261
    1205:	3a 28                	cmp    ch,BYTE PTR [eax]
    1207:	30 2c 31             	xor    BYTE PTR [ecx+esi*1],ch
    120a:	29 2c 32             	sub    DWORD PTR [edx+esi*1],ebp
    120d:	32 34 2c             	xor    dh,BYTE PTR [esp+ebp*1]
    1210:	33 32                	xor    esi,DWORD PTR [edx]
    1212:	3b 3b                	cmp    edi,DWORD PTR [ebx]
    1214:	00 70 74             	add    BYTE PTR [eax+0x74],dh
    1217:	68 72 65 61 64       	push   0x64616572
    121c:	5f                   	pop    edi
    121d:	72 77                	jb     1296 <_init-0x804744a>
    121f:	6c                   	ins    BYTE PTR es:[edi],dx
    1220:	6f                   	outs   dx,DWORD PTR ds:[esi]
    1221:	63 6b 5f             	arpl   WORD PTR [ebx+0x5f],bp
    1224:	74 3a                	je     1260 <_init-0x8047480>
    1226:	74 28                	je     1250 <_init-0x8047490>
    1228:	31 37                	xor    DWORD PTR [edi],esi
    122a:	2c 31                	sub    al,0x31
    122c:	39 29                	cmp    DWORD PTR [ecx],ebp
    122e:	3d 28 31 37 2c       	cmp    eax,0x2c373128
    1233:	31 38                	xor    DWORD PTR [eax],edi
    1235:	29 00                	sub    DWORD PTR [eax],eax
    1237:	70 74                	jo     12ad <_init-0x8047433>
    1239:	68 72 65 61 64       	push   0x64616572
    123e:	5f                   	pop    edi
    123f:	72 77                	jb     12b8 <_init-0x8047428>
    1241:	6c                   	ins    BYTE PTR es:[edi],dx
    1242:	6f                   	outs   dx,DWORD PTR ds:[esi]
    1243:	63 6b 61             	arpl   WORD PTR [ebx+0x61],bp
    1246:	74 74                	je     12bc <_init-0x8047424>
    1248:	72 5f                	jb     12a9 <_init-0x8047437>
    124a:	74 3a                	je     1286 <_init-0x804745a>
    124c:	74 28                	je     1276 <_init-0x804746a>
    124e:	31 37                	xor    DWORD PTR [edi],esi
    1250:	2c 32                	sub    al,0x32
    1252:	30 29                	xor    BYTE PTR [ecx],ch
    1254:	3d 28 31 37 2c       	cmp    eax,0x2c373128
    1259:	32 31                	xor    dh,BYTE PTR [ecx]
    125b:	29 3d 73 38 5f 5f    	sub    DWORD PTR ds:0x5f5f3873,edi
    1261:	6c                   	ins    BYTE PTR es:[edi],dx
    1262:	6f                   	outs   dx,DWORD PTR ds:[esi]
    1263:	63 6b 6b             	arpl   WORD PTR [ebx+0x6b],bp
    1266:	69 6e 64 3a 28 30 2c 	imul   ebp,DWORD PTR [esi+0x64],0x2c30283a
    126d:	31 29                	xor    DWORD PTR [ecx],ebp
    126f:	2c 30                	sub    al,0x30
    1271:	2c 33                	sub    al,0x33
    1273:	32 3b                	xor    bh,BYTE PTR [ebx]
    1275:	5c                   	pop    esp
    1276:	00 5f 5f             	add    BYTE PTR [edi+0x5f],bl
    1279:	70 73                	jo     12ee <_init-0x80473f2>
    127b:	68 61 72 65 64       	push   0x64657261
    1280:	3a 28                	cmp    ch,BYTE PTR [eax]
    1282:	30 2c 31             	xor    BYTE PTR [ecx+esi*1],ch
    1285:	29 2c 33             	sub    DWORD PTR [ebx+esi*1],ebp
    1288:	32 2c 33             	xor    ch,BYTE PTR [ebx+esi*1]
    128b:	32 3b                	xor    bh,BYTE PTR [ebx]
    128d:	3b 00                	cmp    eax,DWORD PTR [eax]
    128f:	70 74                	jo     1305 <_init-0x80473db>
    1291:	68 72 65 61 64       	push   0x64616572
    1296:	5f                   	pop    edi
    1297:	74 3a                	je     12d3 <_init-0x804740d>
    1299:	74 28                	je     12c3 <_init-0x804741d>
    129b:	31 37                	xor    DWORD PTR [edi],esi
    129d:	2c 32                	sub    al,0x32
    129f:	32 29                	xor    ch,BYTE PTR [ecx]
    12a1:	3d 28 30 2c 35       	cmp    eax,0x352c3028
    12a6:	29 00                	sub    DWORD PTR [eax],eax
    12a8:	77 63                	ja     130d <_init-0x80473d3>
    12aa:	68 61 72 5f 74       	push   0x745f7261
    12af:	3a 74 28 31          	cmp    dh,BYTE PTR [eax+ebp*1+0x31]
    12b3:	39 2c 31             	cmp    DWORD PTR [ecx+esi*1],ebp
    12b6:	29 3d 28 30 2c 33    	sub    DWORD PTR ds:0x332c3028,edi
    12bc:	29 00                	sub    DWORD PTR [eax],eax
    12be:	77 69                	ja     1329 <_init-0x80473b7>
    12c0:	6e                   	outs   dx,BYTE PTR ds:[esi]
    12c1:	74 5f                	je     1322 <_init-0x80473be>
    12c3:	74 3a                	je     12ff <_init-0x80473e1>
    12c5:	74 28                	je     12ef <_init-0x80473f1>
    12c7:	31 39                	xor    DWORD PTR [ecx],edi
    12c9:	2c 32                	sub    al,0x32
    12cb:	29 3d 28 30 2c 34    	sub    DWORD PTR ds:0x342c3028,edi
    12d1:	29 00                	sub    DWORD PTR [eax],eax
    12d3:	5f                   	pop    edi
    12d4:	47                   	inc    edi
    12d5:	5f                   	pop    edi
    12d6:	69 6e 74 31 36 5f 74 	imul   ebp,DWORD PTR [esi+0x74],0x745f3631
    12dd:	3a 74 28 31          	cmp    dh,BYTE PTR [eax+ebp*1+0x31]
    12e1:	34 2c                	xor    al,0x2c
    12e3:	31 29                	xor    DWORD PTR [ecx],ebp
    12e5:	3d 28 30 2c 38       	cmp    eax,0x382c3028
    12ea:	29 00                	sub    DWORD PTR [eax],eax
    12ec:	5f                   	pop    edi
    12ed:	47                   	inc    edi
    12ee:	5f                   	pop    edi
    12ef:	69 6e 74 33 32 5f 74 	imul   ebp,DWORD PTR [esi+0x74],0x745f3233
    12f6:	3a 74 28 31          	cmp    dh,BYTE PTR [eax+ebp*1+0x31]
    12fa:	34 2c                	xor    al,0x2c
    12fc:	32 29                	xor    ch,BYTE PTR [ecx]
    12fe:	3d 28 30 2c 31       	cmp    eax,0x312c3028
    1303:	29 00                	sub    DWORD PTR [eax],eax
    1305:	5f                   	pop    edi
    1306:	47                   	inc    edi
    1307:	5f                   	pop    edi
    1308:	75 69                	jne    1373 <_init-0x804736d>
    130a:	6e                   	outs   dx,BYTE PTR ds:[esi]
    130b:	74 31                	je     133e <_init-0x80473a2>
    130d:	36                   	ss
    130e:	5f                   	pop    edi
    130f:	74 3a                	je     134b <_init-0x8047395>
    1311:	74 28                	je     133b <_init-0x80473a5>
    1313:	31 34 2c             	xor    DWORD PTR [esp+ebp*1],esi
    1316:	33 29                	xor    ebp,DWORD PTR [ecx]
    1318:	3d 28 30 2c 39       	cmp    eax,0x392c3028
    131d:	29 00                	sub    DWORD PTR [eax],eax
    131f:	5f                   	pop    edi
    1320:	47                   	inc    edi
    1321:	5f                   	pop    edi
    1322:	75 69                	jne    138d <_init-0x8047353>
    1324:	6e                   	outs   dx,BYTE PTR ds:[esi]
    1325:	74 33                	je     135a <_init-0x8047386>
    1327:	32 5f 74             	xor    bl,BYTE PTR [edi+0x74]
    132a:	3a 74 28 31          	cmp    dh,BYTE PTR [eax+ebp*1+0x31]
    132e:	34 2c                	xor    al,0x2c
    1330:	34 29                	xor    al,0x29
    1332:	3d 28 30 2c 34       	cmp    eax,0x342c3028
    1337:	29 00                	sub    DWORD PTR [eax],eax
    1339:	5f                   	pop    edi
    133a:	49                   	dec    ecx
    133b:	4f                   	dec    edi
    133c:	5f                   	pop    edi
    133d:	73 74                	jae    13b3 <_init-0x804732d>
    133f:	64 69 6e 5f 75 73 65 	imul   ebp,DWORD PTR fs:[esi+0x5f],0x64657375
    1346:	64 
    1347:	3a 47 28             	cmp    al,BYTE PTR [edi+0x28]
    134a:	30 2c 31             	xor    BYTE PTR [ecx+esi*1],ch
    134d:	29 00                	sub    DWORD PTR [eax],eax

Disassembly of section .comment:

00000000 <.comment>:
   0:	00 47 43             	add    BYTE PTR [edi+0x43],al
   3:	43                   	inc    ebx
   4:	3a 20                	cmp    ah,BYTE PTR [eax]
   6:	28 47 4e             	sub    BYTE PTR [edi+0x4e],al
   9:	55                   	push   ebp
   a:	29 20                	sub    DWORD PTR [eax],esp
   c:	65 67 63 73 2d       	arpl   WORD PTR gs:[bp+di+0x2d],si
  11:	32 2e                	xor    ch,BYTE PTR [esi]
  13:	39 31                	cmp    DWORD PTR [ecx],esi
  15:	2e 36 36 20 31       	cs ss and BYTE PTR cs:ss:[ecx],dh
  1a:	39 39                	cmp    DWORD PTR [ecx],edi
  1c:	39 30                	cmp    DWORD PTR [eax],esi
  1e:	33 31                	xor    esi,DWORD PTR [ecx]
  20:	34 2f                	xor    al,0x2f
  22:	4c                   	dec    esp
  23:	69 6e 75 78 20 28 65 	imul   ebp,DWORD PTR [esi+0x75],0x65282078
  2a:	67 63 73 2d          	arpl   WORD PTR [bp+di+0x2d],si
  2e:	31 2e                	xor    DWORD PTR [esi],ebp
  30:	31 2e                	xor    DWORD PTR [esi],ebp
  32:	32 20                	xor    ah,BYTE PTR [eax]
  34:	72 65                	jb     9b <_init-0x8048645>
  36:	6c                   	ins    BYTE PTR es:[edi],dx
  37:	65                   	gs
  38:	61                   	popa   
  39:	73 65                	jae    a0 <_init-0x8048640>
  3b:	29 00                	sub    DWORD PTR [eax],eax
  3d:	00 47 43             	add    BYTE PTR [edi+0x43],al
  40:	43                   	inc    ebx
  41:	3a 20                	cmp    ah,BYTE PTR [eax]
  43:	28 47 4e             	sub    BYTE PTR [edi+0x4e],al
  46:	55                   	push   ebp
  47:	29 20                	sub    DWORD PTR [eax],esp
  49:	65 67 63 73 2d       	arpl   WORD PTR gs:[bp+di+0x2d],si
  4e:	32 2e                	xor    ch,BYTE PTR [esi]
  50:	39 31                	cmp    DWORD PTR [ecx],esi
  52:	2e 36 36 20 31       	cs ss and BYTE PTR cs:ss:[ecx],dh
  57:	39 39                	cmp    DWORD PTR [ecx],edi
  59:	39 30                	cmp    DWORD PTR [eax],esi
  5b:	33 31                	xor    esi,DWORD PTR [ecx]
  5d:	34 2f                	xor    al,0x2f
  5f:	4c                   	dec    esp
  60:	69 6e 75 78 20 28 65 	imul   ebp,DWORD PTR [esi+0x75],0x65282078
  67:	67 63 73 2d          	arpl   WORD PTR [bp+di+0x2d],si
  6b:	31 2e                	xor    DWORD PTR [esi],ebp
  6d:	31 2e                	xor    DWORD PTR [esi],ebp
  6f:	32 20                	xor    ah,BYTE PTR [eax]
  71:	72 65                	jb     d8 <_init-0x8048608>
  73:	6c                   	ins    BYTE PTR es:[edi],dx
  74:	65                   	gs
  75:	61                   	popa   
  76:	73 65                	jae    dd <_init-0x8048603>
  78:	29 00                	sub    DWORD PTR [eax],eax
  7a:	00 47 43             	add    BYTE PTR [edi+0x43],al
  7d:	43                   	inc    ebx
  7e:	3a 20                	cmp    ah,BYTE PTR [eax]
  80:	28 47 4e             	sub    BYTE PTR [edi+0x4e],al
  83:	55                   	push   ebp
  84:	29 20                	sub    DWORD PTR [eax],esp
  86:	32 2e                	xor    ch,BYTE PTR [esi]
  88:	39 35 2e 33 20 32    	cmp    DWORD PTR ds:0x3220332e,esi
  8e:	30 30                	xor    BYTE PTR [eax],dh
  90:	31 30                	xor    DWORD PTR [eax],esi
  92:	33 31                	xor    esi,DWORD PTR [ecx]
  94:	35 20 28 72 65       	xor    eax,0x65722820
  99:	6c                   	ins    BYTE PTR es:[edi],dx
  9a:	65                   	gs
  9b:	61                   	popa   
  9c:	73 65                	jae    103 <_init-0x80485dd>
  9e:	29 00                	sub    DWORD PTR [eax],eax
  a0:	00 47 43             	add    BYTE PTR [edi+0x43],al
  a3:	43                   	inc    ebx
  a4:	3a 20                	cmp    ah,BYTE PTR [eax]
  a6:	28 47 4e             	sub    BYTE PTR [edi+0x4e],al
  a9:	55                   	push   ebp
  aa:	29 20                	sub    DWORD PTR [eax],esp
  ac:	32 2e                	xor    ch,BYTE PTR [esi]
  ae:	39 35 2e 33 20 32    	cmp    DWORD PTR ds:0x3220332e,esi
  b4:	30 30                	xor    BYTE PTR [eax],dh
  b6:	31 30                	xor    DWORD PTR [eax],esi
  b8:	33 31                	xor    esi,DWORD PTR [ecx]
  ba:	35 20 28 72 65       	xor    eax,0x65722820
  bf:	6c                   	ins    BYTE PTR es:[edi],dx
  c0:	65                   	gs
  c1:	61                   	popa   
  c2:	73 65                	jae    129 <_init-0x80485b7>
  c4:	29 00                	sub    DWORD PTR [eax],eax
  c6:	00 47 43             	add    BYTE PTR [edi+0x43],al
  c9:	43                   	inc    ebx
  ca:	3a 20                	cmp    ah,BYTE PTR [eax]
  cc:	28 47 4e             	sub    BYTE PTR [edi+0x4e],al
  cf:	55                   	push   ebp
  d0:	29 20                	sub    DWORD PTR [eax],esp
  d2:	32 2e                	xor    ch,BYTE PTR [esi]
  d4:	39 35 2e 33 20 32    	cmp    DWORD PTR ds:0x3220332e,esi
  da:	30 30                	xor    BYTE PTR [eax],dh
  dc:	31 30                	xor    DWORD PTR [eax],esi
  de:	33 31                	xor    esi,DWORD PTR [ecx]
  e0:	35 20 28 72 65       	xor    eax,0x65722820
  e5:	6c                   	ins    BYTE PTR es:[edi],dx
  e6:	65                   	gs
  e7:	61                   	popa   
  e8:	73 65                	jae    14f <_init-0x8048591>
  ea:	29 00                	sub    DWORD PTR [eax],eax
  ec:	00 47 43             	add    BYTE PTR [edi+0x43],al
  ef:	43                   	inc    ebx
  f0:	3a 20                	cmp    ah,BYTE PTR [eax]
  f2:	28 47 4e             	sub    BYTE PTR [edi+0x4e],al
  f5:	55                   	push   ebp
  f6:	29 20                	sub    DWORD PTR [eax],esp
  f8:	32 2e                	xor    ch,BYTE PTR [esi]
  fa:	39 35 2e 33 20 32    	cmp    DWORD PTR ds:0x3220332e,esi
 100:	30 30                	xor    BYTE PTR [eax],dh
 102:	31 30                	xor    DWORD PTR [eax],esi
 104:	33 31                	xor    esi,DWORD PTR [ecx]
 106:	35 20 28 72 65       	xor    eax,0x65722820
 10b:	6c                   	ins    BYTE PTR es:[edi],dx
 10c:	65                   	gs
 10d:	61                   	popa   
 10e:	73 65                	jae    175 <_init-0x804856b>
 110:	29 00                	sub    DWORD PTR [eax],eax
 112:	00 47 43             	add    BYTE PTR [edi+0x43],al
 115:	43                   	inc    ebx
 116:	3a 20                	cmp    ah,BYTE PTR [eax]
 118:	28 47 4e             	sub    BYTE PTR [edi+0x4e],al
 11b:	55                   	push   ebp
 11c:	29 20                	sub    DWORD PTR [eax],esp
 11e:	32 2e                	xor    ch,BYTE PTR [esi]
 120:	39 35 2e 33 20 32    	cmp    DWORD PTR ds:0x3220332e,esi
 126:	30 30                	xor    BYTE PTR [eax],dh
 128:	31 30                	xor    DWORD PTR [eax],esi
 12a:	33 31                	xor    esi,DWORD PTR [ecx]
 12c:	35 20 28 72 65       	xor    eax,0x65722820
 131:	6c                   	ins    BYTE PTR es:[edi],dx
 132:	65                   	gs
 133:	61                   	popa   
 134:	73 65                	jae    19b <_init-0x8048545>
 136:	29 00                	sub    DWORD PTR [eax],eax
 138:	00 47 43             	add    BYTE PTR [edi+0x43],al
 13b:	43                   	inc    ebx
 13c:	3a 20                	cmp    ah,BYTE PTR [eax]
 13e:	28 47 4e             	sub    BYTE PTR [edi+0x4e],al
 141:	55                   	push   ebp
 142:	29 20                	sub    DWORD PTR [eax],esp
 144:	65 67 63 73 2d       	arpl   WORD PTR gs:[bp+di+0x2d],si
 149:	32 2e                	xor    ch,BYTE PTR [esi]
 14b:	39 31                	cmp    DWORD PTR [ecx],esi
 14d:	2e 36 36 20 31       	cs ss and BYTE PTR cs:ss:[ecx],dh
 152:	39 39                	cmp    DWORD PTR [ecx],edi
 154:	39 30                	cmp    DWORD PTR [eax],esi
 156:	33 31                	xor    esi,DWORD PTR [ecx]
 158:	34 2f                	xor    al,0x2f
 15a:	4c                   	dec    esp
 15b:	69 6e 75 78 20 28 65 	imul   ebp,DWORD PTR [esi+0x75],0x65282078
 162:	67 63 73 2d          	arpl   WORD PTR [bp+di+0x2d],si
 166:	31 2e                	xor    DWORD PTR [esi],ebp
 168:	31 2e                	xor    DWORD PTR [esi],ebp
 16a:	32 20                	xor    ah,BYTE PTR [eax]
 16c:	72 65                	jb     1d3 <_init-0x804850d>
 16e:	6c                   	ins    BYTE PTR es:[edi],dx
 16f:	65                   	gs
 170:	61                   	popa   
 171:	73 65                	jae    1d8 <_init-0x8048508>
 173:	29 00                	sub    DWORD PTR [eax],eax

Disassembly of section .debug_aranges:

00000000 <.debug_aranges>:
   0:	1c 00                	sbb    al,0x0
   2:	00 00                	add    BYTE PTR [eax],al
   4:	02 00                	add    al,BYTE PTR [eax]
   6:	00 00                	add    BYTE PTR [eax],al
   8:	00 00                	add    BYTE PTR [eax],al
   a:	04 00                	add    al,0x0
   c:	04 00                	add    al,0x0
   e:	00 00                	add    BYTE PTR [eax],al
  10:	b0 89                	mov    al,0x89
  12:	04 08                	add    al,0x8
  14:	6d                   	ins    DWORD PTR es:[edi],dx
  15:	01 00                	add    DWORD PTR [eax],eax
	...

Disassembly of section .debug_pubnames:

00000000 <.debug_pubnames>:
   0:	22 00                	and    al,BYTE PTR [eax]
   2:	00 00                	add    BYTE PTR [eax],al
   4:	02 00                	add    al,BYTE PTR [eax]
   6:	00 00                	add    BYTE PTR [eax],al
   8:	00 00                	add    BYTE PTR [eax],al
   a:	63 0b                	arpl   WORD PTR [ebx],cx
   c:	00 00                	add    BYTE PTR [eax],al
   e:	cc                   	int3   
   f:	04 00                	add    al,0x0
  11:	00 6d 61             	add    BYTE PTR [ebp+0x61],ch
  14:	69 6e 00 4d 0b 00 00 	imul   ebp,DWORD PTR [esi+0x0],0xb4d
  1b:	69 6e 66 69 6c 65 00 	imul   ebp,DWORD PTR [esi+0x66],0x656c69
  22:	00 00                	add    BYTE PTR [eax],al
	...

Disassembly of section .debug_info:

00000000 <.debug_info>:
   0:	5f                   	pop    edi
   1:	0b 00                	or     eax,DWORD PTR [eax]
   3:	00 02                	add    BYTE PTR [edx],al
   5:	00 00                	add    BYTE PTR [eax],al
   7:	00 00                	add    BYTE PTR [eax],al
   9:	00 04 01             	add    BYTE PTR [ecx+eax*1],al
   c:	62 6f 6d             	bound  ebp,QWORD PTR [edi+0x6d]
   f:	62 2e                	bound  ebp,QWORD PTR [esi]
  11:	63 00                	arpl   WORD PTR [eax],ax
  13:	2f                   	das    
  14:	75 73                	jne    89 <_init-0x8048657>
  16:	72 30                	jb     48 <_init-0x8048698>
  18:	2f                   	das    
  19:	64                   	fs
  1a:	72 6f                	jb     8b <_init-0x8048655>
  1c:	68 2f 32 31 33       	push   0x3331322f
  21:	2f                   	das    
  22:	70 72                	jo     96 <_init-0x804864a>
  24:	69 76 61 74 65 2f 4c 	imul   esi,DWORD PTR [esi+0x61],0x4c2f6574
  2b:	32 2f                	xor    ch,BYTE PTR [edi]
  2d:	73 72                	jae    a1 <_init-0x804863f>
  2f:	63 00                	arpl   WORD PTR [eax],ax
  31:	47                   	inc    edi
  32:	4e                   	dec    esi
  33:	55                   	push   ebp
  34:	20 43 20             	and    BYTE PTR [ebx+0x20],al
  37:	32 2e                	xor    ch,BYTE PTR [esi]
  39:	39 35 2e 33 20 32    	cmp    DWORD PTR ds:0x3220332e,esi
  3f:	30 30                	xor    BYTE PTR [eax],dh
  41:	31 30                	xor    DWORD PTR [eax],esi
  43:	33 31                	xor    esi,DWORD PTR [ecx]
  45:	35 20 28 72 65       	xor    eax,0x65722820
  4a:	6c                   	ins    BYTE PTR es:[edi],dx
  4b:	65                   	gs
  4c:	61                   	popa   
  4d:	73 65                	jae    b4 <_init-0x804862c>
  4f:	29 00                	sub    DWORD PTR [eax],eax
  51:	01 b0 89 04 08 1d    	add    DWORD PTR [eax+0x1d080489],esi
  57:	8b 04 08             	mov    eax,DWORD PTR [eax+ecx*1]
  5a:	00 00                	add    BYTE PTR [eax],al
  5c:	00 00                	add    BYTE PTR [eax],al
  5e:	02 8f 00 00 00 01    	add    cl,BYTE PTR [edi+0x1000000]
  64:	76 70                	jbe    d6 <_init-0x804860a>
  66:	72 69                	jb     d1 <_init-0x804860f>
  68:	6e                   	outs   dx,BYTE PTR ds:[esi]
  69:	74 66                	je     d1 <_init-0x804860f>
  6b:	00 01                	add    BYTE PTR [ecx],al
  6d:	22 01                	and    al,BYTE PTR [ecx]
  6f:	8f 00                	pop    DWORD PTR [eax]
  71:	00 00                	add    BYTE PTR [eax],al
  73:	03 03                	add    eax,DWORD PTR [ebx]
  75:	5f                   	pop    edi
  76:	5f                   	pop    edi
  77:	66 6d                	ins    WORD PTR es:[edi],dx
  79:	74 00                	je     7b <_init-0x8048665>
  7b:	01 21                	add    DWORD PTR [ecx],esp
  7d:	96                   	xchg   esi,eax
  7e:	00 00                	add    BYTE PTR [eax],al
  80:	00 03                	add    BYTE PTR [ebx],al
  82:	5f                   	pop    edi
  83:	5f                   	pop    edi
  84:	61                   	popa   
  85:	72 67                	jb     ee <_init-0x80485f2>
  87:	00 01                	add    BYTE PTR [ecx],al
  89:	21 a9 00 00 00 00    	and    DWORD PTR [ecx+0x0],ebp
  8f:	04 69                	add    al,0x69
  91:	6e                   	outs   dx,BYTE PTR ds:[esi]
  92:	74 00                	je     94 <_init-0x804864c>
  94:	04 05                	add    al,0x5
  96:	05 04 9c 00 00       	add    eax,0x9c04
  9b:	00 06                	add    BYTE PTR [esi],al
  9d:	a1 00 00 00 04       	mov    eax,ds:0x4000000
  a2:	63 68 61             	arpl   WORD PTR [eax+0x61],bp
  a5:	72 00                	jb     a7 <_init-0x8048639>
  a7:	01 06                	add    DWORD PTR [esi],eax
  a9:	07                   	pop    es
  aa:	04 08                	add    al,0x8
  ac:	01 67 65             	add    DWORD PTR [edi+0x65],esp
  af:	74 63                	je     114 <_init-0x80485cc>
  b1:	68 61 72 00 01       	push   0x1007261
  b6:	29 01                	sub    DWORD PTR [ecx],eax
  b8:	8f 00                	pop    DWORD PTR [eax]
  ba:	00 00                	add    BYTE PTR [eax],al
  bc:	03 02                	add    eax,DWORD PTR [edx]
  be:	e6 00                	out    0x0,al
  c0:	00 00                	add    BYTE PTR [eax],al
  c2:	01 67 65             	add    DWORD PTR [edi+0x65],esp
  c5:	74 63                	je     12a <_init-0x80485b6>
  c7:	5f                   	pop    edi
  c8:	75 6e                	jne    138 <_init-0x80485a8>
  ca:	6c                   	ins    BYTE PTR es:[edi],dx
  cb:	6f                   	outs   dx,DWORD PTR ds:[esi]
  cc:	63 6b 65             	arpl   WORD PTR [ebx+0x65],bp
  cf:	64 00 01             	add    BYTE PTR fs:[ecx],al
  d2:	32 01                	xor    al,BYTE PTR [ecx]
  d4:	8f 00                	pop    DWORD PTR [eax]
  d6:	00 00                	add    BYTE PTR [eax],al
  d8:	03 03                	add    eax,DWORD PTR [ebx]
  da:	5f                   	pop    edi
  db:	5f                   	pop    edi
  dc:	66                   	data16
  dd:	70 00                	jo     df <_init-0x8048601>
  df:	01 31                	add    DWORD PTR [ecx],esi
  e1:	e5 02                	in     eax,0x2
  e3:	00 00                	add    BYTE PTR [eax],al
  e5:	00 09                	add    BYTE PTR [ecx],cl
  e7:	e5 02                	in     eax,0x2
  e9:	00 00                	add    BYTE PTR [eax],al
  eb:	5f                   	pop    edi
  ec:	49                   	dec    ecx
  ed:	4f                   	dec    edi
  ee:	5f                   	pop    edi
  ef:	46                   	inc    esi
  f0:	49                   	dec    ecx
  f1:	4c                   	dec    esp
  f2:	45                   	inc    ebp
  f3:	00 94 02 30 0a 5f 66 	add    BYTE PTR [edx+eax*1+0x665f0a30],dl
  fa:	6c                   	ins    BYTE PTR es:[edi],dx
  fb:	61                   	popa   
  fc:	67 73 00             	addr16 jae ff <_init-0x80485e1>
  ff:	03 be 8f 00 00 00    	add    edi,DWORD PTR [esi+0x8f]
 105:	02 23                	add    ah,BYTE PTR [ebx]
 107:	00 0a                	add    BYTE PTR [edx],cl
 109:	5f                   	pop    edi
 10a:	49                   	dec    ecx
 10b:	4f                   	dec    edi
 10c:	5f                   	pop    edi
 10d:	72 65                	jb     174 <_init-0x804856c>
 10f:	61                   	popa   
 110:	64                   	fs
 111:	5f                   	pop    edi
 112:	70 74                	jo     188 <_init-0x8048558>
 114:	72 00                	jb     116 <_init-0x80485ca>
 116:	03 c3                	add    eax,ebx
 118:	eb 02                	jmp    11c <_init-0x80485c4>
 11a:	00 00                	add    BYTE PTR [eax],al
 11c:	02 23                	add    ah,BYTE PTR [ebx]
 11e:	04 0a                	add    al,0xa
 120:	5f                   	pop    edi
 121:	49                   	dec    ecx
 122:	4f                   	dec    edi
 123:	5f                   	pop    edi
 124:	72 65                	jb     18b <_init-0x8048555>
 126:	61                   	popa   
 127:	64                   	fs
 128:	5f                   	pop    edi
 129:	65 6e                	outs   dx,BYTE PTR gs:[esi]
 12b:	64 00 03             	add    BYTE PTR fs:[ebx],al
 12e:	c4                   	(bad)  
 12f:	eb 02                	jmp    133 <_init-0x80485ad>
 131:	00 00                	add    BYTE PTR [eax],al
 133:	02 23                	add    ah,BYTE PTR [ebx]
 135:	08 0a                	or     BYTE PTR [edx],cl
 137:	5f                   	pop    edi
 138:	49                   	dec    ecx
 139:	4f                   	dec    edi
 13a:	5f                   	pop    edi
 13b:	72 65                	jb     1a2 <_init-0x804853e>
 13d:	61                   	popa   
 13e:	64                   	fs
 13f:	5f                   	pop    edi
 140:	62 61 73             	bound  esp,QWORD PTR [ecx+0x73]
 143:	65 00 03             	add    BYTE PTR gs:[ebx],al
 146:	c5 eb 02             	(bad)  
 149:	00 00                	add    BYTE PTR [eax],al
 14b:	02 23                	add    ah,BYTE PTR [ebx]
 14d:	0c 0a                	or     al,0xa
 14f:	5f                   	pop    edi
 150:	49                   	dec    ecx
 151:	4f                   	dec    edi
 152:	5f                   	pop    edi
 153:	77 72                	ja     1c7 <_init-0x8048519>
 155:	69 74 65 5f 62 61 73 	imul   esi,DWORD PTR [ebp+eiz*2+0x5f],0x65736162
 15c:	65 
 15d:	00 03                	add    BYTE PTR [ebx],al
 15f:	c6                   	(bad)  
 160:	eb 02                	jmp    164 <_init-0x804857c>
 162:	00 00                	add    BYTE PTR [eax],al
 164:	02 23                	add    ah,BYTE PTR [ebx]
 166:	10 0a                	adc    BYTE PTR [edx],cl
 168:	5f                   	pop    edi
 169:	49                   	dec    ecx
 16a:	4f                   	dec    edi
 16b:	5f                   	pop    edi
 16c:	77 72                	ja     1e0 <_init-0x8048500>
 16e:	69 74 65 5f 70 74 72 	imul   esi,DWORD PTR [ebp+eiz*2+0x5f],0x727470
 175:	00 
 176:	03 c7                	add    eax,edi
 178:	eb 02                	jmp    17c <_init-0x8048564>
 17a:	00 00                	add    BYTE PTR [eax],al
 17c:	02 23                	add    ah,BYTE PTR [ebx]
 17e:	14 0a                	adc    al,0xa
 180:	5f                   	pop    edi
 181:	49                   	dec    ecx
 182:	4f                   	dec    edi
 183:	5f                   	pop    edi
 184:	77 72                	ja     1f8 <_init-0x80484e8>
 186:	69 74 65 5f 65 6e 64 	imul   esi,DWORD PTR [ebp+eiz*2+0x5f],0x646e65
 18d:	00 
 18e:	03 c8                	add    ecx,eax
 190:	eb 02                	jmp    194 <_init-0x804854c>
 192:	00 00                	add    BYTE PTR [eax],al
 194:	02 23                	add    ah,BYTE PTR [ebx]
 196:	18 0a                	sbb    BYTE PTR [edx],cl
 198:	5f                   	pop    edi
 199:	49                   	dec    ecx
 19a:	4f                   	dec    edi
 19b:	5f                   	pop    edi
 19c:	62 75 66             	bound  esi,QWORD PTR [ebp+0x66]
 19f:	5f                   	pop    edi
 1a0:	62 61 73             	bound  esp,QWORD PTR [ecx+0x73]
 1a3:	65 00 03             	add    BYTE PTR gs:[ebx],al
 1a6:	c9                   	leave  
 1a7:	eb 02                	jmp    1ab <_init-0x8048535>
 1a9:	00 00                	add    BYTE PTR [eax],al
 1ab:	02 23                	add    ah,BYTE PTR [ebx]
 1ad:	1c 0a                	sbb    al,0xa
 1af:	5f                   	pop    edi
 1b0:	49                   	dec    ecx
 1b1:	4f                   	dec    edi
 1b2:	5f                   	pop    edi
 1b3:	62 75 66             	bound  esi,QWORD PTR [ebp+0x66]
 1b6:	5f                   	pop    edi
 1b7:	65 6e                	outs   dx,BYTE PTR gs:[esi]
 1b9:	64 00 03             	add    BYTE PTR fs:[ebx],al
 1bc:	ca eb 02             	retf   0x2eb
 1bf:	00 00                	add    BYTE PTR [eax],al
 1c1:	02 23                	add    ah,BYTE PTR [ebx]
 1c3:	20 0a                	and    BYTE PTR [edx],cl
 1c5:	5f                   	pop    edi
 1c6:	49                   	dec    ecx
 1c7:	4f                   	dec    edi
 1c8:	5f                   	pop    edi
 1c9:	73 61                	jae    22c <_init-0x80484b4>
 1cb:	76 65                	jbe    232 <_init-0x80484ae>
 1cd:	5f                   	pop    edi
 1ce:	62 61 73             	bound  esp,QWORD PTR [ecx+0x73]
 1d1:	65 00 03             	add    BYTE PTR gs:[ebx],al
 1d4:	cc                   	int3   
 1d5:	eb 02                	jmp    1d9 <_init-0x8048507>
 1d7:	00 00                	add    BYTE PTR [eax],al
 1d9:	02 23                	add    ah,BYTE PTR [ebx]
 1db:	24 0a                	and    al,0xa
 1dd:	5f                   	pop    edi
 1de:	49                   	dec    ecx
 1df:	4f                   	dec    edi
 1e0:	5f                   	pop    edi
 1e1:	62 61 63             	bound  esp,QWORD PTR [ecx+0x63]
 1e4:	6b 75 70 5f          	imul   esi,DWORD PTR [ebp+0x70],0x5f
 1e8:	62 61 73             	bound  esp,QWORD PTR [ecx+0x73]
 1eb:	65 00 03             	add    BYTE PTR gs:[ebx],al
 1ee:	cd eb                	int    0xeb
 1f0:	02 00                	add    al,BYTE PTR [eax]
 1f2:	00 02                	add    BYTE PTR [edx],al
 1f4:	23 28                	and    ebp,DWORD PTR [eax]
 1f6:	0a 5f 49             	or     bl,BYTE PTR [edi+0x49]
 1f9:	4f                   	dec    edi
 1fa:	5f                   	pop    edi
 1fb:	73 61                	jae    25e <_init-0x8048482>
 1fd:	76 65                	jbe    264 <_init-0x804847c>
 1ff:	5f                   	pop    edi
 200:	65 6e                	outs   dx,BYTE PTR gs:[esi]
 202:	64 00 03             	add    BYTE PTR fs:[ebx],al
 205:	ce                   	into   
 206:	eb 02                	jmp    20a <_init-0x80484d6>
 208:	00 00                	add    BYTE PTR [eax],al
 20a:	02 23                	add    ah,BYTE PTR [ebx]
 20c:	2c 0a                	sub    al,0xa
 20e:	5f                   	pop    edi
 20f:	6d                   	ins    DWORD PTR es:[edi],dx
 210:	61                   	popa   
 211:	72 6b                	jb     27e <_init-0x8048462>
 213:	65                   	gs
 214:	72 73                	jb     289 <_init-0x8048457>
 216:	00 03                	add    BYTE PTR [ebx],al
 218:	d0                   	(bad)  
 219:	34 03                	xor    al,0x3
 21b:	00 00                	add    BYTE PTR [eax],al
 21d:	02 23                	add    ah,BYTE PTR [ebx]
 21f:	30 0a                	xor    BYTE PTR [edx],cl
 221:	5f                   	pop    edi
 222:	63 68 61             	arpl   WORD PTR [eax+0x61],bp
 225:	69 6e 00 03 d2 3a 03 	imul   ebp,DWORD PTR [esi+0x0],0x33ad203
 22c:	00 00                	add    BYTE PTR [eax],al
 22e:	02 23                	add    ah,BYTE PTR [ebx]
 230:	34 0a                	xor    al,0xa
 232:	5f                   	pop    edi
 233:	66 69 6c 65 6e 6f 00 	imul   bp,WORD PTR [ebp+eiz*2+0x6e],0x6f
 23a:	03 d4                	add    edx,esp
 23c:	8f 00                	pop    DWORD PTR [eax]
 23e:	00 00                	add    BYTE PTR [eax],al
 240:	02 23                	add    ah,BYTE PTR [ebx]
 242:	38 0a                	cmp    BYTE PTR [edx],cl
 244:	5f                   	pop    edi
 245:	62 6c 6b 73          	bound  ebp,QWORD PTR [ebx+ebp*2+0x73]
 249:	69 7a 65 00 03 d5 8f 	imul   edi,DWORD PTR [edx+0x65],0x8fd50300
 250:	00 00                	add    BYTE PTR [eax],al
 252:	00 02                	add    BYTE PTR [edx],al
 254:	23 3c 0a             	and    edi,DWORD PTR [edx+ecx*1]
 257:	5f                   	pop    edi
 258:	6f                   	outs   dx,DWORD PTR ds:[esi]
 259:	6c                   	ins    BYTE PTR es:[edi],dx
 25a:	64                   	fs
 25b:	5f                   	pop    edi
 25c:	6f                   	outs   dx,DWORD PTR ds:[esi]
 25d:	66                   	data16
 25e:	66                   	data16
 25f:	73 65                	jae    2c6 <_init-0x804841a>
 261:	74 00                	je     263 <_init-0x804847d>
 263:	03 d6                	add    edx,esi
 265:	40                   	inc    eax
 266:	03 00                	add    eax,DWORD PTR [eax]
 268:	00 02                	add    BYTE PTR [edx],al
 26a:	23 40 0a             	and    eax,DWORD PTR [eax+0xa]
 26d:	5f                   	pop    edi
 26e:	63 75 72             	arpl   WORD PTR [ebp+0x72],si
 271:	5f                   	pop    edi
 272:	63 6f 6c             	arpl   WORD PTR [edi+0x6c],bp
 275:	75 6d                	jne    2e4 <_init-0x80483fc>
 277:	6e                   	outs   dx,BYTE PTR ds:[esi]
 278:	00 03                	add    BYTE PTR [ebx],al
 27a:	da 4b 03             	fimul  DWORD PTR [ebx+0x3]
 27d:	00 00                	add    BYTE PTR [eax],al
 27f:	02 23                	add    ah,BYTE PTR [ebx]
 281:	44                   	inc    esp
 282:	0a 5f 76             	or     bl,BYTE PTR [edi+0x76]
 285:	74 61                	je     2e8 <_init-0x80483f8>
 287:	62 6c 65 5f          	bound  ebp,QWORD PTR [ebp+eiz*2+0x5f]
 28b:	6f                   	outs   dx,DWORD PTR ds:[esi]
 28c:	66                   	data16
 28d:	66                   	data16
 28e:	73 65                	jae    2f5 <_init-0x80483eb>
 290:	74 00                	je     292 <_init-0x804844e>
 292:	03 db                	add    ebx,ebx
 294:	61                   	popa   
 295:	03 00                	add    eax,DWORD PTR [eax]
 297:	00 02                	add    BYTE PTR [edx],al
 299:	23 46 0a             	and    eax,DWORD PTR [esi+0xa]
 29c:	5f                   	pop    edi
 29d:	73 68                	jae    307 <_init-0x80483d9>
 29f:	6f                   	outs   dx,DWORD PTR ds:[esi]
 2a0:	72 74                	jb     316 <_init-0x80483ca>
 2a2:	62 75 66             	bound  esi,QWORD PTR [ebp+0x66]
 2a5:	00 03                	add    BYTE PTR [ebx],al
 2a7:	dc 70 03             	fdiv   QWORD PTR [eax+0x3]
 2aa:	00 00                	add    BYTE PTR [eax],al
 2ac:	02 23                	add    ah,BYTE PTR [ebx]
 2ae:	47                   	inc    edi
 2af:	0a 5f 6c             	or     bl,BYTE PTR [edi+0x6c]
 2b2:	6f                   	outs   dx,DWORD PTR ds:[esi]
 2b3:	63 6b 00             	arpl   WORD PTR [ebx+0x0],bp
 2b6:	03 e0                	add    esp,eax
 2b8:	7c 03                	jl     2bd <_init-0x8048423>
 2ba:	00 00                	add    BYTE PTR [eax],al
 2bc:	02 23                	add    ah,BYTE PTR [ebx]
 2be:	48                   	dec    eax
 2bf:	0a 5f 6f             	or     bl,BYTE PTR [edi+0x6f]
 2c2:	66                   	data16
 2c3:	66                   	data16
 2c4:	73 65                	jae    32b <_init-0x80483b5>
 2c6:	74 00                	je     2c8 <_init-0x8048418>
 2c8:	03 e9                	add    ebp,ecx
 2ca:	7e 03                	jle    2cf <_init-0x8048411>
 2cc:	00 00                	add    BYTE PTR [eax],al
 2ce:	02 23                	add    ah,BYTE PTR [ebx]
 2d0:	4c                   	dec    esp
 2d1:	0a 5f 75             	or     bl,BYTE PTR [edi+0x75]
 2d4:	6e                   	outs   dx,BYTE PTR ds:[esi]
 2d5:	75 73                	jne    34a <_init-0x8048396>
 2d7:	65 64 32 00          	gs xor al,BYTE PTR fs:gs:[eax]
 2db:	03 eb                	add    ebp,ebx
 2dd:	8b 03                	mov    eax,DWORD PTR [ebx]
 2df:	00 00                	add    BYTE PTR [eax],al
 2e1:	02 23                	add    ah,BYTE PTR [ebx]
 2e3:	54                   	push   esp
 2e4:	00 05 04 e6 00 00    	add    BYTE PTR ds:0xe604,al
 2ea:	00 05 04 a1 00 00    	add    BYTE PTR ds:0xa104,al
 2f0:	00 09                	add    BYTE PTR [ecx],cl
 2f2:	34 03                	xor    al,0x3
 2f4:	00 00                	add    BYTE PTR [eax],al
 2f6:	5f                   	pop    edi
 2f7:	49                   	dec    ecx
 2f8:	4f                   	dec    edi
 2f9:	5f                   	pop    edi
 2fa:	6d                   	ins    DWORD PTR es:[edi],dx
 2fb:	61                   	popa   
 2fc:	72 6b                	jb     369 <_init-0x8048377>
 2fe:	65                   	gs
 2ff:	72 00                	jb     301 <_init-0x80483df>
 301:	0c 03                	or     al,0x3
 303:	aa                   	stos   BYTE PTR es:[edi],al
 304:	0a 5f 6e             	or     bl,BYTE PTR [edi+0x6e]
 307:	65                   	gs
 308:	78 74                	js     37e <_init-0x8048362>
 30a:	00 03                	add    BYTE PTR [ebx],al
 30c:	ab                   	stos   DWORD PTR es:[edi],eax
 30d:	34 03                	xor    al,0x3
 30f:	00 00                	add    BYTE PTR [eax],al
 311:	02 23                	add    ah,BYTE PTR [ebx]
 313:	00 0a                	add    BYTE PTR [edx],cl
 315:	5f                   	pop    edi
 316:	73 62                	jae    37a <_init-0x8048366>
 318:	75 66                	jne    380 <_init-0x8048360>
 31a:	00 03                	add    BYTE PTR [ebx],al
 31c:	ac                   	lods   al,BYTE PTR ds:[esi]
 31d:	3a 03                	cmp    al,BYTE PTR [ebx]
 31f:	00 00                	add    BYTE PTR [eax],al
 321:	02 23                	add    ah,BYTE PTR [ebx]
 323:	04 0a                	add    al,0xa
 325:	5f                   	pop    edi
 326:	70 6f                	jo     397 <_init-0x8048349>
 328:	73 00                	jae    32a <_init-0x80483b6>
 32a:	03 b0 8f 00 00 00    	add    esi,DWORD PTR [eax+0x8f]
 330:	02 23                	add    ah,BYTE PTR [ebx]
 332:	08 00                	or     BYTE PTR [eax],al
 334:	05 04 f1 02 00       	add    eax,0x2f104
 339:	00 05 04 e6 00 00    	add    BYTE PTR ds:0xe604,al
 33f:	00 04 5f             	add    BYTE PTR [edi+ebx*2],al
 342:	5f                   	pop    edi
 343:	6f                   	outs   dx,DWORD PTR ds:[esi]
 344:	66 66 5f             	data32 pop di
 347:	74 00                	je     349 <_init-0x8048397>
 349:	04 05                	add    al,0x5
 34b:	04 73                	add    al,0x73
 34d:	68 6f 72 74 20       	push   0x2074726f
 352:	75 6e                	jne    3c2 <_init-0x804831e>
 354:	73 69                	jae    3bf <_init-0x8048321>
 356:	67 6e                	outs   dx,BYTE PTR ds:[si]
 358:	65 64 20 69 6e       	gs and BYTE PTR fs:gs:[ecx+0x6e],ch
 35d:	74 00                	je     35f <_init-0x8048381>
 35f:	02 07                	add    al,BYTE PTR [edi]
 361:	04 73                	add    al,0x73
 363:	69 67 6e 65 64 20 63 	imul   esp,DWORD PTR [edi+0x6e],0x63206465
 36a:	68 61 72 00 01       	push   0x1007261
 36f:	06                   	push   es
 370:	0b 7c 03 00          	or     edi,DWORD PTR [ebx+eax*1+0x0]
 374:	00 a1 00 00 00 0c    	add    BYTE PTR [ecx+0xc000000],ah
 37a:	00 00                	add    BYTE PTR [eax],al
 37c:	07                   	pop    es
 37d:	04 04                	add    al,0x4
 37f:	5f                   	pop    edi
 380:	5f                   	pop    edi
 381:	6f                   	outs   dx,DWORD PTR ds:[esi]
 382:	66                   	data16
 383:	66                   	data16
 384:	36                   	ss
 385:	34 5f                	xor    al,0x5f
 387:	74 00                	je     389 <_init-0x8048357>
 389:	08 05 0b 97 03 00    	or     BYTE PTR ds:0x3970b,al
 38f:	00 8f 00 00 00 0c    	add    BYTE PTR [edi+0xc000000],cl
 395:	0f 00 08             	str    WORD PTR [eax]
 398:	01 67 65             	add    DWORD PTR [edi+0x65],esp
 39b:	74 63                	je     400 <_init-0x80482e0>
 39d:	68 61 72 5f 75       	push   0x755f7261
 3a2:	6e                   	outs   dx,BYTE PTR ds:[esi]
 3a3:	6c                   	ins    BYTE PTR es:[edi],dx
 3a4:	6f                   	outs   dx,DWORD PTR ds:[esi]
 3a5:	63 6b 65             	arpl   WORD PTR [ebx+0x65],bp
 3a8:	64 00 01             	add    BYTE PTR fs:[ecx],al
 3ab:	39 01                	cmp    DWORD PTR [ecx],eax
 3ad:	8f 00                	pop    DWORD PTR [eax]
 3af:	00 00                	add    BYTE PTR [eax],al
 3b1:	03 02                	add    eax,DWORD PTR [edx]
 3b3:	d4 03                	aam    0x3
 3b5:	00 00                	add    BYTE PTR [eax],al
 3b7:	01 70 75             	add    DWORD PTR [eax+0x75],esi
 3ba:	74 63                	je     41f <_init-0x80482c1>
 3bc:	68 61 72 00 01       	push   0x1007261
 3c1:	42                   	inc    edx
 3c2:	01 8f 00 00 00 03    	add    DWORD PTR [edi+0x3000000],ecx
 3c8:	03 5f 5f             	add    ebx,DWORD PTR [edi+0x5f]
 3cb:	63 00                	arpl   WORD PTR [eax],ax
 3cd:	01 41 8f             	add    DWORD PTR [ecx-0x71],eax
 3d0:	00 00                	add    BYTE PTR [eax],al
 3d2:	00 00                	add    BYTE PTR [eax],al
 3d4:	02 0d 04 00 00 01    	add    cl,BYTE PTR ds:0x1000004
 3da:	66                   	data16
 3db:	70 75                	jo     452 <_init-0x804828e>
 3dd:	74 63                	je     442 <_init-0x804829e>
 3df:	5f                   	pop    edi
 3e0:	75 6e                	jne    450 <_init-0x8048290>
 3e2:	6c                   	ins    BYTE PTR es:[edi],dx
 3e3:	6f                   	outs   dx,DWORD PTR ds:[esi]
 3e4:	63 6b 65             	arpl   WORD PTR [ebx+0x65],bp
 3e7:	64 00 01             	add    BYTE PTR fs:[ecx],al
 3ea:	4b                   	dec    ebx
 3eb:	01 8f 00 00 00 03    	add    DWORD PTR [edi+0x3000000],ecx
 3f1:	03 5f 5f             	add    ebx,DWORD PTR [edi+0x5f]
 3f4:	63 00                	arpl   WORD PTR [eax],ax
 3f6:	01 4a 8f             	add    DWORD PTR [edx-0x71],ecx
 3f9:	00 00                	add    BYTE PTR [eax],al
 3fb:	00 03                	add    BYTE PTR [ebx],al
 3fd:	5f                   	pop    edi
 3fe:	5f                   	pop    edi
 3ff:	73 74                	jae    475 <_init-0x804826b>
 401:	72 65                	jb     468 <_init-0x8048278>
 403:	61                   	popa   
 404:	6d                   	ins    DWORD PTR es:[edi],dx
 405:	00 01                	add    BYTE PTR [ecx],al
 407:	4a                   	dec    edx
 408:	e5 02                	in     eax,0x2
 40a:	00 00                	add    BYTE PTR [eax],al
 40c:	00 02                	add    BYTE PTR [edx],al
 40e:	45                   	inc    ebp
 40f:	04 00                	add    al,0x0
 411:	00 01                	add    BYTE PTR [ecx],al
 413:	70 75                	jo     48a <_init-0x8048256>
 415:	74 63                	je     47a <_init-0x8048266>
 417:	5f                   	pop    edi
 418:	75 6e                	jne    488 <_init-0x8048258>
 41a:	6c                   	ins    BYTE PTR es:[edi],dx
 41b:	6f                   	outs   dx,DWORD PTR ds:[esi]
 41c:	63 6b 65             	arpl   WORD PTR [ebx+0x65],bp
 41f:	64 00 01             	add    BYTE PTR fs:[ecx],al
 422:	55                   	push   ebp
 423:	01 8f 00 00 00 03    	add    DWORD PTR [edi+0x3000000],ecx
 429:	03 5f 5f             	add    ebx,DWORD PTR [edi+0x5f]
 42c:	63 00                	arpl   WORD PTR [eax],ax
 42e:	01 54 8f 00          	add    DWORD PTR [edi+ecx*4+0x0],edx
 432:	00 00                	add    BYTE PTR [eax],al
 434:	03 5f 5f             	add    ebx,DWORD PTR [edi+0x5f]
 437:	73 74                	jae    4ad <_init-0x8048233>
 439:	72 65                	jb     4a0 <_init-0x8048240>
 43b:	61                   	popa   
 43c:	6d                   	ins    DWORD PTR es:[edi],dx
 43d:	00 01                	add    BYTE PTR [ecx],al
 43f:	54                   	push   esp
 440:	e5 02                	in     eax,0x2
 442:	00 00                	add    BYTE PTR [eax],al
 444:	00 02                	add    BYTE PTR [edx],al
 446:	70 04                	jo     44c <_init-0x8048294>
 448:	00 00                	add    BYTE PTR [eax],al
 44a:	01 70 75             	add    DWORD PTR [eax+0x75],esi
 44d:	74 63                	je     4b2 <_init-0x804822e>
 44f:	68 61 72 5f 75       	push   0x755f7261
 454:	6e                   	outs   dx,BYTE PTR ds:[esi]
 455:	6c                   	ins    BYTE PTR es:[edi],dx
 456:	6f                   	outs   dx,DWORD PTR ds:[esi]
 457:	63 6b 65             	arpl   WORD PTR [ebx+0x65],bp
 45a:	64 00 01             	add    BYTE PTR fs:[ecx],al
 45d:	5c                   	pop    esp
 45e:	01 8f 00 00 00 03    	add    DWORD PTR [edi+0x3000000],ecx
 464:	03 5f 5f             	add    ebx,DWORD PTR [edi+0x5f]
 467:	63 00                	arpl   WORD PTR [eax],ax
 469:	01 5b 8f             	add    DWORD PTR [ebx-0x71],ebx
 46c:	00 00                	add    BYTE PTR [eax],al
 46e:	00 00                	add    BYTE PTR [eax],al
 470:	02 9d 04 00 00 01    	add    bl,BYTE PTR [ebp+0x1000004]
 476:	66 65 6f             	outs   dx,WORD PTR gs:[esi]
 479:	66 5f                	pop    di
 47b:	75 6e                	jne    4eb <_init-0x80481f5>
 47d:	6c                   	ins    BYTE PTR es:[edi],dx
 47e:	6f                   	outs   dx,DWORD PTR ds:[esi]
 47f:	63 6b 65             	arpl   WORD PTR [ebx+0x65],bp
 482:	64 00 01             	add    BYTE PTR fs:[ecx],al
 485:	70 01                	jo     488 <_init-0x8048258>
 487:	8f 00                	pop    DWORD PTR [eax]
 489:	00 00                	add    BYTE PTR [eax],al
 48b:	03 03                	add    eax,DWORD PTR [ebx]
 48d:	5f                   	pop    edi
 48e:	5f                   	pop    edi
 48f:	73 74                	jae    505 <_init-0x80481db>
 491:	72 65                	jb     4f8 <_init-0x80481e8>
 493:	61                   	popa   
 494:	6d                   	ins    DWORD PTR es:[edi],dx
 495:	00 01                	add    BYTE PTR [ecx],al
 497:	6f                   	outs   dx,DWORD PTR ds:[esi]
 498:	e5 02                	in     eax,0x2
 49a:	00 00                	add    BYTE PTR [eax],al
 49c:	00 02                	add    BYTE PTR [edx],al
 49e:	cc                   	int3   
 49f:	04 00                	add    al,0x0
 4a1:	00 01                	add    BYTE PTR [ecx],al
 4a3:	66                   	data16
 4a4:	65                   	gs
 4a5:	72 72                	jb     519 <_init-0x80481c7>
 4a7:	6f                   	outs   dx,DWORD PTR ds:[esi]
 4a8:	72 5f                	jb     509 <_init-0x80481d7>
 4aa:	75 6e                	jne    51a <_init-0x80481c6>
 4ac:	6c                   	ins    BYTE PTR es:[edi],dx
 4ad:	6f                   	outs   dx,DWORD PTR ds:[esi]
 4ae:	63 6b 65             	arpl   WORD PTR [ebx+0x65],bp
 4b1:	64 00 01             	add    BYTE PTR fs:[ecx],al
 4b4:	77 01                	ja     4b7 <_init-0x8048229>
 4b6:	8f 00                	pop    DWORD PTR [eax]
 4b8:	00 00                	add    BYTE PTR [eax],al
 4ba:	03 03                	add    eax,DWORD PTR [ebx]
 4bc:	5f                   	pop    edi
 4bd:	5f                   	pop    edi
 4be:	73 74                	jae    534 <_init-0x80481ac>
 4c0:	72 65                	jb     527 <_init-0x80481b9>
 4c2:	61                   	popa   
 4c3:	6d                   	ins    DWORD PTR es:[edi],dx
 4c4:	00 01                	add    BYTE PTR [ecx],al
 4c6:	76 e5                	jbe    4ad <_init-0x8048233>
 4c8:	02 00                	add    al,BYTE PTR [eax]
 4ca:	00 00                	add    BYTE PTR [eax],al
 4cc:	0d 14 05 00 00       	or     eax,0x514
 4d1:	01 6d 61             	add    DWORD PTR [ebp+0x61],ebp
 4d4:	69 6e 00 04 24 01 8f 	imul   ebp,DWORD PTR [esi+0x0],0x8f012404
 4db:	00 00                	add    BYTE PTR [eax],al
 4dd:	00 b0 89 04 08 1d    	add    BYTE PTR [eax+0x1d080489],dh
 4e3:	8b 04 08             	mov    eax,DWORD PTR [eax+ecx*1]
 4e6:	01 55 0e             	add    DWORD PTR [ebp+0xe],edx
 4e9:	61                   	popa   
 4ea:	72 67                	jb     553 <_init-0x804818d>
 4ec:	63 00                	arpl   WORD PTR [eax],ax
 4ee:	04 23                	add    al,0x23
 4f0:	8f 00                	pop    DWORD PTR [eax]
 4f2:	00 00                	add    BYTE PTR [eax],al
 4f4:	01 50 0e             	add    DWORD PTR [eax+0xe],edx
 4f7:	61                   	popa   
 4f8:	72 67                	jb     561 <_init-0x804817f>
 4fa:	76 00                	jbe    4fc <_init-0x80481e4>
 4fc:	04 23                	add    al,0x23
 4fe:	14 05                	adc    al,0x5
 500:	00 00                	add    BYTE PTR [eax],al
 502:	01 53 0f             	add    DWORD PTR [ebx+0xf],edx
 505:	69 6e 70 75 74 00 04 	imul   ebp,DWORD PTR [esi+0x70],0x4007475
 50c:	25 eb 02 00 00       	and    eax,0x2eb
 511:	01 50 00             	add    DWORD PTR [eax+0x0],edx
 514:	05 04 eb 02 00       	add    eax,0x2eb04
 519:	00 10                	add    BYTE PTR [eax],dl
 51b:	73 69                	jae    586 <_init-0x804815a>
 51d:	7a 65                	jp     584 <_init-0x804815c>
 51f:	5f                   	pop    edi
 520:	74 00                	je     522 <_init-0x80481be>
 522:	05 aa 28 05 00       	add    eax,0x528aa
 527:	00 04 75 6e 73 69 67 	add    BYTE PTR [esi*2+0x6769736e],al
 52e:	6e                   	outs   dx,BYTE PTR ds:[esi]
 52f:	65 64 20 69 6e       	gs and BYTE PTR fs:gs:[ecx+0x6e],ch
 534:	74 00                	je     536 <_init-0x80481aa>
 536:	04 07                	add    al,0x7
 538:	10 5f 5f             	adc    BYTE PTR [edi+0x5f],bl
 53b:	67 6e                	outs   dx,BYTE PTR ds:[si]
 53d:	75 63                	jne    5a2 <_init-0x804813e>
 53f:	5f                   	pop    edi
 540:	76 61                	jbe    5a3 <_init-0x804813d>
 542:	5f                   	pop    edi
 543:	6c                   	ins    BYTE PTR es:[edi],dx
 544:	69 73 74 00 06 49 4e 	imul   esi,DWORD PTR [ebx+0x74],0x4e490600
 54b:	05 00 00 07 04       	add    eax,0x4070000
 550:	10 5f 5f             	adc    BYTE PTR [edi+0x5f],bl
 553:	75 5f                	jne    5b4 <_init-0x804812c>
 555:	63 68 61             	arpl   WORD PTR [eax+0x61],bp
 558:	72 00                	jb     55a <_init-0x8048186>
 55a:	07                   	pop    es
 55b:	20 60 05             	and    BYTE PTR [eax+0x5],ah
 55e:	00 00                	add    BYTE PTR [eax],al
 560:	04 75                	add    al,0x75
 562:	6e                   	outs   dx,BYTE PTR ds:[esi]
 563:	73 69                	jae    5ce <_init-0x8048112>
 565:	67 6e                	outs   dx,BYTE PTR ds:[si]
 567:	65 64 20 63 68       	gs and BYTE PTR fs:gs:[ebx+0x68],ah
 56c:	61                   	popa   
 56d:	72 00                	jb     56f <_init-0x8048171>
 56f:	01 08                	add    DWORD PTR [eax],ecx
 571:	10 5f 5f             	adc    BYTE PTR [edi+0x5f],bl
 574:	75 5f                	jne    5d5 <_init-0x804810b>
 576:	73 68                	jae    5e0 <_init-0x8048100>
 578:	6f                   	outs   dx,DWORD PTR ds:[esi]
 579:	72 74                	jb     5ef <_init-0x80480f1>
 57b:	00 07                	add    BYTE PTR [edi],al
 57d:	21 4b 03             	and    DWORD PTR [ebx+0x3],ecx
 580:	00 00                	add    BYTE PTR [eax],al
 582:	10 5f 5f             	adc    BYTE PTR [edi+0x5f],bl
 585:	75 5f                	jne    5e6 <_init-0x80480fa>
 587:	69 6e 74 00 07 22 28 	imul   ebp,DWORD PTR [esi+0x74],0x28220700
 58e:	05 00 00 10 5f       	add    eax,0x5f100000
 593:	5f                   	pop    edi
 594:	75 5f                	jne    5f5 <_init-0x80480eb>
 596:	6c                   	ins    BYTE PTR es:[edi],dx
 597:	6f                   	outs   dx,DWORD PTR ds:[esi]
 598:	6e                   	outs   dx,BYTE PTR ds:[esi]
 599:	67 00 07             	add    BYTE PTR [bx],al
 59c:	23 a1 05 00 00 04    	and    esp,DWORD PTR [ecx+0x4000005]
 5a2:	6c                   	ins    BYTE PTR es:[edi],dx
 5a3:	6f                   	outs   dx,DWORD PTR ds:[esi]
 5a4:	6e                   	outs   dx,BYTE PTR ds:[esi]
 5a5:	67 20 75 6e          	and    BYTE PTR [di+0x6e],dh
 5a9:	73 69                	jae    614 <_init-0x80480cc>
 5ab:	67 6e                	outs   dx,BYTE PTR ds:[si]
 5ad:	65 64 20 69 6e       	gs and BYTE PTR fs:gs:[ecx+0x6e],ch
 5b2:	74 00                	je     5b4 <_init-0x804812c>
 5b4:	04 07                	add    al,0x7
 5b6:	10 5f 5f             	adc    BYTE PTR [edi+0x5f],bl
 5b9:	75 5f                	jne    61a <_init-0x80480c6>
 5bb:	71 75                	jno    632 <_init-0x80480ae>
 5bd:	61                   	popa   
 5be:	64                   	fs
 5bf:	5f                   	pop    edi
 5c0:	74 00                	je     5c2 <_init-0x804811e>
 5c2:	07                   	pop    es
 5c3:	25 c8 05 00 00       	and    eax,0x5c8
 5c8:	04 6c                	add    al,0x6c
 5ca:	6f                   	outs   dx,DWORD PTR ds:[esi]
 5cb:	6e                   	outs   dx,BYTE PTR ds:[esi]
 5cc:	67 20 6c 6f          	and    BYTE PTR [si+0x6f],ch
 5d0:	6e                   	outs   dx,BYTE PTR ds:[esi]
 5d1:	67 20 75 6e          	and    BYTE PTR [di+0x6e],dh
 5d5:	73 69                	jae    640 <_init-0x80480a0>
 5d7:	67 6e                	outs   dx,BYTE PTR ds:[si]
 5d9:	65 64 20 69 6e       	gs and BYTE PTR fs:gs:[ecx+0x6e],ch
 5de:	74 00                	je     5e0 <_init-0x8048100>
 5e0:	08 07                	or     BYTE PTR [edi],al
 5e2:	10 5f 5f             	adc    BYTE PTR [edi+0x5f],bl
 5e5:	71 75                	jno    65c <_init-0x8048084>
 5e7:	61                   	popa   
 5e8:	64                   	fs
 5e9:	5f                   	pop    edi
 5ea:	74 00                	je     5ec <_init-0x80480f4>
 5ec:	07                   	pop    es
 5ed:	26                   	es
 5ee:	f2 05 00 00 04 6c    	repnz add eax,0x6c040000
 5f4:	6f                   	outs   dx,DWORD PTR ds:[esi]
 5f5:	6e                   	outs   dx,BYTE PTR ds:[esi]
 5f6:	67 20 6c 6f          	and    BYTE PTR [si+0x6f],ch
 5fa:	6e                   	outs   dx,BYTE PTR ds:[esi]
 5fb:	67 20 69 6e          	and    BYTE PTR [bx+di+0x6e],ch
 5ff:	74 00                	je     601 <_init-0x80480df>
 601:	08 05 10 5f 5f 69    	or     BYTE PTR ds:0x695f5f10,al
 607:	6e                   	outs   dx,BYTE PTR ds:[esi]
 608:	74 38                	je     642 <_init-0x804809e>
 60a:	5f                   	pop    edi
 60b:	74 00                	je     60d <_init-0x80480d3>
 60d:	07                   	pop    es
 60e:	31 61 03             	xor    DWORD PTR [ecx+0x3],esp
 611:	00 00                	add    BYTE PTR [eax],al
 613:	10 5f 5f             	adc    BYTE PTR [edi+0x5f],bl
 616:	75 69                	jne    681 <_init-0x804805f>
 618:	6e                   	outs   dx,BYTE PTR ds:[esi]
 619:	74 38                	je     653 <_init-0x804808d>
 61b:	5f                   	pop    edi
 61c:	74 00                	je     61e <_init-0x80480c2>
 61e:	07                   	pop    es
 61f:	32 60 05             	xor    ah,BYTE PTR [eax+0x5]
 622:	00 00                	add    BYTE PTR [eax],al
 624:	10 5f 5f             	adc    BYTE PTR [edi+0x5f],bl
 627:	69 6e 74 31 36 5f 74 	imul   ebp,DWORD PTR [esi+0x74],0x745f3631
 62e:	00 07                	add    BYTE PTR [edi],al
 630:	33 35 06 00 00 04    	xor    esi,DWORD PTR ds:0x4000006
 636:	73 68                	jae    6a0 <_init-0x8048040>
 638:	6f                   	outs   dx,DWORD PTR ds:[esi]
 639:	72 74                	jb     6af <_init-0x8048031>
 63b:	20 69 6e             	and    BYTE PTR [ecx+0x6e],ch
 63e:	74 00                	je     640 <_init-0x80480a0>
 640:	02 05 10 5f 5f 75    	add    al,BYTE PTR ds:0x755f5f10
 646:	69 6e 74 31 36 5f 74 	imul   ebp,DWORD PTR [esi+0x74],0x745f3631
 64d:	00 07                	add    BYTE PTR [edi],al
 64f:	34 4b                	xor    al,0x4b
 651:	03 00                	add    eax,DWORD PTR [eax]
 653:	00 10                	add    BYTE PTR [eax],dl
 655:	5f                   	pop    edi
 656:	5f                   	pop    edi
 657:	69 6e 74 33 32 5f 74 	imul   ebp,DWORD PTR [esi+0x74],0x745f3233
 65e:	00 07                	add    BYTE PTR [edi],al
 660:	35 8f 00 00 00       	xor    eax,0x8f
 665:	10 5f 5f             	adc    BYTE PTR [edi+0x5f],bl
 668:	75 69                	jne    6d3 <_init-0x804800d>
 66a:	6e                   	outs   dx,BYTE PTR ds:[esi]
 66b:	74 33                	je     6a0 <_init-0x8048040>
 66d:	32 5f 74             	xor    bl,BYTE PTR [edi+0x74]
 670:	00 07                	add    BYTE PTR [edi],al
 672:	36 28 05 00 00 10 5f 	sub    BYTE PTR ss:0x5f100000,al
 679:	5f                   	pop    edi
 67a:	69 6e 74 36 34 5f 74 	imul   ebp,DWORD PTR [esi+0x74],0x745f3436
 681:	00 07                	add    BYTE PTR [edi],al
 683:	38 f2                	cmp    dl,dh
 685:	05 00 00 10 5f       	add    eax,0x5f100000
 68a:	5f                   	pop    edi
 68b:	75 69                	jne    6f6 <_init-0x8047fea>
 68d:	6e                   	outs   dx,BYTE PTR ds:[esi]
 68e:	74 36                	je     6c6 <_init-0x804801a>
 690:	34 5f                	xor    al,0x5f
 692:	74 00                	je     694 <_init-0x804804c>
 694:	07                   	pop    es
 695:	39 c8                	cmp    eax,ecx
 697:	05 00 00 10 5f       	add    eax,0x5f100000
 69c:	5f                   	pop    edi
 69d:	71 61                	jno    700 <_init-0x8047fe0>
 69f:	64                   	fs
 6a0:	64                   	fs
 6a1:	72 5f                	jb     702 <_init-0x8047fde>
 6a3:	74 00                	je     6a5 <_init-0x804803b>
 6a5:	07                   	pop    es
 6a6:	3b ab 06 00 00 05    	cmp    ebp,DWORD PTR [ebx+0x5000006]
 6ac:	04 e2                	add    al,0xe2
 6ae:	05 00 00 10 5f       	add    eax,0x5f100000
 6b3:	5f                   	pop    edi
 6b4:	64                   	fs
 6b5:	65                   	gs
 6b6:	76 5f                	jbe    717 <_init-0x8047fc9>
 6b8:	74 00                	je     6ba <_init-0x8048026>
 6ba:	07                   	pop    es
 6bb:	3d b6 05 00 00       	cmp    eax,0x5b6
 6c0:	10 5f 5f             	adc    BYTE PTR [edi+0x5f],bl
 6c3:	75 69                	jne    72e <_init-0x8047fb2>
 6c5:	64                   	fs
 6c6:	5f                   	pop    edi
 6c7:	74 00                	je     6c9 <_init-0x8048017>
 6c9:	07                   	pop    es
 6ca:	3e                   	ds
 6cb:	82                   	(bad)  
 6cc:	05 00 00 10 5f       	add    eax,0x5f100000
 6d1:	5f                   	pop    edi
 6d2:	67 69 64 5f 74 00 07 	imul   esp,DWORD PTR [si+0x5f],0x3f070074
 6d9:	3f 
 6da:	82                   	(bad)  
 6db:	05 00 00 10 5f       	add    eax,0x5f100000
 6e0:	5f                   	pop    edi
 6e1:	69 6e 6f 5f 74 00 07 	imul   ebp,DWORD PTR [esi+0x6f],0x700745f
 6e8:	40                   	inc    eax
 6e9:	91                   	xchg   ecx,eax
 6ea:	05 00 00 10 5f       	add    eax,0x5f100000
 6ef:	5f                   	pop    edi
 6f0:	6d                   	ins    DWORD PTR es:[edi],dx
 6f1:	6f                   	outs   dx,DWORD PTR ds:[esi]
 6f2:	64                   	fs
 6f3:	65                   	gs
 6f4:	5f                   	pop    edi
 6f5:	74 00                	je     6f7 <_init-0x8047fe9>
 6f7:	07                   	pop    es
 6f8:	41                   	inc    ecx
 6f9:	82                   	(bad)  
 6fa:	05 00 00 10 5f       	add    eax,0x5f100000
 6ff:	5f                   	pop    edi
 700:	6e                   	outs   dx,BYTE PTR ds:[esi]
 701:	6c                   	ins    BYTE PTR es:[edi],dx
 702:	69 6e 6b 5f 74 00 07 	imul   ebp,DWORD PTR [esi+0x6b],0x700745f
 709:	42                   	inc    edx
 70a:	82                   	(bad)  
 70b:	05 00 00 10 5f       	add    eax,0x5f100000
 710:	5f                   	pop    edi
 711:	6f                   	outs   dx,DWORD PTR ds:[esi]
 712:	66 66 5f             	data32 pop di
 715:	74 00                	je     717 <_init-0x8047fc9>
 717:	07                   	pop    es
 718:	43                   	inc    ebx
 719:	1d 07 00 00 04       	sbb    eax,0x4000007
 71e:	6c                   	ins    BYTE PTR es:[edi],dx
 71f:	6f                   	outs   dx,DWORD PTR ds:[esi]
 720:	6e                   	outs   dx,BYTE PTR ds:[esi]
 721:	67 20 69 6e          	and    BYTE PTR [bx+di+0x6e],ch
 725:	74 00                	je     727 <_init-0x8047fb9>
 727:	04 05                	add    al,0x5
 729:	10 5f 5f             	adc    BYTE PTR [edi+0x5f],bl
 72c:	6c                   	ins    BYTE PTR es:[edi],dx
 72d:	6f                   	outs   dx,DWORD PTR ds:[esi]
 72e:	66 66 5f             	data32 pop di
 731:	74 00                	je     733 <_init-0x8047fad>
 733:	07                   	pop    es
 734:	44                   	inc    esp
 735:	e2 05                	loop   73c <_init-0x8047fa4>
 737:	00 00                	add    BYTE PTR [eax],al
 739:	10 5f 5f             	adc    BYTE PTR [edi+0x5f],bl
 73c:	70 69                	jo     7a7 <_init-0x8047f39>
 73e:	64                   	fs
 73f:	5f                   	pop    edi
 740:	74 00                	je     742 <_init-0x8047f9e>
 742:	07                   	pop    es
 743:	45                   	inc    ebp
 744:	8f 00                	pop    DWORD PTR [eax]
 746:	00 00                	add    BYTE PTR [eax],al
 748:	10 5f 5f             	adc    BYTE PTR [edi+0x5f],bl
 74b:	73 73                	jae    7c0 <_init-0x8047f20>
 74d:	69 7a 65 5f 74 00 07 	imul   edi,DWORD PTR [edx+0x65],0x700745f
 754:	46                   	inc    esi
 755:	8f 00                	pop    DWORD PTR [eax]
 757:	00 00                	add    BYTE PTR [eax],al
 759:	10 5f 5f             	adc    BYTE PTR [edi+0x5f],bl
 75c:	72 6c                	jb     7ca <_init-0x8047f16>
 75e:	69 6d 5f 74 00 07 47 	imul   ebp,DWORD PTR [ebp+0x5f],0x47070074
 765:	1d 07 00 00 10       	sbb    eax,0x10000007
 76a:	5f                   	pop    edi
 76b:	5f                   	pop    edi
 76c:	72 6c                	jb     7da <_init-0x8047f06>
 76e:	69 6d 36 34 5f 74 00 	imul   ebp,DWORD PTR [ebp+0x36],0x745f34
 775:	07                   	pop    es
 776:	48                   	dec    eax
 777:	e2 05                	loop   77e <_init-0x8047f62>
 779:	00 00                	add    BYTE PTR [eax],al
 77b:	10 5f 5f             	adc    BYTE PTR [edi+0x5f],bl
 77e:	69 64 5f 74 00 07 49 	imul   esp,DWORD PTR [edi+ebx*2+0x74],0x82490700
 785:	82 
 786:	05 00 00 11 a2       	add    eax,0xa2110000
 78b:	07                   	pop    es
 78c:	00 00                	add    BYTE PTR [eax],al
 78e:	08 07                	or     BYTE PTR [edi],al
 790:	4e                   	dec    esi
 791:	0a 5f 5f             	or     bl,BYTE PTR [edi+0x5f]
 794:	76 61                	jbe    7f7 <_init-0x8047ee9>
 796:	6c                   	ins    BYTE PTR es:[edi],dx
 797:	00 07                	add    BYTE PTR [edi],al
 799:	4d                   	dec    ebp
 79a:	a2 07 00 00 02       	mov    ds:0x2000007,al
 79f:	23 00                	and    eax,DWORD PTR [eax]
 7a1:	00 0b                	add    BYTE PTR [ebx],cl
 7a3:	ae                   	scas   al,BYTE PTR es:[edi]
 7a4:	07                   	pop    es
 7a5:	00 00                	add    BYTE PTR [eax],al
 7a7:	8f 00                	pop    DWORD PTR [eax]
 7a9:	00 00                	add    BYTE PTR [eax],al
 7ab:	0c 01                	or     al,0x1
 7ad:	00 10                	add    BYTE PTR [eax],dl
 7af:	5f                   	pop    edi
 7b0:	5f                   	pop    edi
 7b1:	66                   	data16
 7b2:	73 69                	jae    81d <_init-0x8047ec3>
 7b4:	64                   	fs
 7b5:	5f                   	pop    edi
 7b6:	74 00                	je     7b8 <_init-0x8047f28>
 7b8:	07                   	pop    es
 7b9:	4e                   	dec    esi
 7ba:	89 07                	mov    DWORD PTR [edi],eax
 7bc:	00 00                	add    BYTE PTR [eax],al
 7be:	10 5f 5f             	adc    BYTE PTR [edi+0x5f],bl
 7c1:	64                   	fs
 7c2:	61                   	popa   
 7c3:	64                   	fs
 7c4:	64                   	fs
 7c5:	72 5f                	jb     826 <_init-0x8047eba>
 7c7:	74 00                	je     7c9 <_init-0x8047f17>
 7c9:	07                   	pop    es
 7ca:	51                   	push   ecx
 7cb:	8f 00                	pop    DWORD PTR [eax]
 7cd:	00 00                	add    BYTE PTR [eax],al
 7cf:	10 5f 5f             	adc    BYTE PTR [edi+0x5f],bl
 7d2:	63 61 64             	arpl   WORD PTR [ecx+0x64],sp
 7d5:	64                   	fs
 7d6:	72 5f                	jb     837 <_init-0x8047ea9>
 7d8:	74 00                	je     7da <_init-0x8047f06>
 7da:	07                   	pop    es
 7db:	52                   	push   edx
 7dc:	eb 02                	jmp    7e0 <_init-0x8047f00>
 7de:	00 00                	add    BYTE PTR [eax],al
 7e0:	10 5f 5f             	adc    BYTE PTR [edi+0x5f],bl
 7e3:	74 69                	je     84e <_init-0x8047e92>
 7e5:	6d                   	ins    DWORD PTR es:[edi],dx
 7e6:	65                   	gs
 7e7:	5f                   	pop    edi
 7e8:	74 00                	je     7ea <_init-0x8047ef6>
 7ea:	07                   	pop    es
 7eb:	53                   	push   ebx
 7ec:	1d 07 00 00 10       	sbb    eax,0x10000007
 7f1:	5f                   	pop    edi
 7f2:	5f                   	pop    edi
 7f3:	73 77                	jae    86c <_init-0x8047e74>
 7f5:	62 6c 6b 5f          	bound  ebp,QWORD PTR [ebx+ebp*2+0x5f]
 7f9:	74 00                	je     7fb <_init-0x8047ee5>
 7fb:	07                   	pop    es
 7fc:	54                   	push   esp
 7fd:	1d 07 00 00 10       	sbb    eax,0x10000007
 802:	5f                   	pop    edi
 803:	5f                   	pop    edi
 804:	63 6c 6f 63          	arpl   WORD PTR [edi+ebp*2+0x63],bp
 808:	6b 5f 74 00          	imul   ebx,DWORD PTR [edi+0x74],0x0
 80c:	07                   	pop    es
 80d:	56                   	push   esi
 80e:	1d 07 00 00 10       	sbb    eax,0x10000007
 813:	5f                   	pop    edi
 814:	5f                   	pop    edi
 815:	66                   	data16
 816:	64                   	fs
 817:	5f                   	pop    edi
 818:	6d                   	ins    DWORD PTR es:[edi],dx
 819:	61                   	popa   
 81a:	73 6b                	jae    887 <_init-0x8047e59>
 81c:	00 07                	add    BYTE PTR [edi],al
 81e:	59                   	pop    ecx
 81f:	a1 05 00 00 11       	mov    eax,ds:0x11000005
 824:	41                   	inc    ecx
 825:	08 00                	or     BYTE PTR [eax],al
 827:	00 80 07 6f 0a 5f    	add    BYTE PTR [eax+0x5f0a6f07],al
 82d:	5f                   	pop    edi
 82e:	66                   	data16
 82f:	64                   	fs
 830:	73 5f                	jae    891 <_init-0x8047e4f>
 832:	62 69 74             	bound  ebp,QWORD PTR [ecx+0x74]
 835:	73 00                	jae    837 <_init-0x8047ea9>
 837:	07                   	pop    es
 838:	6c                   	ins    BYTE PTR es:[edi],dx
 839:	41                   	inc    ecx
 83a:	08 00                	or     BYTE PTR [eax],al
 83c:	00 02                	add    BYTE PTR [edx],al
 83e:	23 00                	and    eax,DWORD PTR [eax]
 840:	00 0b                	add    BYTE PTR [ebx],cl
 842:	4d                   	dec    ebp
 843:	08 00                	or     BYTE PTR [eax],al
 845:	00 12                	add    BYTE PTR [edx],dl
 847:	08 00                	or     BYTE PTR [eax],al
 849:	00 0c 1f             	add    BYTE PTR [edi+ebx*1],cl
 84c:	00 10                	add    BYTE PTR [eax],dl
 84e:	5f                   	pop    edi
 84f:	5f                   	pop    edi
 850:	66                   	data16
 851:	64                   	fs
 852:	5f                   	pop    edi
 853:	73 65                	jae    8ba <_init-0x8047e26>
 855:	74 00                	je     857 <_init-0x8047e89>
 857:	07                   	pop    es
 858:	6f                   	outs   dx,DWORD PTR ds:[esi]
 859:	23 08                	and    ecx,DWORD PTR [eax]
 85b:	00 00                	add    BYTE PTR [eax],al
 85d:	10 5f 5f             	adc    BYTE PTR [edi+0x5f],bl
 860:	6b 65 79 5f          	imul   esp,DWORD PTR [ebp+0x79],0x5f
 864:	74 00                	je     866 <_init-0x8047e7a>
 866:	07                   	pop    es
 867:	72 8f                	jb     7f8 <_init-0x8047ee8>
 869:	00 00                	add    BYTE PTR [eax],al
 86b:	00 10                	add    BYTE PTR [eax],dl
 86d:	5f                   	pop    edi
 86e:	5f                   	pop    edi
 86f:	69 70 63 5f 70 69 64 	imul   esi,DWORD PTR [eax+0x63],0x6469705f
 876:	5f                   	pop    edi
 877:	74 00                	je     879 <_init-0x8047e67>
 879:	07                   	pop    es
 87a:	75 4b                	jne    8c7 <_init-0x8047e19>
 87c:	03 00                	add    eax,DWORD PTR [eax]
 87e:	00 10                	add    BYTE PTR [eax],dl
 880:	5f                   	pop    edi
 881:	5f                   	pop    edi
 882:	62 6c 6b 63          	bound  ebp,QWORD PTR [ebx+ebp*2+0x63]
 886:	6e                   	outs   dx,BYTE PTR ds:[esi]
 887:	74 5f                	je     8e8 <_init-0x8047df8>
 889:	74 00                	je     88b <_init-0x8047e55>
 88b:	07                   	pop    es
 88c:	7b 1d                	jnp    8ab <_init-0x8047e35>
 88e:	07                   	pop    es
 88f:	00 00                	add    BYTE PTR [eax],al
 891:	10 5f 5f             	adc    BYTE PTR [edi+0x5f],bl
 894:	62 6c 6b 63          	bound  ebp,QWORD PTR [ebx+ebp*2+0x63]
 898:	6e                   	outs   dx,BYTE PTR ds:[esi]
 899:	74 36                	je     8d1 <_init-0x8047e0f>
 89b:	34 5f                	xor    al,0x5f
 89d:	74 00                	je     89f <_init-0x8047e41>
 89f:	07                   	pop    es
 8a0:	7c e2                	jl     884 <_init-0x8047e5c>
 8a2:	05 00 00 10 5f       	add    eax,0x5f100000
 8a7:	5f                   	pop    edi
 8a8:	66                   	data16
 8a9:	73 62                	jae    90d <_init-0x8047dd3>
 8ab:	6c                   	ins    BYTE PTR es:[edi],dx
 8ac:	6b 63 6e 74          	imul   esp,DWORD PTR [ebx+0x6e],0x74
 8b0:	5f                   	pop    edi
 8b1:	74 00                	je     8b3 <_init-0x8047e2d>
 8b3:	07                   	pop    es
 8b4:	7f 91                	jg     847 <_init-0x8047e99>
 8b6:	05 00 00 10 5f       	add    eax,0x5f100000
 8bb:	5f                   	pop    edi
 8bc:	66                   	data16
 8bd:	73 62                	jae    921 <_init-0x8047dbf>
 8bf:	6c                   	ins    BYTE PTR es:[edi],dx
 8c0:	6b 63 6e 74          	imul   esp,DWORD PTR [ebx+0x6e],0x74
 8c4:	36                   	ss
 8c5:	34 5f                	xor    al,0x5f
 8c7:	74 00                	je     8c9 <_init-0x8047e17>
 8c9:	07                   	pop    es
 8ca:	80 b6 05 00 00 10 5f 	xor    BYTE PTR [esi+0x10000005],0x5f
 8d1:	5f                   	pop    edi
 8d2:	66                   	data16
 8d3:	73 66                	jae    93b <_init-0x8047da5>
 8d5:	69 6c 63 6e 74 5f 74 	imul   ebp,DWORD PTR [ebx+eiz*2+0x6e],0x745f74
 8dc:	00 
 8dd:	07                   	pop    es
 8de:	83 91 05 00 00 10 5f 	adc    DWORD PTR [ecx+0x10000005],0x5f
 8e5:	5f                   	pop    edi
 8e6:	66                   	data16
 8e7:	73 66                	jae    94f <_init-0x8047d91>
 8e9:	69 6c 63 6e 74 36 34 	imul   ebp,DWORD PTR [ebx+eiz*2+0x6e],0x5f343674
 8f0:	5f 
 8f1:	74 00                	je     8f3 <_init-0x8047ded>
 8f3:	07                   	pop    es
 8f4:	84 b6 05 00 00 10    	test   BYTE PTR [esi+0x10000005],dh
 8fa:	5f                   	pop    edi
 8fb:	5f                   	pop    edi
 8fc:	69 6e 6f 36 34 5f 74 	imul   ebp,DWORD PTR [esi+0x6f],0x745f3436
 903:	00 07                	add    BYTE PTR [edi],al
 905:	87 91 05 00 00 10    	xchg   DWORD PTR [ecx+0x10000005],edx
 90b:	5f                   	pop    edi
 90c:	5f                   	pop    edi
 90d:	6f                   	outs   dx,DWORD PTR ds:[esi]
 90e:	66                   	data16
 90f:	66                   	data16
 910:	36                   	ss
 911:	34 5f                	xor    al,0x5f
 913:	74 00                	je     915 <_init-0x8047dcb>
 915:	07                   	pop    es
 916:	8a 29                	mov    ch,BYTE PTR [ecx]
 918:	07                   	pop    es
 919:	00 00                	add    BYTE PTR [eax],al
 91b:	10 5f 5f             	adc    BYTE PTR [edi+0x5f],bl
 91e:	74 5f                	je     97f <_init-0x8047d61>
 920:	73 63                	jae    985 <_init-0x8047d5b>
 922:	61                   	popa   
 923:	6c                   	ins    BYTE PTR es:[edi],dx
 924:	61                   	popa   
 925:	72 5f                	jb     986 <_init-0x8047d5a>
 927:	74 00                	je     929 <_init-0x8047db7>
 929:	07                   	pop    es
 92a:	8d 1d 07 00 00 10    	lea    ebx,ds:0x10000007
 930:	5f                   	pop    edi
 931:	5f                   	pop    edi
 932:	74 5f                	je     993 <_init-0x8047d4d>
 934:	75 73                	jne    9a9 <_init-0x8047d37>
 936:	63 61 6c             	arpl   WORD PTR [ecx+0x6c],sp
 939:	61                   	popa   
 93a:	72 5f                	jb     99b <_init-0x8047d45>
 93c:	74 00                	je     93e <_init-0x8047da2>
 93e:	07                   	pop    es
 93f:	8e a1 05 00 00 10    	mov    fs,WORD PTR [ecx+0x10000005]
 945:	5f                   	pop    edi
 946:	5f                   	pop    edi
 947:	69 6e 74 70 74 72 5f 	imul   ebp,DWORD PTR [esi+0x74],0x5f727470
 94e:	74 00                	je     950 <_init-0x8047d90>
 950:	07                   	pop    es
 951:	91                   	xchg   ecx,eax
 952:	8f 00                	pop    DWORD PTR [eax]
 954:	00 00                	add    BYTE PTR [eax],al
 956:	10 46 49             	adc    BYTE PTR [esi+0x49],al
 959:	4c                   	dec    esp
 95a:	45                   	inc    ebp
 95b:	00 02                	add    BYTE PTR [edx],al
 95d:	30 e6                	xor    dh,ah
 95f:	00 00                	add    BYTE PTR [eax],al
 961:	00 10                	add    BYTE PTR [eax],dl
 963:	77 63                	ja     9c8 <_init-0x8047d18>
 965:	68 61 72 5f 74       	push   0x745f7261
 96a:	00 05 ff 1d 07 00    	add    BYTE PTR ds:0x71dff,al
 970:	00 12                	add    BYTE PTR [edx],dl
 972:	77 69                	ja     9dd <_init-0x8047d03>
 974:	6e                   	outs   dx,BYTE PTR ds:[esi]
 975:	74 5f                	je     9d6 <_init-0x8047d0a>
 977:	74 00                	je     979 <_init-0x8047d67>
 979:	05 18 01 28 05       	add    eax,0x5280118
 97e:	00 00                	add    BYTE PTR [eax],al
 980:	10 5f 47             	adc    BYTE PTR [edi+0x47],bl
 983:	5f                   	pop    edi
 984:	69 6e 74 31 36 5f 74 	imul   ebp,DWORD PTR [esi+0x74],0x745f3631
 98b:	00 08                	add    BYTE PTR [eax],cl
 98d:	23 35 06 00 00 10    	and    esi,DWORD PTR ds:0x10000006
 993:	5f                   	pop    edi
 994:	47                   	inc    edi
 995:	5f                   	pop    edi
 996:	69 6e 74 33 32 5f 74 	imul   ebp,DWORD PTR [esi+0x74],0x745f3233
 99d:	00 08                	add    BYTE PTR [eax],cl
 99f:	24 8f                	and    al,0x8f
 9a1:	00 00                	add    BYTE PTR [eax],al
 9a3:	00 10                	add    BYTE PTR [eax],dl
 9a5:	5f                   	pop    edi
 9a6:	47                   	inc    edi
 9a7:	5f                   	pop    edi
 9a8:	75 69                	jne    a13 <_init-0x8047ccd>
 9aa:	6e                   	outs   dx,BYTE PTR ds:[esi]
 9ab:	74 31                	je     9de <_init-0x8047d02>
 9ad:	36                   	ss
 9ae:	5f                   	pop    edi
 9af:	74 00                	je     9b1 <_init-0x8047d2f>
 9b1:	08 25 4b 03 00 00    	or     BYTE PTR ds:0x34b,ah
 9b7:	10 5f 47             	adc    BYTE PTR [edi+0x47],bl
 9ba:	5f                   	pop    edi
 9bb:	75 69                	jne    a26 <_init-0x8047cba>
 9bd:	6e                   	outs   dx,BYTE PTR ds:[esi]
 9be:	74 33                	je     9f3 <_init-0x8047ced>
 9c0:	32 5f 74             	xor    bl,BYTE PTR [edi+0x74]
 9c3:	00 08                	add    BYTE PTR [eax],cl
 9c5:	26 28 05 00 00 13 5f 	sub    BYTE PTR es:0x5f130000,al
 9cc:	49                   	dec    ecx
 9cd:	4f                   	dec    edi
 9ce:	5f                   	pop    edi
 9cf:	6a 75                	push   0x75
 9d1:	6d                   	ins    DWORD PTR es:[edi],dx
 9d2:	70 5f                	jo     a33 <_init-0x8047cad>
 9d4:	74 00                	je     9d6 <_init-0x8047d0a>
 9d6:	01 14 5f             	add    DWORD PTR [edi+ebx*2],edx
 9d9:	49                   	dec    ecx
 9da:	4f                   	dec    edi
 9db:	5f                   	pop    edi
 9dc:	6c                   	ins    BYTE PTR es:[edi],dx
 9dd:	6f                   	outs   dx,DWORD PTR ds:[esi]
 9de:	63 6b 5f             	arpl   WORD PTR [ebx+0x5f],bp
 9e1:	74 00                	je     9e3 <_init-0x8047cfd>
 9e3:	03 a4 10 5f 49 4f 5f 	add    esp,DWORD PTR [eax+edx*1+0x5f4f495f]
 9ea:	46                   	inc    esi
 9eb:	49                   	dec    ecx
 9ec:	4c                   	dec    esp
 9ed:	45                   	inc    ebp
 9ee:	00 03                	add    BYTE PTR [ebx],al
 9f0:	f0 e6 00             	lock out 0x0,al
 9f3:	00 00                	add    BYTE PTR [eax],al
 9f5:	13 5f 49             	adc    ebx,DWORD PTR [edi+0x49]
 9f8:	4f                   	dec    edi
 9f9:	5f                   	pop    edi
 9fa:	46                   	inc    esi
 9fb:	49                   	dec    ecx
 9fc:	4c                   	dec    esp
 9fd:	45                   	inc    ebp
 9fe:	5f                   	pop    edi
 9ff:	70 6c                	jo     a6d <_init-0x8047c73>
 a01:	75 73                	jne    a76 <_init-0x8047c6a>
 a03:	00 01                	add    BYTE PTR [ecx],al
 a05:	12 5f 5f             	adc    bl,BYTE PTR [edi+0x5f]
 a08:	69 6f 5f 72 65 61 64 	imul   ebp,DWORD PTR [edi+0x5f],0x64616572
 a0f:	5f                   	pop    edi
 a10:	66                   	data16
 a11:	6e                   	outs   dx,BYTE PTR ds:[esi]
 a12:	00 03                	add    BYTE PTR [ebx],al
 a14:	07                   	pop    es
 a15:	01 1a                	add    DWORD PTR [edx],ebx
 a17:	0a 00                	or     al,BYTE PTR [eax]
 a19:	00 15 34 0a 00 00    	add    BYTE PTR ds:0xa34,dl
 a1f:	01 48 07             	add    DWORD PTR [eax+0x7],ecx
 a22:	00 00                	add    BYTE PTR [eax],al
 a24:	16                   	push   ss
 a25:	4e                   	dec    esi
 a26:	05 00 00 16 eb       	add    eax,0xeb160000
 a2b:	02 00                	add    al,BYTE PTR [eax]
 a2d:	00 16                	add    BYTE PTR [esi],dl
 a2f:	1a 05 00 00 00 12    	sbb    al,BYTE PTR ds:0x12000000
 a35:	5f                   	pop    edi
 a36:	5f                   	pop    edi
 a37:	69 6f 5f 77 72 69 74 	imul   ebp,DWORD PTR [edi+0x5f],0x74697277
 a3e:	65                   	gs
 a3f:	5f                   	pop    edi
 a40:	66                   	data16
 a41:	6e                   	outs   dx,BYTE PTR ds:[esi]
 a42:	00 03                	add    BYTE PTR [ebx],al
 a44:	10 01                	adc    BYTE PTR [ecx],al
 a46:	4a                   	dec    edx
 a47:	0a 00                	or     al,BYTE PTR [eax]
 a49:	00 15 64 0a 00 00    	add    BYTE PTR ds:0xa64,dl
 a4f:	01 48 07             	add    DWORD PTR [eax+0x7],ecx
 a52:	00 00                	add    BYTE PTR [eax],al
 a54:	16                   	push   ss
 a55:	4e                   	dec    esi
 a56:	05 00 00 16 96       	add    eax,0x96160000
 a5b:	00 00                	add    BYTE PTR [eax],al
 a5d:	00 16                	add    BYTE PTR [esi],dl
 a5f:	1a 05 00 00 00 12    	sbb    al,BYTE PTR ds:0x12000000
 a65:	5f                   	pop    edi
 a66:	5f                   	pop    edi
 a67:	69 6f 5f 73 65 65 6b 	imul   ebp,DWORD PTR [edi+0x5f],0x6b656573
 a6e:	5f                   	pop    edi
 a6f:	66                   	data16
 a70:	6e                   	outs   dx,BYTE PTR ds:[esi]
 a71:	00 03                	add    BYTE PTR [ebx],al
 a73:	18 01                	sbb    BYTE PTR [ecx],al
 a75:	79 0a                	jns    a81 <_init-0x8047c5f>
 a77:	00 00                	add    BYTE PTR [eax],al
 a79:	15 93 0a 00 00       	adc    eax,0xa93
 a7e:	01 8f 00 00 00 16    	add    DWORD PTR [edi+0x16000000],ecx
 a84:	4e                   	dec    esi
 a85:	05 00 00 16 0e       	add    eax,0xe160000
 a8a:	07                   	pop    es
 a8b:	00 00                	add    BYTE PTR [eax],al
 a8d:	16                   	push   ss
 a8e:	8f 00                	pop    DWORD PTR [eax]
 a90:	00 00                	add    BYTE PTR [eax],al
 a92:	00 12                	add    BYTE PTR [edx],dl
 a94:	5f                   	pop    edi
 a95:	5f                   	pop    edi
 a96:	69 6f 5f 63 6c 6f 73 	imul   ebp,DWORD PTR [edi+0x5f],0x736f6c63
 a9d:	65                   	gs
 a9e:	5f                   	pop    edi
 a9f:	66                   	data16
 aa0:	6e                   	outs   dx,BYTE PTR ds:[esi]
 aa1:	00 03                	add    BYTE PTR [ebx],al
 aa3:	1b 01                	sbb    eax,DWORD PTR [ecx]
 aa5:	a9 0a 00 00 15       	test   eax,0x1500000a
 aaa:	b9 0a 00 00 01       	mov    ecx,0x100000a
 aaf:	8f 00                	pop    DWORD PTR [eax]
 ab1:	00 00                	add    BYTE PTR [eax],al
 ab3:	16                   	push   ss
 ab4:	4e                   	dec    esi
 ab5:	05 00 00 00 10       	add    eax,0x10000000
 aba:	66                   	data16
 abb:	70 6f                	jo     b2c <_init-0x8047bb4>
 abd:	73 5f                	jae    b1e <_init-0x8047bc2>
 abf:	74 00                	je     ac1 <_init-0x8047c1f>
 ac1:	02 3d 0e 07 00 00    	add    bh,BYTE PTR ds:0x70e
 ac7:	17                   	pop    ss
 ac8:	73 74                	jae    b3e <_init-0x8047ba2>
 aca:	64 69 6e 00 02 72 e5 	imul   ebp,DWORD PTR fs:[esi+0x0],0x2e57202
 ad1:	02 
 ad2:	00 00                	add    BYTE PTR [eax],al
 ad4:	01 01                	add    DWORD PTR [ecx],eax
 ad6:	17                   	pop    ss
 ad7:	73 74                	jae    b4d <_init-0x8047b93>
 ad9:	64 6f                	outs   dx,DWORD PTR fs:[esi]
 adb:	75 74                	jne    b51 <_init-0x8047b8f>
 add:	00 02                	add    BYTE PTR [edx],al
 adf:	73 e5                	jae    ac6 <_init-0x8047c1a>
 ae1:	02 00                	add    al,BYTE PTR [eax]
 ae3:	00 01                	add    BYTE PTR [ecx],al
 ae5:	01 12                	add    DWORD PTR [edx],edx
 ae7:	6f                   	outs   dx,DWORD PTR ds:[esi]
 ae8:	66 66 5f             	data32 pop di
 aeb:	74 00                	je     aed <_init-0x8047bf3>
 aed:	02 dd                	add    bl,ch
 aef:	01 0e                	add    DWORD PTR [esi],ecx
 af1:	07                   	pop    es
 af2:	00 00                	add    BYTE PTR [eax],al
 af4:	09 37                	or     DWORD PTR [edi],esi
 af6:	0b 00                	or     eax,DWORD PTR [eax]
 af8:	00 6e 6f             	add    BYTE PTR [esi+0x6f],ch
 afb:	64                   	fs
 afc:	65                   	gs
 afd:	53                   	push   ebx
 afe:	74 72                	je     b72 <_init-0x8047b6e>
 b00:	75 63                	jne    b65 <_init-0x8047b7b>
 b02:	74 00                	je     b04 <_init-0x8047bdc>
 b04:	0c 09                	or     al,0x9
 b06:	0c 0a                	or     al,0xa
 b08:	76 61                	jbe    b6b <_init-0x8047b75>
 b0a:	6c                   	ins    BYTE PTR es:[edi],dx
 b0b:	75 65                	jne    b72 <_init-0x8047b6e>
 b0d:	00 09                	add    BYTE PTR [ecx],cl
 b0f:	0d 8f 00 00 00       	or     eax,0x8f
 b14:	02 23                	add    ah,BYTE PTR [ebx]
 b16:	00 0a                	add    BYTE PTR [edx],cl
 b18:	69 6e 64 65 78 00 09 	imul   ebp,DWORD PTR [esi+0x64],0x9007865
 b1f:	0e                   	push   cs
 b20:	8f 00                	pop    DWORD PTR [eax]
 b22:	00 00                	add    BYTE PTR [eax],al
 b24:	02 23                	add    ah,BYTE PTR [ebx]
 b26:	04 0a                	add    al,0xa
 b28:	6e                   	outs   dx,BYTE PTR ds:[esi]
 b29:	65                   	gs
 b2a:	78 74                	js     ba0 <_init-0x8047b40>
 b2c:	00 09                	add    BYTE PTR [ecx],cl
 b2e:	0f 37                	getsec 
 b30:	0b 00                	or     eax,DWORD PTR [eax]
 b32:	00 02                	add    BYTE PTR [edx],al
 b34:	23 08                	and    ecx,DWORD PTR [eax]
 b36:	00 05 04 f4 0a 00    	add    BYTE PTR ds:0xaf404,al
 b3c:	00 10                	add    BYTE PTR [eax],dl
 b3e:	6c                   	ins    BYTE PTR es:[edi],dx
 b3f:	69 73 74 4e 6f 64 65 	imul   esi,DWORD PTR [ebx+0x74],0x65646f4e
 b46:	00 09                	add    BYTE PTR [ecx],cl
 b48:	10 f4                	adc    ah,dh
 b4a:	0a 00                	or     al,BYTE PTR [eax]
 b4c:	00 18                	add    BYTE PTR [eax],bl
 b4e:	69 6e 66 69 6c 65 00 	imul   ebp,DWORD PTR [esi+0x66],0x656c69
 b55:	04 21                	add    al,0x21
 b57:	e5 02                	in     eax,0x2
 b59:	00 00                	add    BYTE PTR [eax],al
 b5b:	01 05 03 64 b6 04    	add    DWORD PTR ds:0x4b66403,eax
 b61:	08 00                	or     BYTE PTR [eax],al

Disassembly of section .debug_abbrev:

00000000 <.debug_abbrev>:
   0:	01 11                	add    DWORD PTR [ecx],edx
   2:	01 03                	add    DWORD PTR [ebx],eax
   4:	08 1b                	or     BYTE PTR [ebx],bl
   6:	08 25 08 13 0b 11    	or     BYTE PTR ds:0x110b1308,ah
   c:	01 12                	add    DWORD PTR [edx],edx
   e:	01 10                	add    DWORD PTR [eax],edx
  10:	06                   	push   es
  11:	00 00                	add    BYTE PTR [eax],al
  13:	02 2e                	add    ch,BYTE PTR [esi]
  15:	01 01                	add    DWORD PTR [ecx],eax
  17:	13 3f                	adc    edi,DWORD PTR [edi]
  19:	0c 03                	or     al,0x3
  1b:	08 3a                	or     BYTE PTR [edx],bh
  1d:	0b 3b                	or     edi,DWORD PTR [ebx]
  1f:	0b 27                	or     esp,DWORD PTR [edi]
  21:	0c 49                	or     al,0x49
  23:	13 20                	adc    esp,DWORD PTR [eax]
  25:	0b 00                	or     eax,DWORD PTR [eax]
  27:	00 03                	add    BYTE PTR [ebx],al
  29:	05 00 03 08 3a       	add    eax,0x3a080300
  2e:	0b 3b                	or     edi,DWORD PTR [ebx]
  30:	0b 49 13             	or     ecx,DWORD PTR [ecx+0x13]
  33:	00 00                	add    BYTE PTR [eax],al
  35:	04 24                	add    al,0x24
  37:	00 03                	add    BYTE PTR [ebx],al
  39:	08 0b                	or     BYTE PTR [ebx],cl
  3b:	0b 3e                	or     edi,DWORD PTR [esi]
  3d:	0b 00                	or     eax,DWORD PTR [eax]
  3f:	00 05 0f 00 0b 0b    	add    BYTE PTR ds:0xb0b000f,al
  45:	49                   	dec    ecx
  46:	13 00                	adc    eax,DWORD PTR [eax]
  48:	00 06                	add    BYTE PTR [esi],al
  4a:	26 00 49 13          	add    BYTE PTR es:[ecx+0x13],cl
  4e:	00 00                	add    BYTE PTR [eax],al
  50:	07                   	pop    es
  51:	0f 00 0b             	str    WORD PTR [ebx]
  54:	0b 00                	or     eax,DWORD PTR [eax]
  56:	00 08                	add    BYTE PTR [eax],cl
  58:	2e 00 3f             	add    BYTE PTR cs:[edi],bh
  5b:	0c 03                	or     al,0x3
  5d:	08 3a                	or     BYTE PTR [edx],bh
  5f:	0b 3b                	or     edi,DWORD PTR [ebx]
  61:	0b 27                	or     esp,DWORD PTR [edi]
  63:	0c 49                	or     al,0x49
  65:	13 20                	adc    esp,DWORD PTR [eax]
  67:	0b 00                	or     eax,DWORD PTR [eax]
  69:	00 09                	add    BYTE PTR [ecx],cl
  6b:	13 01                	adc    eax,DWORD PTR [ecx]
  6d:	01 13                	add    DWORD PTR [ebx],edx
  6f:	03 08                	add    ecx,DWORD PTR [eax]
  71:	0b 0b                	or     ecx,DWORD PTR [ebx]
  73:	3a 0b                	cmp    cl,BYTE PTR [ebx]
  75:	3b 0b                	cmp    ecx,DWORD PTR [ebx]
  77:	00 00                	add    BYTE PTR [eax],al
  79:	0a 0d 00 03 08 3a    	or     cl,BYTE PTR ds:0x3a080300
  7f:	0b 3b                	or     edi,DWORD PTR [ebx]
  81:	0b 49 13             	or     ecx,DWORD PTR [ecx+0x13]
  84:	38 0a                	cmp    BYTE PTR [edx],cl
  86:	00 00                	add    BYTE PTR [eax],al
  88:	0b 01                	or     eax,DWORD PTR [ecx]
  8a:	01 01                	add    DWORD PTR [ecx],eax
  8c:	13 49 13             	adc    ecx,DWORD PTR [ecx+0x13]
  8f:	00 00                	add    BYTE PTR [eax],al
  91:	0c 21                	or     al,0x21
  93:	00 2f                	add    BYTE PTR [edi],ch
  95:	0b 00                	or     eax,DWORD PTR [eax]
  97:	00 0d 2e 01 01 13    	add    BYTE PTR ds:0x1301012e,cl
  9d:	3f                   	aas    
  9e:	0c 03                	or     al,0x3
  a0:	08 3a                	or     BYTE PTR [edx],bh
  a2:	0b 3b                	or     edi,DWORD PTR [ebx]
  a4:	0b 27                	or     esp,DWORD PTR [edi]
  a6:	0c 49                	or     al,0x49
  a8:	13 11                	adc    edx,DWORD PTR [ecx]
  aa:	01 12                	add    DWORD PTR [edx],edx
  ac:	01 40 0a             	add    DWORD PTR [eax+0xa],eax
  af:	00 00                	add    BYTE PTR [eax],al
  b1:	0e                   	push   cs
  b2:	05 00 03 08 3a       	add    eax,0x3a080300
  b7:	0b 3b                	or     edi,DWORD PTR [ebx]
  b9:	0b 49 13             	or     ecx,DWORD PTR [ecx+0x13]
  bc:	02 0a                	add    cl,BYTE PTR [edx]
  be:	00 00                	add    BYTE PTR [eax],al
  c0:	0f 34                	sysenter 
  c2:	00 03                	add    BYTE PTR [ebx],al
  c4:	08 3a                	or     BYTE PTR [edx],bh
  c6:	0b 3b                	or     edi,DWORD PTR [ebx]
  c8:	0b 49 13             	or     ecx,DWORD PTR [ecx+0x13]
  cb:	02 0a                	add    cl,BYTE PTR [edx]
  cd:	00 00                	add    BYTE PTR [eax],al
  cf:	10 16                	adc    BYTE PTR [esi],dl
  d1:	00 03                	add    BYTE PTR [ebx],al
  d3:	08 3a                	or     BYTE PTR [edx],bh
  d5:	0b 3b                	or     edi,DWORD PTR [ebx]
  d7:	0b 49 13             	or     ecx,DWORD PTR [ecx+0x13]
  da:	00 00                	add    BYTE PTR [eax],al
  dc:	11 13                	adc    DWORD PTR [ebx],edx
  de:	01 01                	add    DWORD PTR [ecx],eax
  e0:	13 0b                	adc    ecx,DWORD PTR [ebx]
  e2:	0b 3a                	or     edi,DWORD PTR [edx]
  e4:	0b 3b                	or     edi,DWORD PTR [ebx]
  e6:	0b 00                	or     eax,DWORD PTR [eax]
  e8:	00 12                	add    BYTE PTR [edx],dl
  ea:	16                   	push   ss
  eb:	00 03                	add    BYTE PTR [ebx],al
  ed:	08 3a                	or     BYTE PTR [edx],bh
  ef:	0b 3b                	or     edi,DWORD PTR [ebx]
  f1:	05 49 13 00 00       	add    eax,0x1349
  f6:	13 13                	adc    edx,DWORD PTR [ebx]
  f8:	00 03                	add    BYTE PTR [ebx],al
  fa:	08 3c 0c             	or     BYTE PTR [esp+ecx*1],bh
  fd:	00 00                	add    BYTE PTR [eax],al
  ff:	14 16                	adc    al,0x16
 101:	00 03                	add    BYTE PTR [ebx],al
 103:	08 3a                	or     BYTE PTR [edx],bh
 105:	0b 3b                	or     edi,DWORD PTR [ebx]
 107:	0b 00                	or     eax,DWORD PTR [eax]
 109:	00 15 15 01 01 13    	add    BYTE PTR ds:0x13010115,dl
 10f:	27                   	daa    
 110:	0c 49                	or     al,0x49
 112:	13 00                	adc    eax,DWORD PTR [eax]
 114:	00 16                	add    BYTE PTR [esi],dl
 116:	05 00 49 13 00       	add    eax,0x134900
 11b:	00 17                	add    BYTE PTR [edi],dl
 11d:	34 00                	xor    al,0x0
 11f:	03 08                	add    ecx,DWORD PTR [eax]
 121:	3a 0b                	cmp    cl,BYTE PTR [ebx]
 123:	3b 0b                	cmp    ecx,DWORD PTR [ebx]
 125:	49                   	dec    ecx
 126:	13 3f                	adc    edi,DWORD PTR [edi]
 128:	0c 3c                	or     al,0x3c
 12a:	0c 00                	or     al,0x0
 12c:	00 18                	add    BYTE PTR [eax],bl
 12e:	34 00                	xor    al,0x0
 130:	03 08                	add    ecx,DWORD PTR [eax]
 132:	3a 0b                	cmp    cl,BYTE PTR [ebx]
 134:	3b 0b                	cmp    ecx,DWORD PTR [ebx]
 136:	49                   	dec    ecx
 137:	13 3f                	adc    edi,DWORD PTR [edi]
 139:	0c 02                	or     al,0x2
 13b:	0a 00                	or     al,BYTE PTR [eax]
	...

Disassembly of section .debug_line:

00000000 <.debug_line>:
   0:	a4                   	movs   BYTE PTR es:[edi],BYTE PTR ds:[esi]
   1:	02 00                	add    al,BYTE PTR [eax]
   3:	00 02                	add    BYTE PTR [edx],al
   5:	00 5a 01             	add    BYTE PTR [edx+0x1],bl
   8:	00 00                	add    BYTE PTR [eax],al
   a:	04 01                	add    al,0x1
   c:	f6 f5                	div    ch
   e:	0a 00                	or     al,BYTE PTR [eax]
  10:	01 01                	add    DWORD PTR [ecx],eax
  12:	01 01                	add    DWORD PTR [ecx],eax
  14:	00 00                	add    BYTE PTR [eax],al
  16:	00 01                	add    BYTE PTR [ecx],al
  18:	00 2f                	add    BYTE PTR [edi],ch
  1a:	75 73                	jne    8f <_init-0x8048651>
  1c:	72 2f                	jb     4d <_init-0x8048693>
  1e:	69 6e 63 6c 75 64 65 	imul   ebp,DWORD PTR [esi+0x63],0x6564756c
  25:	2f                   	das    
  26:	62 69 74             	bound  ebp,QWORD PTR [ecx+0x74]
  29:	73 2f                	jae    5a <_init-0x8048686>
  2b:	73 74                	jae    a1 <_init-0x804863f>
  2d:	64 69 6f 2e 68 00 00 	imul   ebp,DWORD PTR fs:[edi+0x2e],0x68
  34:	00 
  35:	00 2f                	add    BYTE PTR [edi],ch
  37:	75 73                	jne    ac <_init-0x8048634>
  39:	72 2f                	jb     6a <_init-0x8048676>
  3b:	69 6e 63 6c 75 64 65 	imul   ebp,DWORD PTR [esi+0x63],0x6564756c
  42:	2f                   	das    
  43:	73 74                	jae    b9 <_init-0x8048627>
  45:	64 69 6f 2e 68 00 00 	imul   ebp,DWORD PTR fs:[edi+0x2e],0x68
  4c:	00 
  4d:	00 2f                	add    BYTE PTR [edi],ch
  4f:	75 73                	jne    c4 <_init-0x804861c>
  51:	72 2f                	jb     82 <_init-0x804865e>
  53:	69 6e 63 6c 75 64 65 	imul   ebp,DWORD PTR [esi+0x63],0x6564756c
  5a:	2f                   	das    
  5b:	6c                   	ins    BYTE PTR es:[edi],dx
  5c:	69 62 69 6f 2e 68 00 	imul   esp,DWORD PTR [edx+0x69],0x682e6f
  63:	00 00                	add    BYTE PTR [eax],al
  65:	00 62 6f             	add    BYTE PTR [edx+0x6f],ah
  68:	6d                   	ins    DWORD PTR es:[edi],dx
  69:	62 2e                	bound  ebp,QWORD PTR [esi]
  6b:	63 00                	arpl   WORD PTR [eax],ax
  6d:	00 00                	add    BYTE PTR [eax],al
  6f:	00 2f                	add    BYTE PTR [edi],ch
  71:	75 73                	jne    e6 <_init-0x80485fa>
  73:	72 2f                	jb     a4 <_init-0x804863c>
  75:	6c                   	ins    BYTE PTR es:[edi],dx
  76:	6f                   	outs   dx,DWORD PTR ds:[esi]
  77:	63 61 6c             	arpl   WORD PTR [ecx+0x6c],sp
  7a:	2f                   	das    
  7b:	6c                   	ins    BYTE PTR es:[edi],dx
  7c:	69 62 65 78 65 63 2f 	imul   esp,DWORD PTR [edx+0x65],0x2f636578
  83:	67 63 63 2d          	arpl   WORD PTR [bp+di+0x2d],sp
  87:	32 2e                	xor    ch,BYTE PTR [esi]
  89:	39 35 2e 33 2f 6c    	cmp    DWORD PTR ds:0x6c2f332e,esi
  8f:	69 62 2f 67 63 63 2d 	imul   esp,DWORD PTR [edx+0x2f],0x2d636367
  96:	6c                   	ins    BYTE PTR es:[edi],dx
  97:	69 62 2f 69 36 38 36 	imul   esp,DWORD PTR [edx+0x2f],0x36383669
  9e:	2d 70 63 2d 6c       	sub    eax,0x6c2d6370
  a3:	69 6e 75 78 2d 67 6e 	imul   ebp,DWORD PTR [esi+0x75],0x6e672d78
  aa:	75 2f                	jne    db <_init-0x8048605>
  ac:	32 2e                	xor    ch,BYTE PTR [esi]
  ae:	39 35 2e 33 2f 69    	cmp    DWORD PTR ds:0x692f332e,esi
  b4:	6e                   	outs   dx,BYTE PTR ds:[esi]
  b5:	63 6c 75 64          	arpl   WORD PTR [ebp+esi*2+0x64],bp
  b9:	65                   	gs
  ba:	2f                   	das    
  bb:	73 74                	jae    131 <_init-0x80485af>
  bd:	64                   	fs
  be:	64                   	fs
  bf:	65                   	gs
  c0:	66                   	data16
  c1:	2e                   	cs
  c2:	68 00 00 00 00       	push   0x0
  c7:	2f                   	das    
  c8:	75 73                	jne    13d <_init-0x80485a3>
  ca:	72 2f                	jb     fb <_init-0x80485e5>
  cc:	6c                   	ins    BYTE PTR es:[edi],dx
  cd:	6f                   	outs   dx,DWORD PTR ds:[esi]
  ce:	63 61 6c             	arpl   WORD PTR [ecx+0x6c],sp
  d1:	2f                   	das    
  d2:	6c                   	ins    BYTE PTR es:[edi],dx
  d3:	69 62 65 78 65 63 2f 	imul   esp,DWORD PTR [edx+0x65],0x2f636578
  da:	67 63 63 2d          	arpl   WORD PTR [bp+di+0x2d],sp
  de:	32 2e                	xor    ch,BYTE PTR [esi]
  e0:	39 35 2e 33 2f 6c    	cmp    DWORD PTR ds:0x6c2f332e,esi
  e6:	69 62 2f 67 63 63 2d 	imul   esp,DWORD PTR [edx+0x2f],0x2d636367
  ed:	6c                   	ins    BYTE PTR es:[edi],dx
  ee:	69 62 2f 69 36 38 36 	imul   esp,DWORD PTR [edx+0x2f],0x36383669
  f5:	2d 70 63 2d 6c       	sub    eax,0x6c2d6370
  fa:	69 6e 75 78 2d 67 6e 	imul   ebp,DWORD PTR [esi+0x75],0x6e672d78
 101:	75 2f                	jne    132 <_init-0x80485ae>
 103:	32 2e                	xor    ch,BYTE PTR [esi]
 105:	39 35 2e 33 2f 69    	cmp    DWORD PTR ds:0x692f332e,esi
 10b:	6e                   	outs   dx,BYTE PTR ds:[esi]
 10c:	63 6c 75 64          	arpl   WORD PTR [ebp+esi*2+0x64],bp
 110:	65                   	gs
 111:	2f                   	das    
 112:	73 74                	jae    188 <_init-0x8048558>
 114:	64                   	fs
 115:	61                   	popa   
 116:	72 67                	jb     17f <_init-0x8048561>
 118:	2e                   	cs
 119:	68 00 00 00 00       	push   0x0
 11e:	2f                   	das    
 11f:	75 73                	jne    194 <_init-0x804854c>
 121:	72 2f                	jb     152 <_init-0x804858e>
 123:	69 6e 63 6c 75 64 65 	imul   ebp,DWORD PTR [esi+0x63],0x6564756c
 12a:	2f                   	das    
 12b:	62 69 74             	bound  ebp,QWORD PTR [ecx+0x74]
 12e:	73 2f                	jae    15f <_init-0x8048581>
 130:	74 79                	je     1ab <_init-0x8048535>
 132:	70 65                	jo     199 <_init-0x8048547>
 134:	73 2e                	jae    164 <_init-0x804857c>
 136:	68 00 00 00 00       	push   0x0
 13b:	2f                   	das    
 13c:	75 73                	jne    1b1 <_init-0x804852f>
 13e:	72 2f                	jb     16f <_init-0x8048571>
 140:	69 6e 63 6c 75 64 65 	imul   ebp,DWORD PTR [esi+0x63],0x6564756c
 147:	2f                   	das    
 148:	5f                   	pop    edi
 149:	47                   	inc    edi
 14a:	5f                   	pop    edi
 14b:	63 6f 6e             	arpl   WORD PTR [edi+0x6e],bp
 14e:	66 69 67 2e 68 00    	imul   sp,WORD PTR [edi+0x2e],0x68
 154:	00 00                	add    BYTE PTR [eax],al
 156:	00 70 68             	add    BYTE PTR [eax+0x68],dh
 159:	61                   	popa   
 15a:	73 65                	jae    1c1 <_init-0x804851f>
 15c:	73 2e                	jae    18c <_init-0x8048554>
 15e:	68 00 00 00 00       	push   0x0
 163:	00 00                	add    BYTE PTR [eax],al
 165:	05 02 b7 89 04       	add    eax,0x489b702
 16a:	08 04 04             	or     BYTE PTR [esp+eax*1],al
 16d:	37                   	aaa    
 16e:	00 05 02 bd 89 04    	add    BYTE PTR ds:0x489bd02,al
 174:	08 15 00 05 02 bd    	or     BYTE PTR ds:0xbd020500,dl
 17a:	89 04 08             	mov    DWORD PTR [eax+ecx*1],eax
 17d:	1b 00                	sbb    eax,DWORD PTR [eax]
 17f:	05 02 c2 89 04       	add    eax,0x489c202
 184:	08 15 00 05 02 cc    	or     BYTE PTR ds:0xcc020500,dl
 18a:	89 04 08             	mov    DWORD PTR [eax+ecx*1],eax
 18d:	15 00 05 02 d0       	adc    eax,0xd0020500
 192:	89 04 08             	mov    DWORD PTR [eax+ecx*1],eax
 195:	1a 00                	sbb    al,BYTE PTR [eax]
 197:	05 02 d5 89 04       	add    eax,0x489d502
 19c:	08 15 00 05 02 f2    	or     BYTE PTR ds:0xf2020500,dl
 1a2:	89 04 08             	mov    DWORD PTR [eax+ecx*1],eax
 1a5:	15 00 05 02 06       	adc    eax,0x6020500
 1aa:	8a 04 08             	mov    al,BYTE PTR [eax+ecx*1]
 1ad:	15 00 05 02 10       	adc    eax,0x10020500
 1b2:	8a 04 08             	mov    al,BYTE PTR [eax+ecx*1]
 1b5:	1a 00                	sbb    al,BYTE PTR [eax]
 1b7:	05 02 20 8a 04       	add    eax,0x48a2002
 1bc:	08 15 00 05 02 30    	or     BYTE PTR ds:0x30020500,dl
 1c2:	8a 04 08             	mov    al,BYTE PTR [eax+ecx*1]
 1c5:	18 00                	sbb    BYTE PTR [eax],al
 1c7:	05 02 35 8a 04       	add    eax,0x48a3502
 1cc:	08 16                	or     BYTE PTR [esi],dl
 1ce:	00 05 02 42 8a 04    	add    BYTE PTR ds:0x48a4202,al
 1d4:	08 15 00 05 02 4f    	or     BYTE PTR ds:0x4f020500,dl
 1da:	8a 04 08             	mov    al,BYTE PTR [eax+ecx*1]
 1dd:	17                   	pop    ss
 1de:	00 05 02 57 8a 04    	add    BYTE PTR ds:0x48a5702,al
 1e4:	08 15 00 05 02 60    	or     BYTE PTR ds:0x60020500,dl
 1ea:	8a 04 08             	mov    al,BYTE PTR [eax+ecx*1]
 1ed:	15 00 05 02 65       	adc    eax,0x65020500
 1f2:	8a 04 08             	mov    al,BYTE PTR [eax+ecx*1]
 1f5:	16                   	push   ss
 1f6:	00 05 02 72 8a 04    	add    BYTE PTR ds:0x48a7202,al
 1fc:	08 18                	or     BYTE PTR [eax],bl
 1fe:	00 05 02 7a 8a 04    	add    BYTE PTR ds:0x48a7a02,al
 204:	08 15 00 05 02 83    	or     BYTE PTR ds:0x83020500,dl
 20a:	8a 04 08             	mov    al,BYTE PTR [eax+ecx*1]
 20d:	15 00 05 02 88       	adc    eax,0x88020500
 212:	8a 04 08             	mov    al,BYTE PTR [eax+ecx*1]
 215:	15 00 05 02 95       	adc    eax,0x95020500
 21a:	8a 04 08             	mov    al,BYTE PTR [eax+ecx*1]
 21d:	18 00                	sbb    BYTE PTR [eax],al
 21f:	05 02 9d 8a 04       	add    eax,0x48a9d02
 224:	08 15 00 05 02 a6    	or     BYTE PTR ds:0xa6020500,dl
 22a:	8a 04 08             	mov    al,BYTE PTR [eax+ecx*1]
 22d:	15 00 05 02 ab       	adc    eax,0xab020500
 232:	8a 04 08             	mov    al,BYTE PTR [eax+ecx*1]
 235:	15 00 05 02 b8       	adc    eax,0xb8020500
 23a:	8a 04 08             	mov    al,BYTE PTR [eax+ecx*1]
 23d:	17                   	pop    ss
 23e:	00 05 02 c0 8a 04    	add    BYTE PTR ds:0x48ac002,al
 244:	08 15 00 05 02 c9    	or     BYTE PTR ds:0xc9020500,dl
 24a:	8a 04 08             	mov    al,BYTE PTR [eax+ecx*1]
 24d:	15 00 05 02 ce       	adc    eax,0xce020500
 252:	8a 04 08             	mov    al,BYTE PTR [eax+ecx*1]
 255:	15 00 05 02 db       	adc    eax,0xdb020500
 25a:	8a 04 08             	mov    al,BYTE PTR [eax+ecx*1]
 25d:	17                   	pop    ss
 25e:	00 05 02 e3 8a 04    	add    BYTE PTR ds:0x48ae302,al
 264:	08 15 00 05 02 ec    	or     BYTE PTR ds:0xec020500,dl
 26a:	8a 04 08             	mov    al,BYTE PTR [eax+ecx*1]
 26d:	15 00 05 02 f1       	adc    eax,0xf1020500
 272:	8a 04 08             	mov    al,BYTE PTR [eax+ecx*1]
 275:	15 00 05 02 fe       	adc    eax,0xfe020500
 27a:	8a 04 08             	mov    al,BYTE PTR [eax+ecx*1]
 27d:	18 00                	sbb    BYTE PTR [eax],al
 27f:	05 02 06 8b 04       	add    eax,0x48b0602
 284:	08 15 00 05 02 0f    	or     BYTE PTR ds:0xf020500,dl
 28a:	8b 04 08             	mov    eax,DWORD PTR [eax+ecx*1]
 28d:	15 00 05 02 14       	adc    eax,0x14020500
 292:	8b 04 08             	mov    eax,DWORD PTR [eax+ecx*1]
 295:	19 00                	sbb    DWORD PTR [eax],eax
 297:	05 02 1d 8b 04       	add    eax,0x48b1d02
 29c:	08 15 00 05 02 1d    	or     BYTE PTR ds:0x1d020500,dl
 2a2:	8b 04 08             	mov    eax,DWORD PTR [eax+ecx*1]
 2a5:	00 01                	add    BYTE PTR [ecx],al
 2a7:	01                   	.byte 0x1

Disassembly of section .note:

0804bd10 <.note>:
 804bd10:	08 00                	or     BYTE PTR [eax],al
 804bd12:	00 00                	add    BYTE PTR [eax],al
 804bd14:	00 00                	add    BYTE PTR [eax],al
 804bd16:	00 00                	add    BYTE PTR [eax],al
 804bd18:	01 00                	add    DWORD PTR [eax],eax
 804bd1a:	00 00                	add    BYTE PTR [eax],al
 804bd1c:	30 31                	xor    BYTE PTR [ecx],dh
 804bd1e:	2e 30 31             	xor    BYTE PTR cs:[ecx],dh
 804bd21:	00 00                	add    BYTE PTR [eax],al
 804bd23:	00 08                	add    BYTE PTR [eax],cl
 804bd25:	00 00                	add    BYTE PTR [eax],al
 804bd27:	00 00                	add    BYTE PTR [eax],al
 804bd29:	00 00                	add    BYTE PTR [eax],al
 804bd2b:	00 01                	add    BYTE PTR [ecx],al
 804bd2d:	00 00                	add    BYTE PTR [eax],al
 804bd2f:	00 30                	add    BYTE PTR [eax],dh
 804bd31:	31 2e                	xor    DWORD PTR [esi],ebp
 804bd33:	30 31                	xor    BYTE PTR [ecx],dh
 804bd35:	00 00                	add    BYTE PTR [eax],al
 804bd37:	00 08                	add    BYTE PTR [eax],cl
 804bd39:	00 00                	add    BYTE PTR [eax],al
 804bd3b:	00 00                	add    BYTE PTR [eax],al
 804bd3d:	00 00                	add    BYTE PTR [eax],al
 804bd3f:	00 01                	add    BYTE PTR [ecx],al
 804bd41:	00 00                	add    BYTE PTR [eax],al
 804bd43:	00 30                	add    BYTE PTR [eax],dh
 804bd45:	31 2e                	xor    DWORD PTR [esi],ebp
 804bd47:	30 31                	xor    BYTE PTR [ecx],dh
 804bd49:	00 00                	add    BYTE PTR [eax],al
 804bd4b:	00 08                	add    BYTE PTR [eax],cl
 804bd4d:	00 00                	add    BYTE PTR [eax],al
 804bd4f:	00 00                	add    BYTE PTR [eax],al
 804bd51:	00 00                	add    BYTE PTR [eax],al
 804bd53:	00 01                	add    BYTE PTR [ecx],al
 804bd55:	00 00                	add    BYTE PTR [eax],al
 804bd57:	00 30                	add    BYTE PTR [eax],dh
 804bd59:	31 2e                	xor    DWORD PTR [esi],ebp
 804bd5b:	30 31                	xor    BYTE PTR [ecx],dh
 804bd5d:	00 00                	add    BYTE PTR [eax],al
 804bd5f:	00 08                	add    BYTE PTR [eax],cl
 804bd61:	00 00                	add    BYTE PTR [eax],al
 804bd63:	00 00                	add    BYTE PTR [eax],al
 804bd65:	00 00                	add    BYTE PTR [eax],al
 804bd67:	00 01                	add    BYTE PTR [ecx],al
 804bd69:	00 00                	add    BYTE PTR [eax],al
 804bd6b:	00 30                	add    BYTE PTR [eax],dh
 804bd6d:	31 2e                	xor    DWORD PTR [esi],ebp
 804bd6f:	30 31                	xor    BYTE PTR [ecx],dh
 804bd71:	00 00                	add    BYTE PTR [eax],al
 804bd73:	00 08                	add    BYTE PTR [eax],cl
 804bd75:	00 00                	add    BYTE PTR [eax],al
 804bd77:	00 00                	add    BYTE PTR [eax],al
 804bd79:	00 00                	add    BYTE PTR [eax],al
 804bd7b:	00 01                	add    BYTE PTR [ecx],al
 804bd7d:	00 00                	add    BYTE PTR [eax],al
 804bd7f:	00 30                	add    BYTE PTR [eax],dh
 804bd81:	31 2e                	xor    DWORD PTR [esi],ebp
 804bd83:	30 31                	xor    BYTE PTR [ecx],dh
 804bd85:	00 00                	add    BYTE PTR [eax],al
 804bd87:	00 08                	add    BYTE PTR [eax],cl
 804bd89:	00 00                	add    BYTE PTR [eax],al
 804bd8b:	00 00                	add    BYTE PTR [eax],al
 804bd8d:	00 00                	add    BYTE PTR [eax],al
 804bd8f:	00 01                	add    BYTE PTR [ecx],al
 804bd91:	00 00                	add    BYTE PTR [eax],al
 804bd93:	00 30                	add    BYTE PTR [eax],dh
 804bd95:	31 2e                	xor    DWORD PTR [esi],ebp
 804bd97:	30 31                	xor    BYTE PTR [ecx],dh
 804bd99:	00 00                	add    BYTE PTR [eax],al
 804bd9b:	00 08                	add    BYTE PTR [eax],cl
 804bd9d:	00 00                	add    BYTE PTR [eax],al
 804bd9f:	00 00                	add    BYTE PTR [eax],al
 804bda1:	00 00                	add    BYTE PTR [eax],al
 804bda3:	00 01                	add    BYTE PTR [ecx],al
 804bda5:	00 00                	add    BYTE PTR [eax],al
 804bda7:	00 30                	add    BYTE PTR [eax],dh
 804bda9:	31 2e                	xor    DWORD PTR [esi],ebp
 804bdab:	30 31                	xor    BYTE PTR [ecx],dh
 804bdad:	00 00                	add    BYTE PTR [eax],al
	...
